ld-2.23.so:     file format elf64-x86-64


Disassembly of section .plt:

0000000000000a60 <__libc_memalign@plt-0x10>:
 a60:	ff 35 a2 55 22 00    	push   QWORD PTR [rip+0x2255a2]        # 226008 <__libc_enable_secure@@GLIBC_PRIVATE+0x1a0>
 a66:	ff 25 a4 55 22 00    	jmp    QWORD PTR [rip+0x2255a4]        # 226010 <__libc_enable_secure@@GLIBC_PRIVATE+0x1a8>
 a6c:	0f 1f 40 00          	nop    DWORD PTR [rax+0x0]

0000000000000a70 <__libc_memalign@plt>:
 a70:	ff 25 a2 55 22 00    	jmp    QWORD PTR [rip+0x2255a2]        # 226018 <__libc_memalign@@GLIBC_2.2.5+0x20c3e8>
 a76:	68 00 00 00 00       	push   0x0
 a7b:	e9 e0 ff ff ff       	jmp    a60 <GLIBC_2.2.5@@GLIBC_2.2.5+0xa60>

0000000000000a80 <malloc@plt>:
 a80:	ff 25 9a 55 22 00    	jmp    QWORD PTR [rip+0x22559a]        # 226020 <malloc@@GLIBC_2.2.5+0x20c2f0>
 a86:	68 01 00 00 00       	push   0x1
 a8b:	e9 d0 ff ff ff       	jmp    a60 <GLIBC_2.2.5@@GLIBC_2.2.5+0xa60>

0000000000000a90 <calloc@plt>:
 a90:	ff 25 92 55 22 00    	jmp    QWORD PTR [rip+0x225592]        # 226028 <calloc@@GLIBC_2.2.5+0x20c2e8>
 a96:	68 02 00 00 00       	push   0x2
 a9b:	e9 c0 ff ff ff       	jmp    a60 <GLIBC_2.2.5@@GLIBC_2.2.5+0xa60>

0000000000000aa0 <realloc@plt>:
 aa0:	ff 25 8a 55 22 00    	jmp    QWORD PTR [rip+0x22558a]        # 226030 <realloc@@GLIBC_2.2.5+0x20c100>
 aa6:	68 03 00 00 00       	push   0x3
 aab:	e9 b0 ff ff ff       	jmp    a60 <GLIBC_2.2.5@@GLIBC_2.2.5+0xa60>

Disassembly of section .plt.got:

0000000000000ab0 <free@plt>:
 ab0:	ff 25 32 55 22 00    	jmp    QWORD PTR [rip+0x225532]        # 225fe8 <free@@GLIBC_2.2.5+0x20c268>
 ab6:	66 90                	xchg   ax,ax

Disassembly of section .text:

0000000000000ac0 <_dl_rtld_di_serinfo@@GLIBC_PRIVATE-0x89c0>:
     ac0:	41 54                	push   r12
     ac2:	55                   	push   rbp
     ac3:	49 89 d4             	mov    r12,rdx
     ac6:	53                   	push   rbx
     ac7:	48 8d 0d b2 03 00 00 	lea    rcx,[rip+0x3b2]        # e80 <free@plt+0x3d0>
     ace:	48 89 fb             	mov    rbx,rdi
     ad1:	48 83 ec 40          	sub    rsp,0x40
     ad5:	8b 2d 6d 55 22 00    	mov    ebp,DWORD PTR [rip+0x22556d]        # 226048 <_rtld_global@@GLIBC_PRIVATE+0x8>
     adb:	48 89 7c 24 20       	mov    QWORD PTR [rsp+0x20],rdi
     ae0:	48 89 74 24 28       	mov    QWORD PTR [rsp+0x28],rsi
     ae5:	4c 8d 44 24 20       	lea    r8,[rsp+0x20]
     aea:	48 8d 54 24 0f       	lea    rdx,[rsp+0xf]
     aef:	48 8d 74 24 18       	lea    rsi,[rsp+0x18]
     af4:	48 8d 7c 24 10       	lea    rdi,[rsp+0x10]
     af9:	48 c7 44 24 18 00 00 	mov    QWORD PTR [rsp+0x18],0x0
     b00:	00 00 
     b02:	c7 44 24 30 00 00 00 	mov    DWORD PTR [rsp+0x30],0x4000000
     b09:	04 
     b0a:	e8 11 f8 00 00       	call   10320 <_dl_rtld_di_serinfo@@GLIBC_PRIVATE+0x6ea0>
     b0f:	4c 8b 44 24 18       	mov    r8,QWORD PTR [rsp+0x18]
     b14:	4d 85 c0             	test   r8,r8
     b17:	74 1d                	je     b36 <free@plt+0x86>
     b19:	48 8d 35 98 f6 01 00 	lea    rsi,[rip+0x1f698]        # 201b8 <realloc@@GLIBC_2.2.5+0x6288>
     b20:	31 c0                	xor    eax,eax
     b22:	4c 89 e1             	mov    rcx,r12
     b25:	48 89 da             	mov    rdx,rbx
     b28:	bf 02 00 00 00       	mov    edi,0x2
     b2d:	e8 de 0b 01 00       	call   11710 <_dl_debug_state@@GLIBC_PRIVATE+0x880>
     b32:	31 c0                	xor    eax,eax
     b34:	eb 0b                	jmp    b41 <free@plt+0x91>
     b36:	31 c0                	xor    eax,eax
     b38:	39 2d 0a 55 22 00    	cmp    DWORD PTR [rip+0x22550a],ebp        # 226048 <_rtld_global@@GLIBC_PRIVATE+0x8>
     b3e:	0f 95 c0             	setne  al
     b41:	48 83 c4 40          	add    rsp,0x40
     b45:	5b                   	pop    rbx
     b46:	5d                   	pop    rbp
     b47:	41 5c                	pop    r12
     b49:	c3                   	ret
     b4a:	31 c0                	xor    eax,eax
     b4c:	48 83 3d 44 64 22 00 	cmp    QWORD PTR [rip+0x226444],0x0        # 226f98 <_rtld_global@@GLIBC_PRIVATE+0xf58>
     b53:	00 
     b54:	53                   	push   rbx
     b55:	48 8b 1d 0c 64 22 00 	mov    rbx,QWORD PTR [rip+0x22640c]        # 226f68 <_rtld_global@@GLIBC_PRIVATE+0xf28>
     b5c:	48 89 1d 15 64 22 00 	mov    QWORD PTR [rip+0x226415],rbx        # 226f78 <_rtld_global@@GLIBC_PRIVATE+0xf38>
     b63:	0f 85 2a 01 00 00    	jne    c93 <free@plt+0x1e3>
     b69:	48 8d 7b 40          	lea    rdi,[rbx+0x40]
     b6d:	be 01 00 00 00       	mov    esi,0x1
     b72:	48 c1 e7 04          	shl    rdi,0x4
     b76:	e8 15 ff ff ff       	call   a90 <calloc@plt>
     b7b:	48 83 3d 4d 55 22 00 	cmp    QWORD PTR [rip+0x22554d],0x0        # 2260d0 <_rtld_global@@GLIBC_PRIVATE+0x90>
     b82:	00 
     b83:	48 8d 53 3f          	lea    rdx,[rbx+0x3f]
     b87:	48 89 05 e2 63 22 00 	mov    QWORD PTR [rip+0x2263e2],rax        # 226f70 <_rtld_global@@GLIBC_PRIVATE+0xf30>
     b8e:	48 8d 70 10          	lea    rsi,[rax+0x10]
     b92:	48 c7 40 08 00 00 00 	mov    QWORD PTR [rax+0x8],0x0
     b99:	00 
     b9a:	48 89 10             	mov    QWORD PTR [rax],rdx
     b9d:	74 1f                	je     bbe <free@plt+0x10e>
     b9f:	48 8d 0d 6a 03 02 00 	lea    rcx,[rip+0x2036a]        # 20f10 <realloc@@GLIBC_2.2.5+0x6fe0>
     ba6:	48 8d 35 4d e8 01 00 	lea    rsi,[rip+0x1e84d]        # 1f3fa <realloc@@GLIBC_2.2.5+0x54ca>
     bad:	48 8d 3d 8c f8 01 00 	lea    rdi,[rip+0x1f88c]        # 20440 <realloc@@GLIBC_2.2.5+0x6510>
     bb4:	ba 58 02 00 00       	mov    edx,0x258
     bb9:	e8 22 93 01 00       	call   19ee0 <free@@GLIBC_2.2.5+0x160>
     bbe:	48 8b 15 7b 54 22 00 	mov    rdx,QWORD PTR [rip+0x22547b]        # 226040 <_rtld_global@@GLIBC_PRIVATE>
     bc5:	31 c0                	xor    eax,eax
     bc7:	48 85 d2             	test   rdx,rdx
     bca:	74 1e                	je     bea <free@plt+0x13a>
     bcc:	48 83 ba 28 04 00 00 	cmp    QWORD PTR [rdx+0x428],0x0
     bd3:	00 
     bd4:	74 0e                	je     be4 <free@plt+0x134>
     bd6:	48 63 c8             	movsxd rcx,eax
     bd9:	ff c0                	inc    eax
     bdb:	48 c1 e1 04          	shl    rcx,0x4
     bdf:	48 89 54 0e 08       	mov    QWORD PTR [rsi+rcx*1+0x8],rdx
     be4:	48 8b 52 18          	mov    rdx,QWORD PTR [rdx+0x18]
     be8:	eb dd                	jmp    bc7 <free@plt+0x117>
     bea:	48 98                	cdqe
     bec:	48 39 c3             	cmp    rbx,rax
     bef:	74 1f                	je     c10 <free@plt+0x160>
     bf1:	48 8d 0d 18 03 02 00 	lea    rcx,[rip+0x20318]        # 20f10 <realloc@@GLIBC_2.2.5+0x6fe0>
     bf8:	48 8d 35 fb e7 01 00 	lea    rsi,[rip+0x1e7fb]        # 1f3fa <realloc@@GLIBC_2.2.5+0x54ca>
     bff:	48 8d 3d fb e7 01 00 	lea    rdi,[rip+0x1e7fb]        # 1f401 <realloc@@GLIBC_2.2.5+0x54d1>
     c06:	ba 64 02 00 00       	mov    edx,0x264
     c0b:	e8 d0 92 01 00       	call   19ee0 <free@@GLIBC_2.2.5+0x160>
     c10:	e8 db 24 01 00       	call   130f0 <_dl_mcount@@GLIBC_2.2.5+0x7a0>
     c15:	e8 76 27 01 00       	call   13390 <_dl_get_tls_static_info@@GLIBC_PRIVATE+0x20>
     c1a:	48 85 c0             	test   rax,rax
     c1d:	48 89 c6             	mov    rsi,rax
     c20:	75 1f                	jne    c41 <free@plt+0x191>
     c22:	48 8d 35 47 f8 01 00 	lea    rsi,[rip+0x1f847]        # 20470 <realloc@@GLIBC_2.2.5+0x6540>
     c29:	bf 02 00 00 00       	mov    edi,0x2
     c2e:	31 c0                	xor    eax,eax
     c30:	e8 db 0a 01 00       	call   11710 <_dl_debug_state@@GLIBC_PRIVATE+0x880>
     c35:	bf 7f 00 00 00       	mov    edi,0x7f
     c3a:	e8 61 a7 01 00       	call   1b3a0 <realloc@@GLIBC_2.2.5+0x1470>
     c3f:	eb e1                	jmp    c22 <free@plt+0x172>
     c41:	48 8b 40 08          	mov    rax,QWORD PTR [rax+0x8]
     c45:	bf 02 10 00 00       	mov    edi,0x1002
     c4a:	48 89 05 47 63 22 00 	mov    QWORD PTR [rip+0x226347],rax        # 226f98 <_rtld_global@@GLIBC_PRIVATE+0xf58>
     c51:	48 89 36             	mov    QWORD PTR [rsi],rsi
     c54:	b8 9e 00 00 00       	mov    eax,0x9e
     c59:	48 89 76 10          	mov    QWORD PTR [rsi+0x10],rsi
     c5d:	0f 05                	syscall
     c5f:	85 c0                	test   eax,eax
     c61:	74 26                	je     c89 <free@plt+0x1d9>
     c63:	48 8d 15 3e f8 01 00 	lea    rdx,[rip+0x1f83e]        # 204a8 <realloc@@GLIBC_2.2.5+0x6578>
     c6a:	48 8d 35 6f f8 01 00 	lea    rsi,[rip+0x1f86f]        # 204e0 <realloc@@GLIBC_2.2.5+0x65b0>
     c71:	bf 02 00 00 00       	mov    edi,0x2
     c76:	31 c0                	xor    eax,eax
     c78:	e8 93 0a 01 00       	call   11710 <_dl_debug_state@@GLIBC_PRIVATE+0x880>
     c7d:	bf 7f 00 00 00       	mov    edi,0x7f
     c82:	e8 19 a7 01 00       	call   1b3a0 <realloc@@GLIBC_2.2.5+0x1470>
     c87:	eb da                	jmp    c63 <free@plt+0x1b3>
     c89:	c6 05 58 63 22 00 01 	mov    BYTE PTR [rip+0x226358],0x1        # 226fe8 <_rtld_global@@GLIBC_PRIVATE+0xfa8>
     c90:	48 89 f0             	mov    rax,rsi
     c93:	5b                   	pop    rbx
     c94:	c3                   	ret
     c95:	48 8d 35 7c 0f 02 00 	lea    rsi,[rip+0x20f7c]        # 21c18 <realloc@@GLIBC_2.2.5+0x7ce8>
     c9c:	50                   	push   rax
     c9d:	bf 02 00 00 00       	mov    edi,0x2
     ca2:	31 c0                	xor    eax,eax
     ca4:	e8 67 0a 01 00       	call   11710 <_dl_debug_state@@GLIBC_PRIVATE+0x880>
     ca9:	bf 7f 00 00 00       	mov    edi,0x7f
     cae:	e8 ed a6 01 00       	call   1b3a0 <realloc@@GLIBC_2.2.5+0x1470>
     cb3:	66 2e 0f 1f 84 00 00 	cs nop WORD PTR [rax+rax*1+0x0]
     cba:	00 00 00 
     cbd:	0f 1f 00             	nop    DWORD PTR [rax]
     cc0:	48 89 e7             	mov    rdi,rsp
     cc3:	e8 38 3f 00 00       	call   4c00 <free@plt+0x4150>
     cc8:	49 89 c4             	mov    r12,rax
     ccb:	8b 05 a7 4f 22 00    	mov    eax,DWORD PTR [rip+0x224fa7]        # 225c78 <realloc@@GLIBC_2.2.5+0x20bd48>
     cd1:	5a                   	pop    rdx
     cd2:	48 8d 24 c4          	lea    rsp,[rsp+rax*8]
     cd6:	29 c2                	sub    edx,eax
     cd8:	52                   	push   rdx
     cd9:	48 89 d6             	mov    rsi,rdx
     cdc:	49 89 e5             	mov    r13,rsp
     cdf:	48 83 e4 f0          	and    rsp,0xfffffffffffffff0
     ce3:	48 8b 3d 56 53 22 00 	mov    rdi,QWORD PTR [rip+0x225356]        # 226040 <_rtld_global@@GLIBC_PRIVATE>
     cea:	49 8d 4c d5 10       	lea    rcx,[r13+rdx*8+0x10]
     cef:	49 8d 55 08          	lea    rdx,[r13+0x8]
     cf3:	31 ed                	xor    ebp,ebp
     cf5:	e8 76 f8 00 00       	call   10570 <_dl_rtld_di_serinfo@@GLIBC_PRIVATE+0x70f0>
     cfa:	48 8d 15 df fb 00 00 	lea    rdx,[rip+0xfbdf]        # 108e0 <_dl_rtld_di_serinfo@@GLIBC_PRIVATE+0x7460>
     d01:	4c 89 ec             	mov    rsp,r13
     d04:	41 ff e4             	jmp    r12
     d07:	66 0f 1f 84 00 00 00 	nop    WORD PTR [rax+rax*1+0x0]
     d0e:	00 00 
     d10:	48 8d 05 a9 62 22 00 	lea    rax,[rip+0x2262a9]        # 226fc0 <_rtld_global@@GLIBC_PRIVATE+0xf80>
     d17:	c3                   	ret
     d18:	0f 1f 84 00 00 00 00 	nop    DWORD PTR [rax+rax*1+0x0]
     d1f:	00 
     d20:	83 47 04 01          	add    DWORD PTR [rdi+0x4],0x1
     d24:	c3                   	ret
     d25:	90                   	nop
     d26:	66 2e 0f 1f 84 00 00 	cs nop WORD PTR [rax+rax*1+0x0]
     d2d:	00 00 00 
     d30:	83 6f 04 01          	sub    DWORD PTR [rdi+0x4],0x1
     d34:	c3                   	ret
     d35:	90                   	nop
     d36:	66 2e 0f 1f 84 00 00 	cs nop WORD PTR [rax+rax*1+0x0]
     d3d:	00 00 00 
     d40:	53                   	push   rbx
     d41:	48 89 fb             	mov    rbx,rdi
     d44:	45 31 c9             	xor    r9d,r9d
     d47:	45 31 c0             	xor    r8d,r8d
     d4a:	48 83 ec 10          	sub    rsp,0x10
     d4e:	48 8b 77 08          	mov    rsi,QWORD PTR [rdi+0x8]
     d52:	48 c7 47 10 00 00 00 	mov    QWORD PTR [rdi+0x10],0x0
     d59:	00 
     d5a:	48 8d 54 24 08       	lea    rdx,[rsp+0x8]
     d5f:	48 c7 44 24 08 00 00 	mov    QWORD PTR [rsp+0x8],0x0
     d66:	00 00 
     d68:	6a 00                	push   0x0
     d6a:	48 8b 3f             	mov    rdi,QWORD PTR [rdi]
     d6d:	6a 02                	push   0x2
     d6f:	48 8d 8e 88 03 00 00 	lea    rcx,[rsi+0x388]
     d76:	e8 85 9a 00 00       	call   a800 <_dl_rtld_di_serinfo@@GLIBC_PRIVATE+0x1380>
     d7b:	48 8b 54 24 18       	mov    rdx,QWORD PTR [rsp+0x18]
     d80:	59                   	pop    rcx
     d81:	5e                   	pop    rsi
     d82:	48 85 d2             	test   rdx,rdx
     d85:	74 10                	je     d97 <free@plt+0x2e7>
     d87:	48 85 c0             	test   rax,rax
     d8a:	74 14                	je     da0 <free@plt+0x2f0>
     d8c:	48 8b 00             	mov    rax,QWORD PTR [rax]
     d8f:	48 03 42 08          	add    rax,QWORD PTR [rdx+0x8]
     d93:	48 89 43 10          	mov    QWORD PTR [rbx+0x10],rax
     d97:	48 83 c4 10          	add    rsp,0x10
     d9b:	5b                   	pop    rbx
     d9c:	c3                   	ret
     d9d:	0f 1f 00             	nop    DWORD PTR [rax]
     da0:	31 c0                	xor    eax,eax
     da2:	eb eb                	jmp    d8f <free@plt+0x2df>
     da4:	66 90                	xchg   ax,ax
     da6:	66 2e 0f 1f 84 00 00 	cs nop WORD PTR [rax+rax*1+0x0]
     dad:	00 00 00 
     db0:	48 8d 05 49 63 22 00 	lea    rax,[rip+0x226349]        # 227100 <_rtld_global@@GLIBC_PRIVATE+0x10c0>
     db7:	53                   	push   rbx
     db8:	48 89 fb             	mov    rbx,rdi
     dbb:	4c 8b 0d be 4e 22 00 	mov    r9,QWORD PTR [rip+0x224ebe]        # 225c80 <_dl_argv@@GLIBC_PRIVATE>
     dc2:	44 8b 05 bf 4e 22 00 	mov    r8d,DWORD PTR [rip+0x224ebf]        # 225c88 <_dl_argv@@GLIBC_PRIVATE+0x8>
     dc9:	48 8d 15 d0 0b 00 00 	lea    rdx,[rip+0xbd0]        # 19a0 <free@plt+0xef0>
     dd0:	48 83 ec 08          	sub    rsp,0x8
     dd4:	48 c7 c1 ff ff ff ff 	mov    rcx,0xffffffffffffffff
     ddb:	be 01 00 00 8c       	mov    esi,0x8c000001
     de0:	ff 30                	push   QWORD PTR [rax]
     de2:	48 8b 3f             	mov    rdi,QWORD PTR [rdi]
     de5:	e8 26 3d 01 00       	call   14b10 <_dl_find_dso_for_object@@GLIBC_PRIVATE+0xf0>
     dea:	48 89 43 08          	mov    QWORD PTR [rbx+0x8],rax
     dee:	58                   	pop    rax
     def:	5a                   	pop    rdx
     df0:	5b                   	pop    rbx
     df1:	c3                   	ret
     df2:	0f 1f 40 00          	nop    DWORD PTR [rax+0x0]
     df6:	66 2e 0f 1f 84 00 00 	cs nop WORD PTR [rax+rax*1+0x0]
     dfd:	00 00 00 
     e00:	80 3e 00             	cmp    BYTE PTR [rsi],0x0
     e03:	48 89 f1             	mov    rcx,rsi
     e06:	75 18                	jne    e20 <free@plt+0x370>
     e08:	48 8b 05 71 4e 22 00 	mov    rax,QWORD PTR [rip+0x224e71]        # 225c80 <_dl_argv@@GLIBC_PRIVATE>
     e0f:	48 8b 08             	mov    rcx,QWORD PTR [rax]
     e12:	48 8d 05 97 e5 01 00 	lea    rax,[rip+0x1e597]        # 1f3b0 <realloc@@GLIBC_2.2.5+0x5480>
     e19:	48 85 c9             	test   rcx,rcx
     e1c:	48 0f 44 c8          	cmove  rcx,rax
     e20:	48 8d 35 a0 e5 01 00 	lea    rsi,[rip+0x1e5a0]        # 1f3c7 <realloc@@GLIBC_2.2.5+0x5497>
     e27:	bf 02 00 00 00       	mov    edi,0x2
     e2c:	31 c0                	xor    eax,eax
     e2e:	e9 dd 08 01 00       	jmp    11710 <_dl_debug_state@@GLIBC_PRIVATE+0x880>
     e33:	0f 1f 00             	nop    DWORD PTR [rax]
     e36:	66 2e 0f 1f 84 00 00 	cs nop WORD PTR [rax+rax*1+0x0]
     e3d:	00 00 00 
     e40:	48 8b 05 39 4e 22 00 	mov    rax,QWORD PTR [rip+0x224e39]        # 225c80 <_dl_argv@@GLIBC_PRIVATE>
     e47:	49 89 d0             	mov    r8,rdx
     e4a:	48 8d 15 5f e5 01 00 	lea    rdx,[rip+0x1e55f]        # 1f3b0 <realloc@@GLIBC_2.2.5+0x5480>
     e51:	48 89 f1             	mov    rcx,rsi
     e54:	48 8d 35 75 e5 01 00 	lea    rsi,[rip+0x1e575]        # 1f3d0 <realloc@@GLIBC_2.2.5+0x54a0>
     e5b:	bf 02 00 00 00       	mov    edi,0x2
     e60:	48 8b 00             	mov    rax,QWORD PTR [rax]
     e63:	48 85 c0             	test   rax,rax
     e66:	48 0f 45 d0          	cmovne rdx,rax
     e6a:	31 c0                	xor    eax,eax
     e6c:	e9 9f 08 01 00       	jmp    11710 <_dl_debug_state@@GLIBC_PRIVATE+0x880>
     e71:	0f 1f 44 00 00       	nop    DWORD PTR [rax+rax*1+0x0]
     e76:	66 2e 0f 1f 84 00 00 	cs nop WORD PTR [rax+rax*1+0x0]
     e7d:	00 00 00 
     e80:	53                   	push   rbx
     e81:	44 8b 47 10          	mov    r8d,DWORD PTR [rdi+0x10]
     e85:	48 89 fb             	mov    rbx,rdi
     e88:	48 8b 33             	mov    rsi,QWORD PTR [rbx]
     e8b:	48 8b 7f 08          	mov    rdi,QWORD PTR [rdi+0x8]
     e8f:	31 d2                	xor    edx,edx
     e91:	41 81 f8 00 00 00 20 	cmp    r8d,0x20000000
     e98:	0f 95 c2             	setne  dl
     e9b:	45 31 c9             	xor    r9d,r9d
     e9e:	31 c9                	xor    ecx,ecx
     ea0:	e8 6b 79 00 00       	call   8810 <free@plt+0x7d60>
     ea5:	48 89 43 18          	mov    QWORD PTR [rbx+0x18],rax
     ea9:	5b                   	pop    rbx
     eaa:	c3                   	ret
     eab:	0f 1f 44 00 00       	nop    DWORD PTR [rax+rax*1+0x0]
     eb0:	41 55                	push   r13
     eb2:	41 54                	push   r12
     eb4:	55                   	push   rbp
     eb5:	53                   	push   rbx
     eb6:	48 8d 2d 63 e4 01 00 	lea    rbp,[rip+0x1e463]        # 1f320 <realloc@@GLIBC_2.2.5+0x53f0>
     ebd:	48 89 fb             	mov    rbx,rdi
     ec0:	48 81 ec f8 00 00 00 	sub    rsp,0xf8
     ec7:	48 8b 0f             	mov    rcx,QWORD PTR [rdi]
     eca:	48 bf cd cc cc cc cc 	movabs rdi,0xcccccccccccccccd
     ed1:	cc cc cc 
     ed4:	48 8d 74 24 14       	lea    rsi,[rsp+0x14]
     ed9:	49 89 e4             	mov    r12,rsp
     edc:	0f 1f 40 00          	nop    DWORD PTR [rax+0x0]
     ee0:	48 89 c8             	mov    rax,rcx
     ee3:	48 83 ee 01          	sub    rsi,0x1
     ee7:	48 f7 e7             	mul    rdi
     eea:	48 c1 ea 03          	shr    rdx,0x3
     eee:	48 8d 04 92          	lea    rax,[rdx+rdx*4]
     ef2:	48 01 c0             	add    rax,rax
     ef5:	48 29 c1             	sub    rcx,rax
     ef8:	48 85 d2             	test   rdx,rdx
     efb:	0f b6 44 0d 00       	movzx  eax,BYTE PTR [rbp+rcx*1+0x0]
     f00:	48 89 d1             	mov    rcx,rdx
     f03:	88 06                	mov    BYTE PTR [rsi],al
     f05:	75 d9                	jne    ee0 <free@plt+0x430>
     f07:	49 8d 44 24 14       	lea    rax,[r12+0x14]
     f0c:	ba c8 00 00 00       	mov    edx,0xc8
     f11:	4c 8d 6c 24 20       	lea    r13,[rsp+0x20]
     f16:	48 29 f0             	sub    rax,rsi
     f19:	4c 89 ef             	mov    rdi,r13
     f1c:	48 3d c8 00 00 00    	cmp    rax,0xc8
     f22:	48 0f 47 c2          	cmova  rax,rdx
     f26:	83 f8 08             	cmp    eax,0x8
     f29:	41 89 c0             	mov    r8d,eax
     f2c:	72 08                	jb     f36 <free@plt+0x486>
     f2e:	89 c1                	mov    ecx,eax
     f30:	c1 e9 03             	shr    ecx,0x3
     f33:	f3 48 a5             	rep movs QWORD PTR es:[rdi],QWORD PTR ds:[rsi]
     f36:	31 d2                	xor    edx,edx
     f38:	41 f6 c0 04          	test   r8b,0x4
     f3c:	74 09                	je     f47 <free@plt+0x497>
     f3e:	8b 16                	mov    edx,DWORD PTR [rsi]
     f40:	89 17                	mov    DWORD PTR [rdi],edx
     f42:	ba 04 00 00 00       	mov    edx,0x4
     f47:	41 f6 c0 02          	test   r8b,0x2
     f4b:	74 0c                	je     f59 <free@plt+0x4a9>
     f4d:	0f b7 0c 16          	movzx  ecx,WORD PTR [rsi+rdx*1]
     f51:	66 89 0c 17          	mov    WORD PTR [rdi+rdx*1],cx
     f55:	48 83 c2 02          	add    rdx,0x2
     f59:	41 83 e0 01          	and    r8d,0x1
     f5d:	74 07                	je     f66 <free@plt+0x4b6>
     f5f:	0f b6 0c 16          	movzx  ecx,BYTE PTR [rsi+rdx*1]
     f63:	88 0c 17             	mov    BYTE PTR [rdi+rdx*1],cl
     f66:	ba c8 00 00 00       	mov    edx,0xc8
     f6b:	49 8d 4c 05 00       	lea    rcx,[r13+rax*1+0x0]
     f70:	48 8d 35 65 e4 01 00 	lea    rsi,[rip+0x1e465]        # 1f3dc <realloc@@GLIBC_2.2.5+0x54ac>
     f77:	48 29 c2             	sub    rdx,rax
     f7a:	48 83 fa 08          	cmp    rdx,0x8
     f7e:	48 89 d0             	mov    rax,rdx
     f81:	ba 08 00 00 00       	mov    edx,0x8
     f86:	48 0f 47 c2          	cmova  rax,rdx
     f8a:	83 f8 08             	cmp    eax,0x8
     f8d:	89 c2                	mov    edx,eax
     f8f:	0f 83 04 04 00 00    	jae    1399 <free@plt+0x8e9>
     f95:	a8 04                	test   al,0x4
     f97:	0f 85 7c 05 00 00    	jne    1519 <free@plt+0xa69>
     f9d:	85 d2                	test   edx,edx
     f9f:	74 12                	je     fb3 <free@plt+0x503>
     fa1:	0f b6 05 34 e4 01 00 	movzx  eax,BYTE PTR [rip+0x1e434]        # 1f3dc <realloc@@GLIBC_2.2.5+0x54ac>
     fa8:	f6 c2 02             	test   dl,0x2
     fab:	88 01                	mov    BYTE PTR [rcx],al
     fad:	0f 85 82 05 00 00    	jne    1535 <free@plt+0xa85>
     fb3:	48 8d 3d 46 f2 01 00 	lea    rdi,[rip+0x1f246]        # 20200 <realloc@@GLIBC_2.2.5+0x62d0>
     fba:	4c 89 ee             	mov    rsi,r13
     fbd:	31 c0                	xor    eax,eax
     fbf:	c6 84 24 e7 00 00 00 	mov    BYTE PTR [rsp+0xe7],0x0
     fc6:	00 
     fc7:	e8 e4 05 01 00       	call   115b0 <_dl_debug_state@@GLIBC_PRIVATE+0x720>
     fcc:	4c 8b 05 1d 60 22 00 	mov    r8,QWORD PTR [rip+0x22601d]        # 226ff0 <_rtld_global@@GLIBC_PRIVATE+0xfb0>
     fd3:	49 8d 74 24 14       	lea    rsi,[r12+0x14]
     fd8:	48 bf cd cc cc cc cc 	movabs rdi,0xcccccccccccccccd
     fdf:	cc cc cc 
     fe2:	4c 89 c1             	mov    rcx,r8
     fe5:	0f 1f 00             	nop    DWORD PTR [rax]
     fe8:	48 89 c8             	mov    rax,rcx
     feb:	48 83 ee 01          	sub    rsi,0x1
     fef:	48 f7 e7             	mul    rdi
     ff2:	48 c1 ea 03          	shr    rdx,0x3
     ff6:	48 8d 04 92          	lea    rax,[rdx+rdx*4]
     ffa:	48 01 c0             	add    rax,rax
     ffd:	48 29 c1             	sub    rcx,rax
    1000:	48 85 d2             	test   rdx,rdx
    1003:	0f b6 44 0d 00       	movzx  eax,BYTE PTR [rbp+rcx*1+0x0]
    1008:	48 89 d1             	mov    rcx,rdx
    100b:	88 06                	mov    BYTE PTR [rsi],al
    100d:	75 d9                	jne    fe8 <free@plt+0x538>
    100f:	49 8d 44 24 14       	lea    rax,[r12+0x14]
    1014:	ba c8 00 00 00       	mov    edx,0xc8
    1019:	4c 89 ef             	mov    rdi,r13
    101c:	48 29 f0             	sub    rax,rsi
    101f:	48 3d c8 00 00 00    	cmp    rax,0xc8
    1025:	48 0f 47 c2          	cmova  rax,rdx
    1029:	83 f8 08             	cmp    eax,0x8
    102c:	41 89 c1             	mov    r9d,eax
    102f:	72 08                	jb     1039 <free@plt+0x589>
    1031:	89 c1                	mov    ecx,eax
    1033:	c1 e9 03             	shr    ecx,0x3
    1036:	f3 48 a5             	rep movs QWORD PTR es:[rdi],QWORD PTR ds:[rsi]
    1039:	31 d2                	xor    edx,edx
    103b:	41 f6 c1 04          	test   r9b,0x4
    103f:	74 09                	je     104a <free@plt+0x59a>
    1041:	8b 16                	mov    edx,DWORD PTR [rsi]
    1043:	89 17                	mov    DWORD PTR [rdi],edx
    1045:	ba 04 00 00 00       	mov    edx,0x4
    104a:	41 f6 c1 02          	test   r9b,0x2
    104e:	74 0c                	je     105c <free@plt+0x5ac>
    1050:	0f b7 0c 16          	movzx  ecx,WORD PTR [rsi+rdx*1]
    1054:	66 89 0c 17          	mov    WORD PTR [rdi+rdx*1],cx
    1058:	48 83 c2 02          	add    rdx,0x2
    105c:	41 83 e1 01          	and    r9d,0x1
    1060:	74 07                	je     1069 <free@plt+0x5b9>
    1062:	0f b6 0c 16          	movzx  ecx,BYTE PTR [rsi+rdx*1]
    1066:	88 0c 17             	mov    BYTE PTR [rdi+rdx*1],cl
    1069:	b9 c8 00 00 00       	mov    ecx,0xc8
    106e:	49 8d 7c 05 00       	lea    rdi,[r13+rax*1+0x0]
    1073:	48 29 c1             	sub    rcx,rax
    1076:	48 83 f9 08          	cmp    rcx,0x8
    107a:	48 89 c8             	mov    rax,rcx
    107d:	b9 08 00 00 00       	mov    ecx,0x8
    1082:	48 0f 47 c1          	cmova  rax,rcx
    1086:	48 8d 0d 4f e3 01 00 	lea    rcx,[rip+0x1e34f]        # 1f3dc <realloc@@GLIBC_2.2.5+0x54ac>
    108d:	83 f8 08             	cmp    eax,0x8
    1090:	89 c2                	mov    edx,eax
    1092:	0f 83 4f 03 00 00    	jae    13e7 <free@plt+0x937>
    1098:	a8 04                	test   al,0x4
    109a:	0f 85 4f 04 00 00    	jne    14ef <free@plt+0xa3f>
    10a0:	85 d2                	test   edx,edx
    10a2:	74 12                	je     10b6 <free@plt+0x606>
    10a4:	0f b6 05 31 e3 01 00 	movzx  eax,BYTE PTR [rip+0x1e331]        # 1f3dc <realloc@@GLIBC_2.2.5+0x54ac>
    10ab:	f6 c2 02             	test   dl,0x2
    10ae:	88 07                	mov    BYTE PTR [rdi],al
    10b0:	0f 85 9d 04 00 00    	jne    1553 <free@plt+0xaa3>
    10b6:	49 69 c0 e8 03 00 00 	imul   rax,r8,0x3e8
    10bd:	31 d2                	xor    edx,edx
    10bf:	c6 84 24 e7 00 00 00 	mov    BYTE PTR [rsp+0xe7],0x0
    10c6:	00 
    10c7:	49 8d 74 24 1e       	lea    rsi,[r12+0x1e]
    10cc:	49 b8 cd cc cc cc cc 	movabs r8,0xcccccccccccccccd
    10d3:	cc cc cc 
    10d6:	48 f7 33             	div    QWORD PTR [rbx]
    10d9:	48 89 c1             	mov    rcx,rax
    10dc:	eb 05                	jmp    10e3 <free@plt+0x633>
    10de:	66 90                	xchg   ax,ax
    10e0:	48 89 fe             	mov    rsi,rdi
    10e3:	48 89 c8             	mov    rax,rcx
    10e6:	48 8d 7e ff          	lea    rdi,[rsi-0x1]
    10ea:	49 f7 e0             	mul    r8
    10ed:	48 c1 ea 03          	shr    rdx,0x3
    10f1:	48 8d 04 92          	lea    rax,[rdx+rdx*4]
    10f5:	48 01 c0             	add    rax,rax
    10f8:	48 29 c1             	sub    rcx,rax
    10fb:	48 85 d2             	test   rdx,rdx
    10fe:	0f b6 44 0d 00       	movzx  eax,BYTE PTR [rbp+rcx*1+0x0]
    1103:	48 89 d1             	mov    rcx,rdx
    1106:	88 46 ff             	mov    BYTE PTR [rsi-0x1],al
    1109:	75 d5                	jne    10e0 <free@plt+0x630>
    110b:	49 8d 54 24 1e       	lea    rdx,[r12+0x1e]
    1110:	48 29 fa             	sub    rdx,rdi
    1113:	48 83 fa 02          	cmp    rdx,0x2
    1117:	0f 84 ae 03 00 00    	je     14cb <free@plt+0xa1b>
    111d:	48 83 fa 03          	cmp    rdx,0x3
    1121:	0f 84 8a 03 00 00    	je     14b1 <free@plt+0xa01>
    1127:	48 83 fa 01          	cmp    rdx,0x1
    112b:	4c 89 e0             	mov    rax,r12
    112e:	0f 84 53 03 00 00    	je     1487 <free@plt+0x9d7>
    1134:	48 8d 3d 0d f1 01 00 	lea    rdi,[rip+0x1f10d]        # 20248 <realloc@@GLIBC_2.2.5+0x6318>
    113b:	c6 00 00             	mov    BYTE PTR [rax],0x0
    113e:	4c 89 e2             	mov    rdx,r12
    1141:	31 c0                	xor    eax,eax
    1143:	4c 89 ee             	mov    rsi,r13
    1146:	e8 65 04 01 00       	call   115b0 <_dl_debug_state@@GLIBC_PRIVATE+0x720>
    114b:	48 8b 05 ee 57 22 00 	mov    rax,QWORD PTR [rip+0x2257ee]        # 226940 <_rtld_global@@GLIBC_PRIVATE+0x900>
    1152:	48 85 c0             	test   rax,rax
    1155:	0f 84 d3 03 00 00    	je     152e <free@plt+0xa7e>
    115b:	4c 8d 0c c0          	lea    r9,[rax+rax*8]
    115f:	4c 8d 05 da 4e 22 00 	lea    r8,[rip+0x224eda]        # 226040 <_rtld_global@@GLIBC_PRIVATE>
    1166:	31 c9                	xor    ecx,ecx
    1168:	49 c1 e1 04          	shl    r9,0x4
    116c:	4d 01 c1             	add    r9,r8
    116f:	90                   	nop
    1170:	49 8b 00             	mov    rax,QWORD PTR [r8]
    1173:	48 85 c0             	test   rax,rax
    1176:	74 65                	je     11dd <free@plt+0x72d>
    1178:	8b 90 c0 02 00 00    	mov    edx,DWORD PTR [rax+0x2c0]
    117e:	85 d2                	test   edx,edx
    1180:	74 5b                	je     11dd <free@plt+0x72d>
    1182:	48 8b 80 b8 02 00 00 	mov    rax,QWORD PTR [rax+0x2b8]
    1189:	83 ea 01             	sub    edx,0x1
    118c:	48 8d 7c d0 08       	lea    rdi,[rax+rdx*8+0x8]
    1191:	eb 2e                	jmp    11c1 <free@plt+0x711>
    1193:	0f 1f 44 00 00       	nop    DWORD PTR [rax+rax*1+0x0]
    1198:	48 8b b2 78 01 00 00 	mov    rsi,QWORD PTR [rdx+0x178]
    119f:	48 85 f6             	test   rsi,rsi
    11a2:	74 04                	je     11a8 <free@plt+0x6f8>
    11a4:	48 03 4e 08          	add    rcx,QWORD PTR [rsi+0x8]
    11a8:	48 8b 92 80 01 00 00 	mov    rdx,QWORD PTR [rdx+0x180]
    11af:	48 85 d2             	test   rdx,rdx
    11b2:	74 04                	je     11b8 <free@plt+0x708>
    11b4:	48 03 4a 08          	add    rcx,QWORD PTR [rdx+0x8]
    11b8:	48 83 c0 08          	add    rax,0x8
    11bc:	48 39 c7             	cmp    rdi,rax
    11bf:	74 1c                	je     11dd <free@plt+0x72d>
    11c1:	48 8b 10             	mov    rdx,QWORD PTR [rax]
    11c4:	48 83 3a 00          	cmp    QWORD PTR [rdx],0x0
    11c8:	75 ce                	jne    1198 <free@plt+0x6e8>
    11ca:	48 83 ba 38 02 00 00 	cmp    QWORD PTR [rdx+0x238],0x0
    11d1:	00 
    11d2:	74 d4                	je     11a8 <free@plt+0x6f8>
    11d4:	48 83 c0 08          	add    rax,0x8
    11d8:	48 39 c7             	cmp    rdi,rax
    11db:	75 e4                	jne    11c1 <free@plt+0x711>
    11dd:	49 81 c0 90 00 00 00 	add    r8,0x90
    11e4:	4d 39 c8             	cmp    r8,r9
    11e7:	75 87                	jne    1170 <free@plt+0x6c0>
    11e9:	48 8b 35 c8 57 22 00 	mov    rsi,QWORD PTR [rip+0x2257c8]        # 2269b8 <_rtld_global@@GLIBC_PRIVATE+0x978>
    11f0:	48 8b 15 c9 57 22 00 	mov    rdx,QWORD PTR [rip+0x2257c9]        # 2269c0 <_rtld_global@@GLIBC_PRIVATE+0x980>
    11f7:	48 8d 3d 7a f0 01 00 	lea    rdi,[rip+0x1f07a]        # 20278 <realloc@@GLIBC_2.2.5+0x6348>
    11fe:	31 c0                	xor    eax,eax
    1200:	e8 ab 03 01 00       	call   115b0 <_dl_debug_state@@GLIBC_PRIVATE+0x720>
    1205:	4c 8b 05 5c 4a 22 00 	mov    r8,QWORD PTR [rip+0x224a5c]        # 225c68 <realloc@@GLIBC_2.2.5+0x20bd38>
    120c:	49 8d 74 24 14       	lea    rsi,[r12+0x14]
    1211:	48 bf cd cc cc cc cc 	movabs rdi,0xcccccccccccccccd
    1218:	cc cc cc 
    121b:	4c 89 c1             	mov    rcx,r8
    121e:	66 90                	xchg   ax,ax
    1220:	48 89 c8             	mov    rax,rcx
    1223:	48 83 ee 01          	sub    rsi,0x1
    1227:	48 f7 e7             	mul    rdi
    122a:	48 c1 ea 03          	shr    rdx,0x3
    122e:	48 8d 04 92          	lea    rax,[rdx+rdx*4]
    1232:	48 01 c0             	add    rax,rax
    1235:	48 29 c1             	sub    rcx,rax
    1238:	48 85 d2             	test   rdx,rdx
    123b:	0f b6 44 0d 00       	movzx  eax,BYTE PTR [rbp+rcx*1+0x0]
    1240:	48 89 d1             	mov    rcx,rdx
    1243:	88 06                	mov    BYTE PTR [rsi],al
    1245:	75 d9                	jne    1220 <free@plt+0x770>
    1247:	49 8d 44 24 14       	lea    rax,[r12+0x14]
    124c:	ba c8 00 00 00       	mov    edx,0xc8
    1251:	4c 89 ef             	mov    rdi,r13
    1254:	48 29 f0             	sub    rax,rsi
    1257:	48 3d c8 00 00 00    	cmp    rax,0xc8
    125d:	48 0f 47 c2          	cmova  rax,rdx
    1261:	83 f8 08             	cmp    eax,0x8
    1264:	41 89 c1             	mov    r9d,eax
    1267:	72 08                	jb     1271 <free@plt+0x7c1>
    1269:	89 c1                	mov    ecx,eax
    126b:	c1 e9 03             	shr    ecx,0x3
    126e:	f3 48 a5             	rep movs QWORD PTR es:[rdi],QWORD PTR ds:[rsi]
    1271:	31 d2                	xor    edx,edx
    1273:	41 f6 c1 04          	test   r9b,0x4
    1277:	74 09                	je     1282 <free@plt+0x7d2>
    1279:	8b 16                	mov    edx,DWORD PTR [rsi]
    127b:	89 17                	mov    DWORD PTR [rdi],edx
    127d:	ba 04 00 00 00       	mov    edx,0x4
    1282:	41 f6 c1 02          	test   r9b,0x2
    1286:	74 0c                	je     1294 <free@plt+0x7e4>
    1288:	0f b7 0c 16          	movzx  ecx,WORD PTR [rsi+rdx*1]
    128c:	66 89 0c 17          	mov    WORD PTR [rdi+rdx*1],cx
    1290:	48 83 c2 02          	add    rdx,0x2
    1294:	41 83 e1 01          	and    r9d,0x1
    1298:	74 07                	je     12a1 <free@plt+0x7f1>
    129a:	0f b6 0c 16          	movzx  ecx,BYTE PTR [rsi+rdx*1]
    129e:	88 0c 17             	mov    BYTE PTR [rdi+rdx*1],cl
    12a1:	b9 c8 00 00 00       	mov    ecx,0xc8
    12a6:	49 8d 7c 05 00       	lea    rdi,[r13+rax*1+0x0]
    12ab:	48 29 c1             	sub    rcx,rax
    12ae:	48 83 f9 08          	cmp    rcx,0x8
    12b2:	48 89 c8             	mov    rax,rcx
    12b5:	b9 08 00 00 00       	mov    ecx,0x8
    12ba:	48 0f 47 c1          	cmova  rax,rcx
    12be:	48 8d 0d 17 e1 01 00 	lea    rcx,[rip+0x1e117]        # 1f3dc <realloc@@GLIBC_2.2.5+0x54ac>
    12c5:	83 f8 08             	cmp    eax,0x8
    12c8:	89 c2                	mov    edx,eax
    12ca:	0f 83 67 01 00 00    	jae    1437 <free@plt+0x987>
    12d0:	a8 04                	test   al,0x4
    12d2:	0f 85 2c 02 00 00    	jne    1504 <free@plt+0xa54>
    12d8:	85 d2                	test   edx,edx
    12da:	74 12                	je     12ee <free@plt+0x83e>
    12dc:	0f b6 05 f9 e0 01 00 	movzx  eax,BYTE PTR [rip+0x1e0f9]        # 1f3dc <realloc@@GLIBC_2.2.5+0x54ac>
    12e3:	f6 c2 02             	test   dl,0x2
    12e6:	88 07                	mov    BYTE PTR [rdi],al
    12e8:	0f 85 56 02 00 00    	jne    1544 <free@plt+0xa94>
    12ee:	49 69 c0 e8 03 00 00 	imul   rax,r8,0x3e8
    12f5:	31 d2                	xor    edx,edx
    12f7:	c6 84 24 e7 00 00 00 	mov    BYTE PTR [rsp+0xe7],0x0
    12fe:	00 
    12ff:	49 8d 74 24 1e       	lea    rsi,[r12+0x1e]
    1304:	49 b8 cd cc cc cc cc 	movabs r8,0xcccccccccccccccd
    130b:	cc cc cc 
    130e:	48 f7 33             	div    QWORD PTR [rbx]
    1311:	48 89 c1             	mov    rcx,rax
    1314:	eb 0d                	jmp    1323 <free@plt+0x873>
    1316:	66 2e 0f 1f 84 00 00 	cs nop WORD PTR [rax+rax*1+0x0]
    131d:	00 00 00 
    1320:	48 89 fe             	mov    rsi,rdi
    1323:	48 89 c8             	mov    rax,rcx
    1326:	48 8d 7e ff          	lea    rdi,[rsi-0x1]
    132a:	49 f7 e0             	mul    r8
    132d:	48 c1 ea 03          	shr    rdx,0x3
    1331:	48 8d 04 92          	lea    rax,[rdx+rdx*4]
    1335:	48 01 c0             	add    rax,rax
    1338:	48 29 c1             	sub    rcx,rax
    133b:	48 85 d2             	test   rdx,rdx
    133e:	0f b6 44 0d 00       	movzx  eax,BYTE PTR [rbp+rcx*1+0x0]
    1343:	48 89 d1             	mov    rcx,rdx
    1346:	88 46 ff             	mov    BYTE PTR [rsi-0x1],al
    1349:	75 d5                	jne    1320 <free@plt+0x870>
    134b:	49 8d 54 24 1e       	lea    rdx,[r12+0x1e]
    1350:	48 29 fa             	sub    rdx,rdi
    1353:	48 83 fa 02          	cmp    rdx,0x2
    1357:	0f 84 8d 01 00 00    	je     14ea <free@plt+0xa3a>
    135d:	48 83 fa 03          	cmp    rdx,0x3
    1361:	0f 84 69 01 00 00    	je     14d0 <free@plt+0xa20>
    1367:	48 83 fa 01          	cmp    rdx,0x1
    136b:	4c 89 e0             	mov    rax,r12
    136e:	0f 84 28 01 00 00    	je     149c <free@plt+0x9ec>
    1374:	48 8d 3d 85 ef 01 00 	lea    rdi,[rip+0x1ef85]        # 20300 <realloc@@GLIBC_2.2.5+0x63d0>
    137b:	c6 00 00             	mov    BYTE PTR [rax],0x0
    137e:	4c 89 e2             	mov    rdx,r12
    1381:	4c 89 ee             	mov    rsi,r13
    1384:	31 c0                	xor    eax,eax
    1386:	e8 25 02 01 00       	call   115b0 <_dl_debug_state@@GLIBC_PRIVATE+0x720>
    138b:	48 81 c4 f8 00 00 00 	add    rsp,0xf8
    1392:	5b                   	pop    rbx
    1393:	5d                   	pop    rbp
    1394:	41 5c                	pop    r12
    1396:	41 5d                	pop    r13
    1398:	c3                   	ret
    1399:	48 8b 15 3c e0 01 00 	mov    rdx,QWORD PTR [rip+0x1e03c]        # 1f3dc <realloc@@GLIBC_2.2.5+0x54ac>
    13a0:	48 89 11             	mov    QWORD PTR [rcx],rdx
    13a3:	89 c2                	mov    edx,eax
    13a5:	48 8b 7c 16 f8       	mov    rdi,QWORD PTR [rsi+rdx*1-0x8]
    13aa:	48 89 7c 11 f8       	mov    QWORD PTR [rcx+rdx*1-0x8],rdi
    13af:	48 8d 79 08          	lea    rdi,[rcx+0x8]
    13b3:	48 83 e7 f8          	and    rdi,0xfffffffffffffff8
    13b7:	48 29 f9             	sub    rcx,rdi
    13ba:	8d 14 08             	lea    edx,[rax+rcx*1]
    13bd:	48 29 ce             	sub    rsi,rcx
    13c0:	83 e2 f8             	and    edx,0xfffffff8
    13c3:	83 fa 08             	cmp    edx,0x8
    13c6:	0f 82 e7 fb ff ff    	jb     fb3 <free@plt+0x503>
    13cc:	83 e2 f8             	and    edx,0xfffffff8
    13cf:	31 c0                	xor    eax,eax
    13d1:	89 c1                	mov    ecx,eax
    13d3:	83 c0 08             	add    eax,0x8
    13d6:	4c 8b 04 0e          	mov    r8,QWORD PTR [rsi+rcx*1]
    13da:	39 d0                	cmp    eax,edx
    13dc:	4c 89 04 0f          	mov    QWORD PTR [rdi+rcx*1],r8
    13e0:	72 ef                	jb     13d1 <free@plt+0x921>
    13e2:	e9 cc fb ff ff       	jmp    fb3 <free@plt+0x503>
    13e7:	48 8b 15 ee df 01 00 	mov    rdx,QWORD PTR [rip+0x1dfee]        # 1f3dc <realloc@@GLIBC_2.2.5+0x54ac>
    13ee:	48 89 17             	mov    QWORD PTR [rdi],rdx
    13f1:	89 c2                	mov    edx,eax
    13f3:	48 8b 74 11 f8       	mov    rsi,QWORD PTR [rcx+rdx*1-0x8]
    13f8:	48 89 74 17 f8       	mov    QWORD PTR [rdi+rdx*1-0x8],rsi
    13fd:	48 8d 77 08          	lea    rsi,[rdi+0x8]
    1401:	48 83 e6 f8          	and    rsi,0xfffffffffffffff8
    1405:	48 29 f7             	sub    rdi,rsi
    1408:	48 89 fa             	mov    rdx,rdi
    140b:	48 29 f9             	sub    rcx,rdi
    140e:	01 c2                	add    edx,eax
    1410:	83 e2 f8             	and    edx,0xfffffff8
    1413:	83 fa 08             	cmp    edx,0x8
    1416:	0f 82 9a fc ff ff    	jb     10b6 <free@plt+0x606>
    141c:	83 e2 f8             	and    edx,0xfffffff8
    141f:	31 c0                	xor    eax,eax
    1421:	89 c7                	mov    edi,eax
    1423:	83 c0 08             	add    eax,0x8
    1426:	4c 8b 0c 39          	mov    r9,QWORD PTR [rcx+rdi*1]
    142a:	39 d0                	cmp    eax,edx
    142c:	4c 89 0c 3e          	mov    QWORD PTR [rsi+rdi*1],r9
    1430:	72 ef                	jb     1421 <free@plt+0x971>
    1432:	e9 7f fc ff ff       	jmp    10b6 <free@plt+0x606>
    1437:	48 8b 15 9e df 01 00 	mov    rdx,QWORD PTR [rip+0x1df9e]        # 1f3dc <realloc@@GLIBC_2.2.5+0x54ac>
    143e:	48 89 17             	mov    QWORD PTR [rdi],rdx
    1441:	89 c2                	mov    edx,eax
    1443:	48 8b 74 11 f8       	mov    rsi,QWORD PTR [rcx+rdx*1-0x8]
    1448:	48 89 74 17 f8       	mov    QWORD PTR [rdi+rdx*1-0x8],rsi
    144d:	48 8d 77 08          	lea    rsi,[rdi+0x8]
    1451:	48 83 e6 f8          	and    rsi,0xfffffffffffffff8
    1455:	48 29 f7             	sub    rdi,rsi
    1458:	48 89 fa             	mov    rdx,rdi
    145b:	48 29 f9             	sub    rcx,rdi
    145e:	01 c2                	add    edx,eax
    1460:	83 e2 f8             	and    edx,0xfffffff8
    1463:	83 fa 08             	cmp    edx,0x8
    1466:	0f 82 82 fe ff ff    	jb     12ee <free@plt+0x83e>
    146c:	83 e2 f8             	and    edx,0xfffffff8
    146f:	31 c0                	xor    eax,eax
    1471:	89 c7                	mov    edi,eax
    1473:	83 c0 08             	add    eax,0x8
    1476:	4c 8b 0c 39          	mov    r9,QWORD PTR [rcx+rdi*1]
    147a:	39 d0                	cmp    eax,edx
    147c:	4c 89 0c 3e          	mov    QWORD PTR [rsi+rdi*1],r9
    1480:	72 ef                	jb     1471 <free@plt+0x9c1>
    1482:	e9 67 fe ff ff       	jmp    12ee <free@plt+0x83e>
    1487:	4c 89 e2             	mov    rdx,r12
    148a:	c6 02 2e             	mov    BYTE PTR [rdx],0x2e
    148d:	0f b6 0f             	movzx  ecx,BYTE PTR [rdi]
    1490:	48 8d 42 02          	lea    rax,[rdx+0x2]
    1494:	88 4a 01             	mov    BYTE PTR [rdx+0x1],cl
    1497:	e9 98 fc ff ff       	jmp    1134 <free@plt+0x684>
    149c:	4c 89 e2             	mov    rdx,r12
    149f:	c6 02 2e             	mov    BYTE PTR [rdx],0x2e
    14a2:	0f b6 0f             	movzx  ecx,BYTE PTR [rdi]
    14a5:	48 8d 42 02          	lea    rax,[rdx+0x2]
    14a9:	88 4a 01             	mov    BYTE PTR [rdx+0x1],cl
    14ac:	e9 c3 fe ff ff       	jmp    1374 <free@plt+0x8c4>
    14b1:	88 04 24             	mov    BYTE PTR [rsp],al
    14b4:	0f b6 06             	movzx  eax,BYTE PTR [rsi]
    14b7:	49 8d 4c 24 01       	lea    rcx,[r12+0x1]
    14bc:	48 89 f7             	mov    rdi,rsi
    14bf:	48 8d 51 01          	lea    rdx,[rcx+0x1]
    14c3:	48 83 c7 01          	add    rdi,0x1
    14c7:	88 01                	mov    BYTE PTR [rcx],al
    14c9:	eb bf                	jmp    148a <free@plt+0x9da>
    14cb:	4c 89 e1             	mov    rcx,r12
    14ce:	eb ef                	jmp    14bf <free@plt+0xa0f>
    14d0:	88 04 24             	mov    BYTE PTR [rsp],al
    14d3:	0f b6 06             	movzx  eax,BYTE PTR [rsi]
    14d6:	49 8d 4c 24 01       	lea    rcx,[r12+0x1]
    14db:	48 89 f7             	mov    rdi,rsi
    14de:	48 8d 51 01          	lea    rdx,[rcx+0x1]
    14e2:	48 83 c7 01          	add    rdi,0x1
    14e6:	88 01                	mov    BYTE PTR [rcx],al
    14e8:	eb b5                	jmp    149f <free@plt+0x9ef>
    14ea:	4c 89 e1             	mov    rcx,r12
    14ed:	eb ef                	jmp    14de <free@plt+0xa2e>
    14ef:	8b 05 e7 de 01 00    	mov    eax,DWORD PTR [rip+0x1dee7]        # 1f3dc <realloc@@GLIBC_2.2.5+0x54ac>
    14f5:	89 07                	mov    DWORD PTR [rdi],eax
    14f7:	8b 44 11 fc          	mov    eax,DWORD PTR [rcx+rdx*1-0x4]
    14fb:	89 44 17 fc          	mov    DWORD PTR [rdi+rdx*1-0x4],eax
    14ff:	e9 b2 fb ff ff       	jmp    10b6 <free@plt+0x606>
    1504:	8b 05 d2 de 01 00    	mov    eax,DWORD PTR [rip+0x1ded2]        # 1f3dc <realloc@@GLIBC_2.2.5+0x54ac>
    150a:	89 07                	mov    DWORD PTR [rdi],eax
    150c:	8b 44 11 fc          	mov    eax,DWORD PTR [rcx+rdx*1-0x4]
    1510:	89 44 17 fc          	mov    DWORD PTR [rdi+rdx*1-0x4],eax
    1514:	e9 d5 fd ff ff       	jmp    12ee <free@plt+0x83e>
    1519:	8b 05 bd de 01 00    	mov    eax,DWORD PTR [rip+0x1debd]        # 1f3dc <realloc@@GLIBC_2.2.5+0x54ac>
    151f:	89 01                	mov    DWORD PTR [rcx],eax
    1521:	8b 44 16 fc          	mov    eax,DWORD PTR [rsi+rdx*1-0x4]
    1525:	89 44 11 fc          	mov    DWORD PTR [rcx+rdx*1-0x4],eax
    1529:	e9 85 fa ff ff       	jmp    fb3 <free@plt+0x503>
    152e:	31 c9                	xor    ecx,ecx
    1530:	e9 b4 fc ff ff       	jmp    11e9 <free@plt+0x739>
    1535:	0f b7 44 16 fe       	movzx  eax,WORD PTR [rsi+rdx*1-0x2]
    153a:	66 89 44 11 fe       	mov    WORD PTR [rcx+rdx*1-0x2],ax
    153f:	e9 6f fa ff ff       	jmp    fb3 <free@plt+0x503>
    1544:	0f b7 44 11 fe       	movzx  eax,WORD PTR [rcx+rdx*1-0x2]
    1549:	66 89 44 17 fe       	mov    WORD PTR [rdi+rdx*1-0x2],ax
    154e:	e9 9b fd ff ff       	jmp    12ee <free@plt+0x83e>
    1553:	0f b7 44 11 fe       	movzx  eax,WORD PTR [rcx+rdx*1-0x2]
    1558:	66 89 44 17 fe       	mov    WORD PTR [rdi+rdx*1-0x2],ax
    155d:	e9 54 fb ff ff       	jmp    10b6 <free@plt+0x606>
    1562:	0f 1f 40 00          	nop    DWORD PTR [rax+0x0]
    1566:	66 2e 0f 1f 84 00 00 	cs nop WORD PTR [rax+rax*1+0x0]
    156d:	00 00 00 
    1570:	48 8b 07             	mov    rax,QWORD PTR [rdi]
    1573:	8b 57 08             	mov    edx,DWORD PTR [rdi+0x8]
    1576:	31 c9                	xor    ecx,ecx
    1578:	48 8b b0 80 03 00 00 	mov    rsi,QWORD PTR [rax+0x380]
    157f:	48 89 c7             	mov    rdi,rax
    1582:	e9 19 ab 00 00       	jmp    c0a0 <_dl_rtld_di_serinfo@@GLIBC_PRIVATE+0x2c20>
    1587:	66 0f 1f 84 00 00 00 	nop    WORD PTR [rax+rax*1+0x0]
    158e:	00 00 
    1590:	55                   	push   rbp
    1591:	48 89 e5             	mov    rbp,rsp
    1594:	41 57                	push   r15
    1596:	41 56                	push   r14
    1598:	41 55                	push   r13
    159a:	41 54                	push   r12
    159c:	49 89 fe             	mov    r14,rdi
    159f:	53                   	push   rbx
    15a0:	49 bf 01 00 00 00 01 	movabs r15,0x400100100000001
    15a7:	10 00 04 
    15aa:	41 bc 01 00 00 00    	mov    r12d,0x1
    15b0:	48 83 ec 08          	sub    rsp,0x8
    15b4:	0f 1f 40 00          	nop    DWORD PTR [rax+0x0]
    15b8:	41 0f b6 06          	movzx  eax,BYTE PTR [r14]
    15bc:	84 c0                	test   al,al
    15be:	0f 84 df 00 00 00    	je     16a3 <free@plt+0xbf3>
    15c4:	3c 3a                	cmp    al,0x3a
    15c6:	0f 86 04 01 00 00    	jbe    16d0 <free@plt+0xc20>
    15cc:	41 0f b6 46 01       	movzx  eax,BYTE PTR [r14+0x1]
    15d1:	3c 3a                	cmp    al,0x3a
    15d3:	77 0a                	ja     15df <free@plt+0xb2f>
    15d5:	49 0f a3 c7          	bt     r15,rax
    15d9:	0f 82 91 02 00 00    	jb     1870 <free@plt+0xdc0>
    15df:	49 8d 56 02          	lea    rdx,[r14+0x2]
    15e3:	41 bd 01 00 00 00    	mov    r13d,0x1
    15e9:	0f 1f 80 00 00 00 00 	nop    DWORD PTR [rax+0x0]
    15f0:	0f b6 0a             	movzx  ecx,BYTE PTR [rdx]
    15f3:	4c 89 f8             	mov    rax,r15
    15f6:	49 83 c5 01          	add    r13,0x1
    15fa:	48 89 d3             	mov    rbx,rdx
    15fd:	48 8d 52 01          	lea    rdx,[rdx+0x1]
    1601:	48 d3 e8             	shr    rax,cl
    1604:	83 e0 01             	and    eax,0x1
    1607:	48 83 f0 01          	xor    rax,0x1
    160b:	80 f9 3a             	cmp    cl,0x3a
    160e:	41 0f 47 c4          	cmova  eax,r12d
    1612:	84 c0                	test   al,al
    1614:	75 da                	jne    15f0 <free@plt+0xb40>
    1616:	49 83 fd 04          	cmp    r13,0x4
    161a:	0f 84 d0 00 00 00    	je     16f0 <free@plt+0xc40>
    1620:	49 83 fd 05          	cmp    r13,0x5
    1624:	0f 84 06 01 00 00    	je     1730 <free@plt+0xc80>
    162a:	49 83 fd 07          	cmp    r13,0x7
    162e:	0f 85 5c 01 00 00    	jne    1790 <free@plt+0xce0>
    1634:	48 8d 35 88 d1 01 00 	lea    rsi,[rip+0x1d188]        # 1e7c3 <realloc@@GLIBC_2.2.5+0x4893>
    163b:	ba 07 00 00 00       	mov    edx,0x7
    1640:	4c 89 f7             	mov    rdi,r14
    1643:	e8 88 be 01 00       	call   1d4d0 <realloc@@GLIBC_2.2.5+0x35a0>
    1648:	85 c0                	test   eax,eax
    164a:	0f 84 39 02 00 00    	je     1889 <free@plt+0xdd9>
    1650:	4c 89 f7             	mov    rdi,r14
    1653:	4c 89 ee             	mov    rsi,r13
    1656:	e8 05 b9 01 00       	call   1cf60 <realloc@@GLIBC_2.2.5+0x3030>
    165b:	48 8d 50 1f          	lea    rdx,[rax+0x1f]
    165f:	4c 89 f6             	mov    rsi,r14
    1662:	49 89 de             	mov    r14,rbx
    1665:	48 83 e2 f0          	and    rdx,0xfffffffffffffff0
    1669:	48 29 d4             	sub    rsp,rdx
    166c:	48 89 c2             	mov    rdx,rax
    166f:	48 8d 7c 24 0f       	lea    rdi,[rsp+0xf]
    1674:	48 83 e7 f0          	and    rdi,0xfffffffffffffff0
    1678:	c6 04 07 00          	mov    BYTE PTR [rdi+rax*1],0x0
    167c:	e8 cf c6 01 00       	call   1dd50 <realloc@@GLIBC_2.2.5+0x3e20>
    1681:	48 8d 35 80 ed 01 00 	lea    rsi,[rip+0x1ed80]        # 20408 <realloc@@GLIBC_2.2.5+0x64d8>
    1688:	48 89 c2             	mov    rdx,rax
    168b:	bf 02 00 00 00       	mov    edi,0x2
    1690:	31 c0                	xor    eax,eax
    1692:	e8 79 00 01 00       	call   11710 <_dl_debug_state@@GLIBC_PRIVATE+0x880>
    1697:	41 0f b6 06          	movzx  eax,BYTE PTR [r14]
    169b:	84 c0                	test   al,al
    169d:	0f 85 21 ff ff ff    	jne    15c4 <free@plt+0xb14>
    16a3:	8b 05 f7 45 22 00    	mov    eax,DWORD PTR [rip+0x2245f7]        # 225ca0 <_rtld_global_ro@@GLIBC_PRIVATE>
    16a9:	f6 c4 01             	test   ah,0x1
    16ac:	74 0a                	je     16b8 <free@plt+0xc08>
    16ae:	c7 05 2c 46 22 00 00 	mov    DWORD PTR [rip+0x22462c],0x0        # 225ce4 <_rtld_global_ro@@GLIBC_PRIVATE+0x44>
    16b5:	00 00 00 
    16b8:	f6 c4 04             	test   ah,0x4
    16bb:	0f 85 1f 01 00 00    	jne    17e0 <free@plt+0xd30>
    16c1:	48 8d 65 d8          	lea    rsp,[rbp-0x28]
    16c5:	5b                   	pop    rbx
    16c6:	41 5c                	pop    r12
    16c8:	41 5d                	pop    r13
    16ca:	41 5e                	pop    r14
    16cc:	41 5f                	pop    r15
    16ce:	5d                   	pop    rbp
    16cf:	c3                   	ret
    16d0:	48 be 00 00 00 00 01 	movabs rsi,0x400100100000000
    16d7:	10 00 04 
    16da:	48 0f a3 c6          	bt     rsi,rax
    16de:	0f 83 e8 fe ff ff    	jae    15cc <free@plt+0xb1c>
    16e4:	49 83 c6 01          	add    r14,0x1
    16e8:	e9 cb fe ff ff       	jmp    15b8 <free@plt+0xb08>
    16ed:	0f 1f 00             	nop    DWORD PTR [rax]
    16f0:	48 8d 35 2a d0 01 00 	lea    rsi,[rip+0x1d02a]        # 1e721 <realloc@@GLIBC_2.2.5+0x47f1>
    16f7:	ba 04 00 00 00       	mov    edx,0x4
    16fc:	4c 89 f7             	mov    rdi,r14
    16ff:	e8 cc bd 01 00       	call   1d4d0 <realloc@@GLIBC_2.2.5+0x35a0>
    1704:	85 c0                	test   eax,eax
    1706:	0f 84 73 01 00 00    	je     187f <free@plt+0xdcf>
    170c:	48 8d 35 2a d2 01 00 	lea    rsi,[rip+0x1d22a]        # 1e93d <realloc@@GLIBC_2.2.5+0x4a0d>
    1713:	ba 04 00 00 00       	mov    edx,0x4
    1718:	4c 89 f7             	mov    rdi,r14
    171b:	e8 b0 bd 01 00       	call   1d4d0 <realloc@@GLIBC_2.2.5+0x35a0>
    1720:	85 c0                	test   eax,eax
    1722:	0f 85 28 ff ff ff    	jne    1650 <free@plt+0xba0>
    1728:	b8 00 04 00 00       	mov    eax,0x400
    172d:	eb 41                	jmp    1770 <free@plt+0xcc0>
    172f:	90                   	nop
    1730:	48 8d 35 20 d0 01 00 	lea    rsi,[rip+0x1d020]        # 1e757 <realloc@@GLIBC_2.2.5+0x4827>
    1737:	ba 05 00 00 00       	mov    edx,0x5
    173c:	4c 89 f7             	mov    rdi,r14
    173f:	e8 8c bd 01 00       	call   1d4d0 <realloc@@GLIBC_2.2.5+0x35a0>
    1744:	85 c0                	test   eax,eax
    1746:	0f 84 47 01 00 00    	je     1893 <free@plt+0xde3>
    174c:	48 8d 35 3a d0 01 00 	lea    rsi,[rip+0x1d03a]        # 1e78d <realloc@@GLIBC_2.2.5+0x485d>
    1753:	ba 05 00 00 00       	mov    edx,0x5
    1758:	4c 89 f7             	mov    rdi,r14
    175b:	e8 70 bd 01 00       	call   1d4d0 <realloc@@GLIBC_2.2.5+0x35a0>
    1760:	85 c0                	test   eax,eax
    1762:	0f 85 e8 fe ff ff    	jne    1650 <free@plt+0xba0>
    1768:	b8 42 00 00 00       	mov    eax,0x42
    176d:	0f 1f 00             	nop    DWORD PTR [rax]
    1770:	09 05 2a 45 22 00    	or     DWORD PTR [rip+0x22452a],eax        # 225ca0 <_rtld_global_ro@@GLIBC_PRIVATE>
    1776:	c7 05 40 44 22 00 01 	mov    DWORD PTR [rip+0x224440],0x1        # 225bc0 <realloc@@GLIBC_2.2.5+0x20bc90>
    177d:	00 00 00 
    1780:	49 89 de             	mov    r14,rbx
    1783:	e9 30 fe ff ff       	jmp    15b8 <free@plt+0xb08>
    1788:	0f 1f 84 00 00 00 00 	nop    DWORD PTR [rax+rax*1+0x0]
    178f:	00 
    1790:	49 83 fd 08          	cmp    r13,0x8
    1794:	0f 85 0d 01 00 00    	jne    18a7 <free@plt+0xdf7>
    179a:	48 8d 35 58 d0 01 00 	lea    rsi,[rip+0x1d058]        # 1e7f9 <realloc@@GLIBC_2.2.5+0x48c9>
    17a1:	ba 08 00 00 00       	mov    edx,0x8
    17a6:	4c 89 f7             	mov    rdi,r14
    17a9:	e8 22 bd 01 00       	call   1d4d0 <realloc@@GLIBC_2.2.5+0x35a0>
    17ae:	85 c0                	test   eax,eax
    17b0:	0f 84 e7 00 00 00    	je     189d <free@plt+0xded>
    17b6:	48 8d 35 72 d0 01 00 	lea    rsi,[rip+0x1d072]        # 1e82f <realloc@@GLIBC_2.2.5+0x48ff>
    17bd:	ba 08 00 00 00       	mov    edx,0x8
    17c2:	4c 89 f7             	mov    rdi,r14
    17c5:	e8 06 bd 01 00       	call   1d4d0 <realloc@@GLIBC_2.2.5+0x35a0>
    17ca:	85 c0                	test   eax,eax
    17cc:	0f 85 7e fe ff ff    	jne    1650 <free@plt+0xba0>
    17d2:	b8 12 00 00 00       	mov    eax,0x12
    17d7:	eb 97                	jmp    1770 <free@plt+0xcc0>
    17d9:	0f 1f 80 00 00 00 00 	nop    DWORD PTR [rax+0x0]
    17e0:	48 8d 35 49 eb 01 00 	lea    rsi,[rip+0x1eb49]        # 20330 <realloc@@GLIBC_2.2.5+0x6400>
    17e7:	48 8d 1d 33 cf 01 00 	lea    rbx,[rip+0x1cf33]        # 1e721 <realloc@@GLIBC_2.2.5+0x47f1>
    17ee:	4c 8d 2d 7e d1 01 00 	lea    r13,[rip+0x1d17e]        # 1e973 <realloc@@GLIBC_2.2.5+0x4a43>
    17f5:	4c 8d 25 e8 db 01 00 	lea    r12,[rip+0x1dbe8]        # 1f3e4 <realloc@@GLIBC_2.2.5+0x54b4>
    17fc:	bf 01 00 00 00       	mov    edi,0x1
    1801:	31 c0                	xor    eax,eax
    1803:	e8 08 ff 00 00       	call   11710 <_dl_debug_state@@GLIBC_PRIVATE+0x880>
    1808:	0f 1f 84 00 00 00 00 	nop    DWORD PTR [rax+rax*1+0x0]
    180f:	00 
    1810:	0f b6 43 ff          	movzx  eax,BYTE PTR [rbx-0x1]
    1814:	4c 8d 4b 0a          	lea    r9,[rbx+0xa]
    1818:	48 8d 35 cf db 01 00 	lea    rsi,[rip+0x1dbcf]        # 1f3ee <realloc@@GLIBC_2.2.5+0x54be>
    181f:	48 89 d9             	mov    rcx,rbx
    1822:	bf 01 00 00 00       	mov    edi,0x1
    1827:	48 83 c3 36          	add    rbx,0x36
    182b:	4d 8d 44 04 fd       	lea    r8,[r12+rax*1-0x3]
    1830:	48 89 c2             	mov    rdx,rax
    1833:	31 c0                	xor    eax,eax
    1835:	e8 d6 fe 00 00       	call   11710 <_dl_debug_state@@GLIBC_PRIVATE+0x880>
    183a:	49 39 dd             	cmp    r13,rbx
    183d:	75 d1                	jne    1810 <free@plt+0xd60>
    183f:	48 8d 35 2a eb 01 00 	lea    rsi,[rip+0x1eb2a]        # 20370 <realloc@@GLIBC_2.2.5+0x6440>
    1846:	bf 01 00 00 00       	mov    edi,0x1
    184b:	31 c0                	xor    eax,eax
    184d:	e8 be fe 00 00       	call   11710 <_dl_debug_state@@GLIBC_PRIVATE+0x880>
    1852:	31 ff                	xor    edi,edi
    1854:	e8 47 9b 01 00       	call   1b3a0 <realloc@@GLIBC_2.2.5+0x1470>
    1859:	48 8d 65 d8          	lea    rsp,[rbp-0x28]
    185d:	5b                   	pop    rbx
    185e:	41 5c                	pop    r12
    1860:	41 5d                	pop    r13
    1862:	41 5e                	pop    r14
    1864:	41 5f                	pop    r15
    1866:	5d                   	pop    rbp
    1867:	c3                   	ret
    1868:	0f 1f 84 00 00 00 00 	nop    DWORD PTR [rax+rax*1+0x0]
    186f:	00 
    1870:	49 8d 5e 01          	lea    rbx,[r14+0x1]
    1874:	41 bd 01 00 00 00    	mov    r13d,0x1
    187a:	e9 d1 fd ff ff       	jmp    1650 <free@plt+0xba0>
    187f:	b8 03 00 00 00       	mov    eax,0x3
    1884:	e9 e7 fe ff ff       	jmp    1770 <free@plt+0xcc0>
    1889:	b8 0a 00 00 00       	mov    eax,0xa
    188e:	e9 dd fe ff ff       	jmp    1770 <free@plt+0xcc0>
    1893:	b8 22 00 00 00       	mov    eax,0x22
    1898:	e9 d3 fe ff ff       	jmp    1770 <free@plt+0xcc0>
    189d:	b8 06 00 00 00       	mov    eax,0x6
    18a2:	e9 c9 fe ff ff       	jmp    1770 <free@plt+0xcc0>
    18a7:	49 83 fd 06          	cmp    r13,0x6
    18ab:	75 48                	jne    18f5 <free@plt+0xe45>
    18ad:	48 8d 35 b1 cf 01 00 	lea    rsi,[rip+0x1cfb1]        # 1e865 <realloc@@GLIBC_2.2.5+0x4935>
    18b4:	ba 06 00 00 00       	mov    edx,0x6
    18b9:	4c 89 f7             	mov    rdi,r14
    18bc:	e8 0f bc 01 00       	call   1d4d0 <realloc@@GLIBC_2.2.5+0x35a0>
    18c1:	85 c0                	test   eax,eax
    18c3:	74 26                	je     18eb <free@plt+0xe3b>
    18c5:	48 8d 35 3b d0 01 00 	lea    rsi,[rip+0x1d03b]        # 1e907 <realloc@@GLIBC_2.2.5+0x49d7>
    18cc:	ba 06 00 00 00       	mov    edx,0x6
    18d1:	4c 89 f7             	mov    rdi,r14
    18d4:	e8 f7 bb 01 00       	call   1d4d0 <realloc@@GLIBC_2.2.5+0x35a0>
    18d9:	85 c0                	test   eax,eax
    18db:	0f 85 6f fd ff ff    	jne    1650 <free@plt+0xba0>
    18e1:	b8 00 01 00 00       	mov    eax,0x100
    18e6:	e9 85 fe ff ff       	jmp    1770 <free@plt+0xcc0>
    18eb:	b8 00 02 00 00       	mov    eax,0x200
    18f0:	e9 7b fe ff ff       	jmp    1770 <free@plt+0xcc0>
    18f5:	49 83 fd 03          	cmp    r13,0x3
    18f9:	75 26                	jne    1921 <free@plt+0xe71>
    18fb:	48 8d 35 99 cf 01 00 	lea    rsi,[rip+0x1cf99]        # 1e89b <realloc@@GLIBC_2.2.5+0x496b>
    1902:	ba 03 00 00 00       	mov    edx,0x3
    1907:	4c 89 f7             	mov    rdi,r14
    190a:	e8 c1 bb 01 00       	call   1d4d0 <realloc@@GLIBC_2.2.5+0x35a0>
    190f:	85 c0                	test   eax,eax
    1911:	0f 85 39 fd ff ff    	jne    1650 <free@plt+0xba0>
    1917:	b8 7f 02 00 00       	mov    eax,0x27f
    191c:	e9 4f fe ff ff       	jmp    1770 <free@plt+0xcc0>
    1921:	49 83 fd 0a          	cmp    r13,0xa
    1925:	0f 85 25 fd ff ff    	jne    1650 <free@plt+0xba0>
    192b:	48 8d 35 9f cf 01 00 	lea    rsi,[rip+0x1cf9f]        # 1e8d1 <realloc@@GLIBC_2.2.5+0x49a1>
    1932:	ba 0a 00 00 00       	mov    edx,0xa
    1937:	4c 89 f7             	mov    rdi,r14
    193a:	e8 91 bb 01 00       	call   1d4d0 <realloc@@GLIBC_2.2.5+0x35a0>
    193f:	85 c0                	test   eax,eax
    1941:	0f 85 09 fd ff ff    	jne    1650 <free@plt+0xba0>
    1947:	b8 80 00 00 00       	mov    eax,0x80
    194c:	e9 1f fe ff ff       	jmp    1770 <free@plt+0xcc0>
    1951:	0f 1f 44 00 00       	nop    DWORD PTR [rax+rax*1+0x0]
    1956:	66 2e 0f 1f 84 00 00 	cs nop WORD PTR [rax+rax*1+0x0]
    195d:	00 00 00 
    1960:	53                   	push   rbx
    1961:	48 89 fb             	mov    rbx,rdi
    1964:	8b 57 04             	mov    edx,DWORD PTR [rdi+0x4]
    1967:	48 8b 3d d2 46 22 00 	mov    rdi,QWORD PTR [rip+0x2246d2]        # 226040 <_rtld_global@@GLIBC_PRIVATE>
    196e:	be 01 00 00 00       	mov    esi,0x1
    1973:	e8 88 07 01 00       	call   12100 <_dl_debug_state@@GLIBC_PRIVATE+0x1270>
    1978:	85 c0                	test   eax,eax
    197a:	74 06                	je     1982 <free@plt+0xed2>
    197c:	8b 03                	mov    eax,DWORD PTR [rbx]
    197e:	85 c0                	test   eax,eax
    1980:	75 06                	jne    1988 <free@plt+0xed8>
    1982:	5b                   	pop    rbx
    1983:	c3                   	ret
    1984:	0f 1f 40 00          	nop    DWORD PTR [rax+0x0]
    1988:	5b                   	pop    rbx
    1989:	bf 01 00 00 00       	mov    edi,0x1
    198e:	e9 0d 9a 01 00       	jmp    1b3a0 <realloc@@GLIBC_2.2.5+0x1470>
    1993:	0f 1f 00             	nop    DWORD PTR [rax]
    1996:	66 2e 0f 1f 84 00 00 	cs nop WORD PTR [rax+rax*1+0x0]
    199d:	00 00 00 
    19a0:	55                   	push   rbp
    19a1:	48 8d 05 68 f3 ff ff 	lea    rax,[rip+0xfffffffffffff368]        # d10 <free@plt+0x260>
    19a8:	48 89 e5             	mov    rbp,rsp
    19ab:	41 57                	push   r15
    19ad:	41 56                	push   r14
    19af:	41 55                	push   r13
    19b1:	41 54                	push   r12
    19b3:	49 89 d5             	mov    r13,rdx
    19b6:	53                   	push   rbx
    19b7:	ba 09 00 00 00       	mov    edx,0x9
    19bc:	49 89 fe             	mov    r14,rdi
    19bf:	49 89 cc             	mov    r12,rcx
    19c2:	48 81 ec b8 00 00 00 	sub    rsp,0xb8
    19c9:	48 89 05 00 50 22 00 	mov    QWORD PTR [rip+0x225000],rax        # 2269d0 <_rtld_global@@GLIBC_PRIVATE+0x990>
    19d0:	48 8d 05 59 a5 00 00 	lea    rax,[rip+0xa559]        # bf30 <_dl_rtld_di_serinfo@@GLIBC_PRIVATE+0x2ab0>
    19d7:	89 b5 58 ff ff ff    	mov    DWORD PTR [rbp-0xa8],esi
    19dd:	c7 85 68 ff ff ff 00 	mov    DWORD PTR [rbp-0x98],0x0
    19e4:	00 00 00 
    19e7:	48 89 05 ba 55 22 00 	mov    QWORD PTR [rip+0x2255ba],rax        # 226fa8 <_rtld_global@@GLIBC_PRIVATE+0xf68>
    19ee:	48 8d 05 2b f3 ff ff 	lea    rax,[rip+0xfffffffffffff32b]        # d20 <free@plt+0x270>
    19f5:	48 89 05 4c 55 22 00 	mov    QWORD PTR [rip+0x22554c],rax        # 226f48 <_rtld_global@@GLIBC_PRIVATE+0xf08>
    19fc:	48 8d 05 2d f3 ff ff 	lea    rax,[rip+0xfffffffffffff32d]        # d30 <free@plt+0x280>
    1a03:	48 89 05 46 55 22 00 	mov    QWORD PTR [rip+0x225546],rax        # 226f50 <_rtld_global@@GLIBC_PRIVATE+0xf10>
    1a0a:	48 8d 05 bf 24 01 00 	lea    rax,[rip+0x124bf]        # 13ed0 <_dl_make_stack_executable@@GLIBC_PRIVATE>
    1a11:	48 89 05 40 55 22 00 	mov    QWORD PTR [rip+0x225540],rax        # 226f58 <_rtld_global@@GLIBC_PRIVATE+0xf18>
    1a18:	48 8b 05 e1 56 22 00 	mov    rax,QWORD PTR [rip+0x2256e1]        # 227100 <_rtld_global@@GLIBC_PRIVATE+0x10c0>
    1a1f:	48 89 45 a0          	mov    QWORD PTR [rbp-0x60],rax
    1a23:	48 63 05 3e 44 22 00 	movsxd rax,DWORD PTR [rip+0x22443e]        # 225e68 <__libc_enable_secure@@GLIBC_PRIVATE>
    1a2a:	85 c0                	test   eax,eax
    1a2c:	48 0f 45 c2          	cmovne rax,rdx
    1a30:	48 8d 15 09 cc 01 00 	lea    rdx,[rip+0x1cc09]        # 1e640 <realloc@@GLIBC_2.2.5+0x4710>
    1a37:	31 db                	xor    ebx,ebx
    1a39:	48 01 d0             	add    rax,rdx
    1a3c:	48 89 05 35 43 22 00 	mov    QWORD PTR [rip+0x224335],rax        # 225d78 <_rtld_global_ro@@GLIBC_PRIVATE+0xd8>
    1a43:	48 8d 45 a0          	lea    rax,[rbp-0x60]
    1a47:	48 89 85 60 ff ff ff 	mov    QWORD PTR [rbp-0xa0],rax
    1a4e:	48 8d 45 b0          	lea    rax,[rbp-0x50]
    1a52:	48 89 85 50 ff ff ff 	mov    QWORD PTR [rbp-0xb0],rax
    1a59:	48 8d 45 90          	lea    rax,[rbp-0x70]
    1a5d:	48 89 85 48 ff ff ff 	mov    QWORD PTR [rbp-0xb8],rax
    1a64:	48 8b bd 60 ff ff ff 	mov    rdi,QWORD PTR [rbp-0xa0]
    1a6b:	e8 00 81 01 00       	call   19b70 <__get_cpu_features@@GLIBC_PRIVATE+0xb40>
    1a70:	48 85 c0             	test   rax,rax
    1a73:	49 89 c7             	mov    r15,rax
    1a76:	0f 84 45 00 00 00    	je     1ac1 <free@plt+0x1011>
    1a7c:	0f b6 10             	movzx  edx,BYTE PTR [rax]
    1a7f:	80 fa 3d             	cmp    dl,0x3d
    1a82:	74 e0                	je     1a64 <free@plt+0xfb4>
    1a84:	31 c0                	xor    eax,eax
    1a86:	84 d2                	test   dl,dl
    1a88:	75 0b                	jne    1a95 <free@plt+0xfe5>
    1a8a:	eb d8                	jmp    1a64 <free@plt+0xfb4>
    1a8c:	0f 1f 40 00          	nop    DWORD PTR [rax+0x0]
    1a90:	80 fa 3d             	cmp    dl,0x3d
    1a93:	74 0d                	je     1aa2 <free@plt+0xff2>
    1a95:	48 83 c0 01          	add    rax,0x1
    1a99:	41 0f b6 14 07       	movzx  edx,BYTE PTR [r15+rax*1]
    1a9e:	84 d2                	test   dl,dl
    1aa0:	75 ee                	jne    1a90 <free@plt+0xfe0>
    1aa2:	80 fa 3d             	cmp    dl,0x3d
    1aa5:	75 bd                	jne    1a64 <free@plt+0xfb4>
    1aa7:	48 83 e8 04          	sub    rax,0x4
    1aab:	48 83 f8 11          	cmp    rax,0x11
    1aaf:	77 b3                	ja     1a64 <free@plt+0xfb4>
    1ab1:	48 8d 0d a0 cb 01 00 	lea    rcx,[rip+0x1cba0]        # 1e658 <realloc@@GLIBC_2.2.5+0x4728>
    1ab8:	48 63 04 81          	movsxd rax,DWORD PTR [rcx+rax*4]
    1abc:	48 01 c8             	add    rax,rcx
    1abf:	ff e0                	jmp    rax
    1ac1:	8b 05 a1 43 22 00    	mov    eax,DWORD PTR [rip+0x2243a1]        # 225e68 <__libc_enable_secure@@GLIBC_PRIVATE>
    1ac7:	85 c0                	test   eax,eax
    1ac9:	0f 85 85 12 00 00    	jne    2d54 <free@plt+0x22a4>
    1acf:	8b 05 eb 40 22 00    	mov    eax,DWORD PTR [rip+0x2240eb]        # 225bc0 <realloc@@GLIBC_2.2.5+0x20bc90>
    1ad5:	85 c0                	test   eax,eax
    1ad7:	0f 84 c6 00 00 00    	je     1ba3 <free@plt+0x10f3>
    1add:	48 85 db             	test   rbx,rbx
    1ae0:	0f 84 bd 00 00 00    	je     1ba3 <free@plt+0x10f3>
    1ae6:	48 89 df             	mov    rdi,rbx
    1ae9:	48 89 a5 50 ff ff ff 	mov    QWORD PTR [rbp-0xb0],rsp
    1af0:	e8 cb b2 01 00       	call   1cdc0 <realloc@@GLIBC_2.2.5+0x2e90>
    1af5:	49 89 c7             	mov    r15,rax
    1af8:	48 8d 40 1b          	lea    rax,[rax+0x1b]
    1afc:	48 83 e0 f0          	and    rax,0xfffffffffffffff0
    1b00:	48 29 c4             	sub    rsp,rax
    1b03:	4a 8d 7c 3c 0b       	lea    rdi,[rsp+r15*1+0xb]
    1b08:	42 c6 44 3c 0b 00    	mov    BYTE PTR [rsp+r15*1+0xb],0x0
    1b0e:	48 89 bd 48 ff ff ff 	mov    QWORD PTR [rbp-0xb8],rdi
    1b15:	e8 d6 98 01 00       	call   1b3f0 <realloc@@GLIBC_2.2.5+0x14c0>
    1b1a:	48 8b bd 48 ff ff ff 	mov    rdi,QWORD PTR [rbp-0xb8]
    1b21:	4c 8d 0d f8 d7 01 00 	lea    r9,[rip+0x1d7f8]        # 1f320 <realloc@@GLIBC_2.2.5+0x53f0>
    1b28:	48 63 c8             	movsxd rcx,eax
    1b2b:	49 b8 cd cc cc cc cc 	movabs r8,0xcccccccccccccccd
    1b32:	cc cc cc 
    1b35:	48 89 c8             	mov    rax,rcx
    1b38:	48 83 ef 01          	sub    rdi,0x1
    1b3c:	49 f7 e0             	mul    r8
    1b3f:	48 89 d0             	mov    rax,rdx
    1b42:	48 c1 e8 03          	shr    rax,0x3
    1b46:	48 8d 14 80          	lea    rdx,[rax+rax*4]
    1b4a:	48 01 d2             	add    rdx,rdx
    1b4d:	48 29 d1             	sub    rcx,rdx
    1b50:	48 85 c0             	test   rax,rax
    1b53:	41 0f b6 14 09       	movzx  edx,BYTE PTR [r9+rcx*1]
    1b58:	48 89 c1             	mov    rcx,rax
    1b5b:	88 17                	mov    BYTE PTR [rdi],dl
    1b5d:	75 d6                	jne    1b35 <free@plt+0x1085>
    1b5f:	4c 89 f8             	mov    rax,r15
    1b62:	c6 47 ff 2e          	mov    BYTE PTR [rdi-0x1],0x2e
    1b66:	4c 89 fa             	mov    rdx,r15
    1b69:	48 f7 d0             	not    rax
    1b6c:	48 89 de             	mov    rsi,rbx
    1b6f:	48 01 c7             	add    rdi,rax
    1b72:	e8 d9 c1 01 00       	call   1dd50 <realloc@@GLIBC_2.2.5+0x3e20>
    1b77:	ba b6 01 00 00       	mov    edx,0x1b6
    1b7c:	48 89 c7             	mov    rdi,rax
    1b7f:	be 41 04 02 00       	mov    esi,0x20441
    1b84:	31 c0                	xor    eax,eax
    1b86:	e8 c5 95 01 00       	call   1b150 <realloc@@GLIBC_2.2.5+0x1220>
    1b8b:	ba 01 00 00 00       	mov    edx,0x1
    1b90:	83 f8 ff             	cmp    eax,0xffffffff
    1b93:	0f 44 c2             	cmove  eax,edx
    1b96:	89 05 44 41 22 00    	mov    DWORD PTR [rip+0x224144],eax        # 225ce0 <_rtld_global_ro@@GLIBC_PRIVATE+0x40>
    1b9c:	48 8b a5 50 ff ff ff 	mov    rsp,QWORD PTR [rbp-0xb0]
    1ba3:	48 8d 05 16 f1 ff ff 	lea    rax,[rip+0xfffffffffffff116]        # cc0 <free@plt+0x210>
    1baa:	49 39 45 00          	cmp    QWORD PTR [r13+0x0],rax
    1bae:	0f 85 4b 02 00 00    	jne    1dff <free@plt+0x134f>
    1bb4:	48 8b 05 c5 40 22 00 	mov    rax,QWORD PTR [rip+0x2240c5]        # 225c80 <_dl_argv@@GLIBC_PRIVATE>
    1bbb:	4c 8d 3d 6f d9 01 00 	lea    r15,[rip+0x1d96f]        # 1f531 <realloc@@GLIBC_2.2.5+0x5601>
    1bc2:	48 8d 5d 98          	lea    rbx,[rbp-0x68]
    1bc6:	48 8b 00             	mov    rax,QWORD PTR [rax]
    1bc9:	48 89 05 10 4e 22 00 	mov    QWORD PTR [rip+0x224e10],rax        # 2269e0 <_rtld_global@@GLIBC_PRIVATE+0x9a0>
    1bd0:	8b 05 b2 40 22 00    	mov    eax,DWORD PTR [rip+0x2240b2]        # 225c88 <_dl_argv@@GLIBC_PRIVATE+0x8>
    1bd6:	83 f8 01             	cmp    eax,0x1
    1bd9:	7e 55                	jle    1c30 <free@plt+0x1180>
    1bdb:	48 8b 15 9e 40 22 00 	mov    rdx,QWORD PTR [rip+0x22409e]        # 225c80 <_dl_argv@@GLIBC_PRIVATE>
    1be2:	b9 07 00 00 00       	mov    ecx,0x7
    1be7:	4c 89 ff             	mov    rdi,r15
    1bea:	4c 8b 52 08          	mov    r10,QWORD PTR [rdx+0x8]
    1bee:	4c 89 d6             	mov    rsi,r10
    1bf1:	f3 a6                	repz cmps BYTE PTR ds:[rsi],BYTE PTR es:[rdi]
    1bf3:	75 5a                	jne    1c4f <free@plt+0x119f>
    1bf5:	83 e8 01             	sub    eax,0x1
    1bf8:	48 83 c2 08          	add    rdx,0x8
    1bfc:	83 05 75 40 22 00 01 	add    DWORD PTR [rip+0x224075],0x1        # 225c78 <realloc@@GLIBC_2.2.5+0x20bd48>
    1c03:	83 f8 01             	cmp    eax,0x1
    1c06:	c7 05 d4 40 22 00 ff 	mov    DWORD PTR [rip+0x2240d4],0xffffffff        # 225ce4 <_rtld_global_ro@@GLIBC_PRIVATE+0x44>
    1c0d:	ff ff ff 
    1c10:	89 05 72 40 22 00    	mov    DWORD PTR [rip+0x224072],eax        # 225c88 <_dl_argv@@GLIBC_PRIVATE+0x8>
    1c16:	48 89 15 63 40 22 00 	mov    QWORD PTR [rip+0x224063],rdx        # 225c80 <_dl_argv@@GLIBC_PRIVATE>
    1c1d:	c7 85 68 ff ff ff 01 	mov    DWORD PTR [rbp-0x98],0x1
    1c24:	00 00 00 
    1c27:	7f b2                	jg     1bdb <free@plt+0x112b>
    1c29:	0f 1f 80 00 00 00 00 	nop    DWORD PTR [rax+0x0]
    1c30:	48 8d 35 d1 e8 01 00 	lea    rsi,[rip+0x1e8d1]        # 20508 <realloc@@GLIBC_2.2.5+0x65d8>
    1c37:	bf 02 00 00 00       	mov    edi,0x2
    1c3c:	31 c0                	xor    eax,eax
    1c3e:	e8 cd fa 00 00       	call   11710 <_dl_debug_state@@GLIBC_PRIVATE+0x880>
    1c43:	bf 7f 00 00 00       	mov    edi,0x7f
    1c48:	e8 53 97 01 00       	call   1b3a0 <realloc@@GLIBC_2.2.5+0x1470>
    1c4d:	eb e1                	jmp    1c30 <free@plt+0x1180>
    1c4f:	48 8d 3d e2 d8 01 00 	lea    rdi,[rip+0x1d8e2]        # 1f538 <realloc@@GLIBC_2.2.5+0x5608>
    1c56:	b9 09 00 00 00       	mov    ecx,0x9
    1c5b:	4c 89 d6             	mov    rsi,r10
    1c5e:	f3 a6                	repz cmps BYTE PTR ds:[rsi],BYTE PTR es:[rdi]
    1c60:	75 2a                	jne    1c8c <free@plt+0x11dc>
    1c62:	83 e8 01             	sub    eax,0x1
    1c65:	48 83 c2 08          	add    rdx,0x8
    1c69:	83 05 08 40 22 00 01 	add    DWORD PTR [rip+0x224008],0x1        # 225c78 <realloc@@GLIBC_2.2.5+0x20bd48>
    1c70:	89 05 12 40 22 00    	mov    DWORD PTR [rip+0x224012],eax        # 225c88 <_dl_argv@@GLIBC_PRIVATE+0x8>
    1c76:	48 89 15 03 40 22 00 	mov    QWORD PTR [rip+0x224003],rdx        # 225c80 <_dl_argv@@GLIBC_PRIVATE>
    1c7d:	c7 85 68 ff ff ff 02 	mov    DWORD PTR [rbp-0x98],0x2
    1c84:	00 00 00 
    1c87:	e9 4a ff ff ff       	jmp    1bd6 <free@plt+0x1126>
    1c8c:	48 8d 3d ae d8 01 00 	lea    rdi,[rip+0x1d8ae]        # 1f541 <realloc@@GLIBC_2.2.5+0x5611>
    1c93:	b9 10 00 00 00       	mov    ecx,0x10
    1c98:	4c 89 d6             	mov    rsi,r10
    1c9b:	f3 a6                	repz cmps BYTE PTR ds:[rsi],BYTE PTR es:[rdi]
    1c9d:	75 2a                	jne    1cc9 <free@plt+0x1219>
    1c9f:	83 e8 01             	sub    eax,0x1
    1ca2:	48 83 c2 08          	add    rdx,0x8
    1ca6:	c7 05 10 40 22 00 01 	mov    DWORD PTR [rip+0x224010],0x1        # 225cc0 <_rtld_global_ro@@GLIBC_PRIVATE+0x20>
    1cad:	00 00 00 
    1cb0:	83 05 c1 3f 22 00 01 	add    DWORD PTR [rip+0x223fc1],0x1        # 225c78 <realloc@@GLIBC_2.2.5+0x20bd48>
    1cb7:	89 05 cb 3f 22 00    	mov    DWORD PTR [rip+0x223fcb],eax        # 225c88 <_dl_argv@@GLIBC_PRIVATE+0x8>
    1cbd:	48 89 15 bc 3f 22 00 	mov    QWORD PTR [rip+0x223fbc],rdx        # 225c80 <_dl_argv@@GLIBC_PRIVATE>
    1cc4:	e9 0d ff ff ff       	jmp    1bd6 <free@plt+0x1126>
    1cc9:	48 8d 3d 81 d8 01 00 	lea    rdi,[rip+0x1d881]        # 1f551 <realloc@@GLIBC_2.2.5+0x5621>
    1cd0:	b9 0f 00 00 00       	mov    ecx,0xf
    1cd5:	4c 89 d6             	mov    rsi,r10
    1cd8:	f3 a6                	repz cmps BYTE PTR ds:[rsi],BYTE PTR es:[rdi]
    1cda:	40 0f 97 c6          	seta   sil
    1cde:	0f 92 c1             	setb   cl
    1ce1:	83 f8 02             	cmp    eax,0x2
    1ce4:	41 0f 95 c0          	setne  r8b
    1ce8:	40 38 ce             	cmp    sil,cl
    1ceb:	75 30                	jne    1d1d <free@plt+0x126d>
    1ced:	45 84 c0             	test   r8b,r8b
    1cf0:	74 2b                	je     1d1d <free@plt+0x126d>
    1cf2:	48 8b 4a 10          	mov    rcx,QWORD PTR [rdx+0x10]
    1cf6:	48 89 0d d3 3e 22 00 	mov    QWORD PTR [rip+0x223ed3],rcx        # 225bd0 <realloc@@GLIBC_2.2.5+0x20bca0>
    1cfd:	83 e8 02             	sub    eax,0x2
    1d00:	48 83 c2 10          	add    rdx,0x10
    1d04:	83 05 6d 3f 22 00 02 	add    DWORD PTR [rip+0x223f6d],0x2        # 225c78 <realloc@@GLIBC_2.2.5+0x20bd48>
    1d0b:	89 05 77 3f 22 00    	mov    DWORD PTR [rip+0x223f77],eax        # 225c88 <_dl_argv@@GLIBC_PRIVATE+0x8>
    1d11:	48 89 15 68 3f 22 00 	mov    QWORD PTR [rip+0x223f68],rdx        # 225c80 <_dl_argv@@GLIBC_PRIVATE>
    1d18:	e9 b9 fe ff ff       	jmp    1bd6 <free@plt+0x1126>
    1d1d:	48 8d 3d 3c d8 01 00 	lea    rdi,[rip+0x1d83c]        # 1f560 <realloc@@GLIBC_2.2.5+0x5630>
    1d24:	b9 10 00 00 00       	mov    ecx,0x10
    1d29:	4c 89 d6             	mov    rsi,r10
    1d2c:	f3 a6                	repz cmps BYTE PTR ds:[rsi],BYTE PTR es:[rdi]
    1d2e:	75 12                	jne    1d42 <free@plt+0x1292>
    1d30:	45 84 c0             	test   r8b,r8b
    1d33:	74 0d                	je     1d42 <free@plt+0x1292>
    1d35:	48 8b 4a 10          	mov    rcx,QWORD PTR [rdx+0x10]
    1d39:	48 89 0d 18 40 22 00 	mov    QWORD PTR [rip+0x224018],rcx        # 225d58 <_rtld_global_ro@@GLIBC_PRIVATE+0xb8>
    1d40:	eb bb                	jmp    1cfd <free@plt+0x124d>
    1d42:	48 8d 3d 27 d8 01 00 	lea    rdi,[rip+0x1d827]        # 1f570 <realloc@@GLIBC_2.2.5+0x5640>
    1d49:	b9 08 00 00 00       	mov    ecx,0x8
    1d4e:	4c 89 d6             	mov    rsi,r10
    1d51:	f3 a6                	repz cmps BYTE PTR ds:[rsi],BYTE PTR es:[rdi]
    1d53:	0f 85 45 15 00 00    	jne    329e <free@plt+0x27ee>
    1d59:	83 f8 02             	cmp    eax,0x2
    1d5c:	0f 84 27 13 00 00    	je     3089 <free@plt+0x25d9>
    1d62:	48 8b 42 10          	mov    rax,QWORD PTR [rdx+0x10]
    1d66:	48 89 45 98          	mov    QWORD PTR [rbp-0x68],rax
    1d6a:	48 8d 35 2f d9 01 00 	lea    rsi,[rip+0x1d92f]        # 1f6a0 <realloc@@GLIBC_2.2.5+0x5770>
    1d71:	48 89 df             	mov    rdi,rbx
    1d74:	e8 e7 84 01 00       	call   1a260 <realloc@@GLIBC_2.2.5+0x330>
    1d79:	48 85 c0             	test   rax,rax
    1d7c:	48 89 c2             	mov    rdx,rax
    1d7f:	74 4b                	je     1dcc <free@plt+0x131c>
    1d81:	80 3a 00             	cmp    BYTE PTR [rdx],0x0
    1d84:	48 89 95 50 ff ff ff 	mov    QWORD PTR [rbp-0xb0],rdx
    1d8b:	74 dd                	je     1d6a <free@plt+0x12ba>
    1d8d:	8b 05 d5 40 22 00    	mov    eax,DWORD PTR [rip+0x2240d5]        # 225e68 <__libc_enable_secure@@GLIBC_PRIVATE>
    1d93:	85 c0                	test   eax,eax
    1d95:	75 d3                	jne    1d6a <free@plt+0x12ba>
    1d97:	bf 10 00 00 00       	mov    edi,0x10
    1d9c:	e8 df ec ff ff       	call   a80 <malloc@plt>
    1da1:	48 8b 95 50 ff ff ff 	mov    rdx,QWORD PTR [rbp-0xb0]
    1da8:	48 89 10             	mov    QWORD PTR [rax],rdx
    1dab:	48 8b 15 86 52 22 00 	mov    rdx,QWORD PTR [rip+0x225286]        # 227038 <_rtld_global@@GLIBC_PRIVATE+0xff8>
    1db2:	48 85 d2             	test   rdx,rdx
    1db5:	74 38                	je     1def <free@plt+0x133f>
    1db7:	48 8b 4a 08          	mov    rcx,QWORD PTR [rdx+0x8]
    1dbb:	48 89 05 76 52 22 00 	mov    QWORD PTR [rip+0x225276],rax        # 227038 <_rtld_global@@GLIBC_PRIVATE+0xff8>
    1dc2:	48 89 48 08          	mov    QWORD PTR [rax+0x8],rcx
    1dc6:	48 89 42 08          	mov    QWORD PTR [rdx+0x8],rax
    1dca:	eb 9e                	jmp    1d6a <free@plt+0x12ba>
    1dcc:	8b 05 b6 3e 22 00    	mov    eax,DWORD PTR [rip+0x223eb6]        # 225c88 <_dl_argv@@GLIBC_PRIVATE+0x8>
    1dd2:	83 05 9f 3e 22 00 02 	add    DWORD PTR [rip+0x223e9f],0x2        # 225c78 <realloc@@GLIBC_2.2.5+0x20bd48>
    1dd9:	48 83 05 9f 3e 22 00 	add    QWORD PTR [rip+0x223e9f],0x10        # 225c80 <_dl_argv@@GLIBC_PRIVATE>
    1de0:	10 
    1de1:	83 e8 02             	sub    eax,0x2
    1de4:	89 05 9e 3e 22 00    	mov    DWORD PTR [rip+0x223e9e],eax        # 225c88 <_dl_argv@@GLIBC_PRIVATE+0x8>
    1dea:	e9 e7 fd ff ff       	jmp    1bd6 <free@plt+0x1126>
    1def:	48 89 40 08          	mov    QWORD PTR [rax+0x8],rax
    1df3:	48 89 05 3e 52 22 00 	mov    QWORD PTR [rip+0x22523e],rax        # 227038 <_rtld_global@@GLIBC_PRIVATE+0xff8>
    1dfa:	e9 6b ff ff ff       	jmp    1d6a <free@plt+0x12ba>
    1dff:	48 8d 35 a0 d8 01 00 	lea    rsi,[rip+0x1d8a0]        # 1f6a6 <realloc@@GLIBC_2.2.5+0x5776>
    1e06:	45 31 c9             	xor    r9d,r9d
    1e09:	31 c9                	xor    ecx,ecx
    1e0b:	31 d2                	xor    edx,edx
    1e0d:	41 b8 00 00 00 20    	mov    r8d,0x20000000
    1e13:	48 89 f7             	mov    rdi,rsi
    1e16:	e8 a5 9b 00 00       	call   b9c0 <_dl_rtld_di_serinfo@@GLIBC_PRIVATE+0x2540>
    1e1b:	48 85 c0             	test   rax,rax
    1e1e:	49 89 c4             	mov    r12,rax
    1e21:	0f 84 43 12 00 00    	je     306a <free@plt+0x25ba>
    1e27:	4c 89 b0 a0 02 00 00 	mov    QWORD PTR [rax+0x2a0],r14
    1e2e:	0f b7 85 58 ff ff ff 	movzx  eax,WORD PTR [rbp-0xa8]
    1e35:	31 f6                	xor    esi,esi
    1e37:	4c 89 e7             	mov    rdi,r12
    1e3a:	66 41 89 84 24 b0 02 	mov    WORD PTR [r12+0x2b0],ax
    1e41:	00 00 
    1e43:	49 8b 45 00          	mov    rax,QWORD PTR [r13+0x0]
    1e47:	49 89 84 24 a8 02 00 	mov    QWORD PTR [r12+0x2a8],rax
    1e4e:	00 
    1e4f:	e8 dc 9a 00 00       	call   b930 <_dl_rtld_di_serinfo@@GLIBC_PRIVATE+0x24b0>
    1e54:	48 8b 1d e5 41 22 00 	mov    rbx,QWORD PTR [rip+0x2241e5]        # 226040 <_rtld_global@@GLIBC_PRIVATE>
    1e5b:	49 39 dc             	cmp    r12,rbx
    1e5e:	0f 85 e7 11 00 00    	jne    304b <free@plt+0x259b>
    1e64:	45 31 ed             	xor    r13d,r13d
    1e67:	8b 85 58 ff ff ff    	mov    eax,DWORD PTR [rbp-0xa8]
    1e6d:	83 83 10 03 00 00 01 	add    DWORD PTR [rbx+0x310],0x1
    1e74:	48 c7 83 48 03 00 00 	mov    QWORD PTR [rbx+0x348],0x0
    1e7b:	00 00 00 00 
    1e7f:	48 c7 83 50 03 00 00 	mov    QWORD PTR [rbx+0x350],0x0
    1e86:	00 00 00 00 
    1e8a:	48 c7 83 40 03 00 00 	mov    QWORD PTR [rbx+0x340],0xffffffffffffffff
    1e91:	ff ff ff ff 
    1e95:	48 8d 14 c5 00 00 00 	lea    rdx,[rax*8+0x0]
    1e9c:	00 
    1e9d:	48 c1 e0 06          	shl    rax,0x6
    1ea1:	48 89 c6             	mov    rsi,rax
    1ea4:	48 29 d6             	sub    rsi,rdx
    1ea7:	4c 01 f6             	add    rsi,r14
    1eaa:	49 39 f6             	cmp    r14,rsi
    1ead:	0f 83 5a 11 00 00    	jae    300d <free@plt+0x255d>
    1eb3:	48 8b 3d fe 3d 22 00 	mov    rdi,QWORD PTR [rip+0x223dfe]        # 225cb8 <_rtld_global_ro@@GLIBC_PRIVATE+0x18>
    1eba:	4c 89 f0             	mov    rax,r14
    1ebd:	45 31 e4             	xor    r12d,r12d
    1ec0:	48 f7 df             	neg    rdi
    1ec3:	eb 28                	jmp    1eed <free@plt+0x143d>
    1ec5:	83 fa 02             	cmp    edx,0x2
    1ec8:	0f 84 fa 09 00 00    	je     28c8 <free@plt+0x1e18>
    1ece:	83 fa 03             	cmp    edx,0x3
    1ed1:	0f 84 73 09 00 00    	je     284a <free@plt+0x1d9a>
    1ed7:	83 fa 01             	cmp    edx,0x1
    1eda:	0f 84 10 09 00 00    	je     27f0 <free@plt+0x1d40>
    1ee0:	48 83 c0 38          	add    rax,0x38
    1ee4:	48 39 f0             	cmp    rax,rsi
    1ee7:	0f 83 91 00 00 00    	jae    1f7e <free@plt+0x14ce>
    1eed:	8b 10                	mov    edx,DWORD PTR [rax]
    1eef:	83 fa 06             	cmp    edx,0x6
    1ef2:	0f 84 a0 08 00 00    	je     2798 <free@plt+0x1ce8>
    1ef8:	76 cb                	jbe    1ec5 <free@plt+0x1415>
    1efa:	81 fa 51 e5 74 64    	cmp    edx,0x6474e551
    1f00:	0f 84 84 08 00 00    	je     278a <free@plt+0x1cda>
    1f06:	81 fa 52 e5 74 64    	cmp    edx,0x6474e552
    1f0c:	0f 84 5d 08 00 00    	je     276f <free@plt+0x1cbf>
    1f12:	83 fa 07             	cmp    edx,0x7
    1f15:	75 c9                	jne    1ee0 <free@plt+0x1430>
    1f17:	48 8b 50 28          	mov    rdx,QWORD PTR [rax+0x28]
    1f1b:	48 85 d2             	test   rdx,rdx
    1f1e:	74 c0                	je     1ee0 <free@plt+0x1430>
    1f20:	48 89 93 28 04 00 00 	mov    QWORD PTR [rbx+0x428],rdx
    1f27:	48 8b 50 30          	mov    rdx,QWORD PTR [rax+0x30]
    1f2b:	48 85 d2             	test   rdx,rdx
    1f2e:	48 89 93 30 04 00 00 	mov    QWORD PTR [rbx+0x430],rdx
    1f35:	48 8b 48 10          	mov    rcx,QWORD PTR [rax+0x10]
    1f39:	74 07                	je     1f42 <free@plt+0x1492>
    1f3b:	48 83 ea 01          	sub    rdx,0x1
    1f3f:	48 21 ca             	and    rdx,rcx
    1f42:	48 89 93 38 04 00 00 	mov    QWORD PTR [rbx+0x438],rdx
    1f49:	48 8b 50 20          	mov    rdx,QWORD PTR [rax+0x20]
    1f4d:	48 83 c0 38          	add    rax,0x38
    1f51:	48 39 f0             	cmp    rax,rsi
    1f54:	48 89 8b 18 04 00 00 	mov    QWORD PTR [rbx+0x418],rcx
    1f5b:	48 c7 83 48 04 00 00 	mov    QWORD PTR [rbx+0x448],0x1
    1f62:	01 00 00 00 
    1f66:	48 89 93 20 04 00 00 	mov    QWORD PTR [rbx+0x420],rdx
    1f6d:	48 c7 05 f0 4f 22 00 	mov    QWORD PTR [rip+0x224ff0],0x1        # 226f68 <_rtld_global@@GLIBC_PRIVATE+0xf28>
    1f74:	01 00 00 00 
    1f78:	0f 82 6f ff ff ff    	jb     1eed <free@plt+0x143d>
    1f7e:	48 8b 83 18 04 00 00 	mov    rax,QWORD PTR [rbx+0x418]
    1f85:	48 8b 8b 48 03 00 00 	mov    rcx,QWORD PTR [rbx+0x348]
    1f8c:	48 8b 93 50 03 00 00 	mov    rdx,QWORD PTR [rbx+0x350]
    1f93:	48 85 c0             	test   rax,rax
    1f96:	74 0a                	je     1fa2 <free@plt+0x14f2>
    1f98:	48 03 03             	add    rax,QWORD PTR [rbx]
    1f9b:	48 89 83 18 04 00 00 	mov    QWORD PTR [rbx+0x418],rax
    1fa2:	48 85 c9             	test   rcx,rcx
    1fa5:	75 0b                	jne    1fb2 <free@plt+0x1502>
    1fa7:	48 c7 83 48 03 00 00 	mov    QWORD PTR [rbx+0x348],0xffffffffffffffff
    1fae:	ff ff ff ff 
    1fb2:	48 85 d2             	test   rdx,rdx
    1fb5:	75 0b                	jne    1fc2 <free@plt+0x1512>
    1fb7:	48 c7 83 50 03 00 00 	mov    QWORD PTR [rbx+0x350],0xffffffffffffffff
    1fbe:	ff ff ff ff 
    1fc2:	4c 8b 35 47 4a 22 00 	mov    r14,QWORD PTR [rip+0x224a47]        # 226a10 <_rtld_global@@GLIBC_PRIVATE+0x9d0>
    1fc9:	4d 85 f6             	test   r14,r14
    1fcc:	0f 84 12 10 00 00    	je     2fe4 <free@plt+0x2534>
    1fd2:	48 8b 05 af 4a 22 00 	mov    rax,QWORD PTR [rip+0x224aaf]        # 226a88 <_rtld_global@@GLIBC_PRIVATE+0xa48>
    1fd9:	48 85 c0             	test   rax,rax
    1fdc:	74 50                	je     202e <free@plt+0x157e>
    1fde:	4c 8b 78 08          	mov    r15,QWORD PTR [rax+0x8]
    1fe2:	48 8b 05 57 4a 22 00 	mov    rax,QWORD PTR [rip+0x224a57]        # 226a40 <_rtld_global@@GLIBC_PRIVATE+0xa00>
    1fe9:	49 8b 3e             	mov    rdi,QWORD PTR [r14]
    1fec:	4c 03 78 08          	add    r15,QWORD PTR [rax+0x8]
    1ff0:	4c 89 fe             	mov    rsi,r15
    1ff3:	e8 38 99 01 00       	call   1b930 <realloc@@GLIBC_2.2.5+0x1a00>
    1ff8:	85 c0                	test   eax,eax
    1ffa:	74 32                	je     202e <free@plt+0x157e>
    1ffc:	48 c7 05 d1 4f 22 00 	mov    QWORD PTR [rip+0x224fd1],0x0        # 226fd8 <_rtld_global@@GLIBC_PRIVATE+0xf98>
    2003:	00 00 00 00 
    2007:	49 83 7e 08 00       	cmp    QWORD PTR [r14+0x8],0x0
    200c:	4c 89 3d bd 4f 22 00 	mov    QWORD PTR [rip+0x224fbd],r15        # 226fd0 <_rtld_global@@GLIBC_PRIVATE+0xf90>
    2013:	c7 05 c3 4f 22 00 01 	mov    DWORD PTR [rip+0x224fc3],0x1        # 226fe0 <_rtld_global@@GLIBC_PRIVATE+0xfa0>
    201a:	00 00 00 
    201d:	0f 85 a2 0f 00 00    	jne    2fc5 <free@plt+0x2515>
    2023:	48 8d 05 a6 4f 22 00 	lea    rax,[rip+0x224fa6]        # 226fd0 <_rtld_global@@GLIBC_PRIVATE+0xf90>
    202a:	49 89 46 08          	mov    QWORD PTR [r14+0x8],rax
    202e:	f6 05 b7 4c 22 00 04 	test   BYTE PTR [rip+0x224cb7],0x4        # 226cec <_rtld_global@@GLIBC_PRIVATE+0xcac>
    2035:	0f 84 6b 0f 00 00    	je     2fa6 <free@plt+0x24f6>
    203b:	45 84 ed             	test   r13b,r13b
    203e:	0f 85 d6 01 00 00    	jne    221a <free@plt+0x176a>
    2044:	48 8b 53 10          	mov    rdx,QWORD PTR [rbx+0x10]
    2048:	48 85 d2             	test   rdx,rdx
    204b:	0f 84 c1 01 00 00    	je     2212 <free@plt+0x1762>
    2051:	48 8b 02             	mov    rax,QWORD PTR [rdx]
    2054:	48 8d 4b 40          	lea    rcx,[rbx+0x40]
    2058:	48 85 c0             	test   rax,rax
    205b:	0f 84 81 00 00 00    	je     20e2 <free@plt+0x1632>
    2061:	41 be ff ff ff 6f    	mov    r14d,0x6fffffff
    2067:	41 bd ff fd ff 6f    	mov    r13d,0x6ffffdff
    206d:	41 bb ff fe ff 6f    	mov    r11d,0x6ffffeff
    2073:	49 ba 00 fa ff 7f 03 	movabs r10,0x37ffffa00
    207a:	00 00 00 
    207d:	49 b9 a0 f1 ff 7f 03 	movabs r9,0x37ffff1a0
    2084:	00 00 00 
    2087:	41 b8 31 00 00 00    	mov    r8d,0x31
    208d:	bf 21 00 00 70       	mov    edi,0x70000021
    2092:	eb 19                	jmp    20ad <free@plt+0x15fd>
    2094:	48 89 fe             	mov    rsi,rdi
    2097:	48 29 c6             	sub    rsi,rax
    209a:	48 89 f0             	mov    rax,rsi
    209d:	48 89 14 c1          	mov    QWORD PTR [rcx+rax*8],rdx
    20a1:	48 83 c2 10          	add    rdx,0x10
    20a5:	48 8b 02             	mov    rax,QWORD PTR [rdx]
    20a8:	48 85 c0             	test   rax,rax
    20ab:	74 35                	je     20e2 <free@plt+0x1632>
    20ad:	48 83 f8 21          	cmp    rax,0x21
    20b1:	76 ea                	jbe    209d <free@plt+0x15ed>
    20b3:	4c 89 f6             	mov    rsi,r14
    20b6:	48 29 c6             	sub    rsi,rax
    20b9:	48 83 fe 0f          	cmp    rsi,0xf
    20bd:	76 d5                	jbe    2094 <free@plt+0x15e4>
    20bf:	8d 34 00             	lea    esi,[rax+rax*1]
    20c2:	d1 fe                	sar    esi,1
    20c4:	83 fe fc             	cmp    esi,0xfffffffc
    20c7:	0f 86 57 08 00 00    	jbe    2924 <free@plt+0x1e74>
    20cd:	44 89 c0             	mov    eax,r8d
    20d0:	29 f0                	sub    eax,esi
    20d2:	48 89 14 c1          	mov    QWORD PTR [rcx+rax*8],rdx
    20d6:	48 83 c2 10          	add    rdx,0x10
    20da:	48 8b 02             	mov    rax,QWORD PTR [rdx]
    20dd:	48 85 c0             	test   rax,rax
    20e0:	75 cb                	jne    20ad <free@plt+0x15fd>
    20e2:	48 8b 03             	mov    rax,QWORD PTR [rbx]
    20e5:	48 85 c0             	test   rax,rax
    20e8:	74 71                	je     215b <free@plt+0x16ab>
    20ea:	48 8b 53 60          	mov    rdx,QWORD PTR [rbx+0x60]
    20ee:	48 85 d2             	test   rdx,rdx
    20f1:	74 04                	je     20f7 <free@plt+0x1647>
    20f3:	48 01 42 08          	add    QWORD PTR [rdx+0x8],rax
    20f7:	48 8b 53 58          	mov    rdx,QWORD PTR [rbx+0x58]
    20fb:	48 85 d2             	test   rdx,rdx
    20fe:	74 04                	je     2104 <free@plt+0x1654>
    2100:	48 01 42 08          	add    QWORD PTR [rdx+0x8],rax
    2104:	48 8b 53 68          	mov    rdx,QWORD PTR [rbx+0x68]
    2108:	48 85 d2             	test   rdx,rdx
    210b:	74 04                	je     2111 <free@plt+0x1661>
    210d:	48 01 42 08          	add    QWORD PTR [rdx+0x8],rax
    2111:	48 8b 53 70          	mov    rdx,QWORD PTR [rbx+0x70]
    2115:	48 85 d2             	test   rdx,rdx
    2118:	74 04                	je     211e <free@plt+0x166e>
    211a:	48 01 42 08          	add    QWORD PTR [rdx+0x8],rax
    211e:	48 8b 53 78          	mov    rdx,QWORD PTR [rbx+0x78]
    2122:	48 85 d2             	test   rdx,rdx
    2125:	74 04                	je     212b <free@plt+0x167b>
    2127:	48 01 42 08          	add    QWORD PTR [rdx+0x8],rax
    212b:	48 8b 93 f8 00 00 00 	mov    rdx,QWORD PTR [rbx+0xf8]
    2132:	48 85 d2             	test   rdx,rdx
    2135:	74 04                	je     213b <free@plt+0x168b>
    2137:	48 01 42 08          	add    QWORD PTR [rdx+0x8],rax
    213b:	48 8b 93 c8 01 00 00 	mov    rdx,QWORD PTR [rbx+0x1c8]
    2142:	48 85 d2             	test   rdx,rdx
    2145:	74 04                	je     214b <free@plt+0x169b>
    2147:	48 01 42 08          	add    QWORD PTR [rdx+0x8],rax
    214b:	48 8b 93 98 02 00 00 	mov    rdx,QWORD PTR [rbx+0x298]
    2152:	48 85 d2             	test   rdx,rdx
    2155:	74 04                	je     215b <free@plt+0x16ab>
    2157:	48 01 42 08          	add    QWORD PTR [rdx+0x8],rax
    215b:	48 8b 83 e0 00 00 00 	mov    rax,QWORD PTR [rbx+0xe0]
    2162:	48 85 c0             	test   rax,rax
    2165:	74 0b                	je     2172 <free@plt+0x16c2>
    2167:	48 83 78 08 07       	cmp    QWORD PTR [rax+0x8],0x7
    216c:	0f 85 8c 0d 00 00    	jne    2efe <free@plt+0x244e>
    2172:	48 83 7b 78 00       	cmp    QWORD PTR [rbx+0x78],0x0
    2177:	74 12                	je     218b <free@plt+0x16db>
    2179:	48 8b 83 88 00 00 00 	mov    rax,QWORD PTR [rbx+0x88]
    2180:	48 83 78 08 18       	cmp    QWORD PTR [rax+0x8],0x18
    2185:	0f 85 54 0d 00 00    	jne    2edf <free@plt+0x242f>
    218b:	48 8b 83 30 01 00 00 	mov    rax,QWORD PTR [rbx+0x130]
    2192:	48 85 c0             	test   rax,rax
    2195:	74 2e                	je     21c5 <free@plt+0x1715>
    2197:	48 8b 50 08          	mov    rdx,QWORD PTR [rax+0x8]
    219b:	f6 c2 02             	test   dl,0x2
    219e:	89 93 d8 03 00 00    	mov    DWORD PTR [rbx+0x3d8],edx
    21a4:	74 07                	je     21ad <free@plt+0x16fd>
    21a6:	48 89 83 c0 00 00 00 	mov    QWORD PTR [rbx+0xc0],rax
    21ad:	f6 c2 04             	test   dl,0x4
    21b0:	74 07                	je     21b9 <free@plt+0x1709>
    21b2:	48 89 83 f0 00 00 00 	mov    QWORD PTR [rbx+0xf0],rax
    21b9:	83 e2 08             	and    edx,0x8
    21bc:	74 07                	je     21c5 <free@plt+0x1715>
    21be:	48 89 83 00 01 00 00 	mov    QWORD PTR [rbx+0x100],rax
    21c5:	48 8b 83 70 01 00 00 	mov    rax,QWORD PTR [rbx+0x170]
    21cc:	48 85 c0             	test   rax,rax
    21cf:	74 2c                	je     21fd <free@plt+0x174d>
    21d1:	f6 05 c8 3a 22 00 40 	test   BYTE PTR [rip+0x223ac8],0x40        # 225ca0 <_rtld_global_ro@@GLIBC_PRIVATE>
    21d8:	48 8b 40 08          	mov    rax,QWORD PTR [rax+0x8]
    21dc:	89 c2                	mov    edx,eax
    21de:	89 83 d4 03 00 00    	mov    DWORD PTR [rbx+0x3d4],eax
    21e4:	0f 85 c5 27 00 00    	jne    49af <free@plt+0x3eff>
    21ea:	83 e2 01             	and    edx,0x1
    21ed:	74 0e                	je     21fd <free@plt+0x174d>
    21ef:	48 8b 83 70 01 00 00 	mov    rax,QWORD PTR [rbx+0x170]
    21f6:	48 89 83 00 01 00 00 	mov    QWORD PTR [rbx+0x100],rax
    21fd:	48 83 bb 28 01 00 00 	cmp    QWORD PTR [rbx+0x128],0x0
    2204:	00 
    2205:	74 0b                	je     2212 <free@plt+0x1762>
    2207:	48 c7 83 b8 00 00 00 	mov    QWORD PTR [rbx+0xb8],0x0
    220e:	00 00 00 00 
    2212:	48 89 df             	mov    rdi,rbx
    2215:	e8 66 96 00 00       	call   b880 <_dl_rtld_di_serinfo@@GLIBC_PRIVATE+0x2400>
    221a:	83 bd 68 ff ff ff 02 	cmp    DWORD PTR [rbp-0x98],0x2
    2221:	0f 84 5b 0d 00 00    	je     2f82 <free@plt+0x24d2>
    2227:	48 83 3d 69 3b 22 00 	cmp    QWORD PTR [rip+0x223b69],0x0        # 225d98 <_rtld_global_ro@@GLIBC_PRIVATE+0xf8>
    222e:	00 
    222f:	0f 84 3a 0d 00 00    	je     2f6f <free@plt+0x24bf>
    2235:	48 8d 35 6a d4 01 00 	lea    rsi,[rip+0x1d46a]        # 1f6a6 <realloc@@GLIBC_2.2.5+0x5776>
    223c:	45 31 c9             	xor    r9d,r9d
    223f:	45 31 c0             	xor    r8d,r8d
    2242:	31 c9                	xor    ecx,ecx
    2244:	ba 01 00 00 00       	mov    edx,0x1
    2249:	48 89 f7             	mov    rdi,rsi
    224c:	e8 6f 97 00 00       	call   b9c0 <_dl_rtld_di_serinfo@@GLIBC_PRIVATE+0x2540>
    2251:	48 85 c0             	test   rax,rax
    2254:	49 89 c4             	mov    r12,rax
    2257:	0f 84 12 0d 00 00    	je     2f6f <free@plt+0x24bf>
    225d:	48 8b 05 34 3b 22 00 	mov    rax,QWORD PTR [rip+0x223b34]        # 225d98 <_rtld_global_ro@@GLIBC_PRIVATE+0xf8>
    2264:	31 c9                	xor    ecx,ecx
    2266:	0f b7 78 38          	movzx  edi,WORD PTR [rax+0x38]
    226a:	48 89 c2             	mov    rdx,rax
    226d:	48 03 50 20          	add    rdx,QWORD PTR [rax+0x20]
    2271:	49 89 94 24 a0 02 00 	mov    QWORD PTR [r12+0x2a0],rdx
    2278:	00 
    2279:	48 83 c2 10          	add    rdx,0x10
    227d:	48 85 ff             	test   rdi,rdi
    2280:	66 41 89 bc 24 b0 02 	mov    WORD PTR [r12+0x2b0],di
    2287:	00 00 
    2289:	75 24                	jne    22af <free@plt+0x17ff>
    228b:	eb 50                	jmp    22dd <free@plt+0x182d>
    228d:	0f 1f 00             	nop    DWORD PTR [rax]
    2290:	83 fe 01             	cmp    esi,0x1
    2293:	0f 84 0e 05 00 00    	je     27a7 <free@plt+0x1cf7>
    2299:	83 fe 07             	cmp    esi,0x7
    229c:	0f 84 a3 0c 00 00    	je     2f45 <free@plt+0x2495>
    22a2:	48 83 c1 01          	add    rcx,0x1
    22a6:	48 83 c2 38          	add    rdx,0x38
    22aa:	48 39 f9             	cmp    rcx,rdi
    22ad:	74 2e                	je     22dd <free@plt+0x182d>
    22af:	8b 72 f0             	mov    esi,DWORD PTR [rdx-0x10]
    22b2:	83 fe 02             	cmp    esi,0x2
    22b5:	75 d9                	jne    2290 <free@plt+0x17e0>
    22b7:	48 8b 32             	mov    rsi,QWORD PTR [rdx]
    22ba:	48 83 c1 01          	add    rcx,0x1
    22be:	48 83 c2 38          	add    rdx,0x38
    22c2:	49 89 74 24 10       	mov    QWORD PTR [r12+0x10],rsi
    22c7:	48 8b 72 e0          	mov    rsi,QWORD PTR [rdx-0x20]
    22cb:	48 c1 ee 04          	shr    rsi,0x4
    22cf:	48 39 f9             	cmp    rcx,rdi
    22d2:	66 41 89 b4 24 b2 02 	mov    WORD PTR [r12+0x2b2],si
    22d9:	00 00 
    22db:	75 d2                	jne    22af <free@plt+0x17ff>
    22dd:	49 89 84 24 40 03 00 	mov    QWORD PTR [r12+0x340],rax
    22e4:	00 
    22e5:	49 2b 04 24          	sub    rax,QWORD PTR [r12]
    22e9:	49 01 84 24 48 03 00 	add    QWORD PTR [r12+0x348],rax
    22f0:	00 
    22f1:	49 01 84 24 50 03 00 	add    QWORD PTR [r12+0x350],rax
    22f8:	00 
    22f9:	48 89 c1             	mov    rcx,rax
    22fc:	49 03 4c 24 10       	add    rcx,QWORD PTR [r12+0x10]
    2301:	49 89 04 24          	mov    QWORD PTR [r12],rax
    2305:	48 85 c9             	test   rcx,rcx
    2308:	49 89 4c 24 10       	mov    QWORD PTR [r12+0x10],rcx
    230d:	0f 84 2f 03 00 00    	je     2642 <free@plt+0x1b92>
    2313:	48 8b 11             	mov    rdx,QWORD PTR [rcx]
    2316:	49 8d 74 24 40       	lea    rsi,[r12+0x40]
    231b:	48 85 d2             	test   rdx,rdx
    231e:	0f 84 82 00 00 00    	je     23a6 <free@plt+0x18f6>
    2324:	41 bd ff ff ff 6f    	mov    r13d,0x6fffffff
    232a:	41 bb ff fd ff 6f    	mov    r11d,0x6ffffdff
    2330:	41 be ff fe ff 6f    	mov    r14d,0x6ffffeff
    2336:	49 ba 00 fa ff 7f 03 	movabs r10,0x37ffffa00
    233d:	00 00 00 
    2340:	49 b9 a0 f1 ff 7f 03 	movabs r9,0x37ffff1a0
    2347:	00 00 00 
    234a:	41 b8 31 00 00 00    	mov    r8d,0x31
    2350:	41 bf 21 00 00 70    	mov    r15d,0x70000021
    2356:	eb 19                	jmp    2371 <free@plt+0x18c1>
    2358:	4c 89 ff             	mov    rdi,r15
    235b:	48 29 d7             	sub    rdi,rdx
    235e:	48 89 fa             	mov    rdx,rdi
    2361:	48 89 0c d6          	mov    QWORD PTR [rsi+rdx*8],rcx
    2365:	48 83 c1 10          	add    rcx,0x10
    2369:	48 8b 11             	mov    rdx,QWORD PTR [rcx]
    236c:	48 85 d2             	test   rdx,rdx
    236f:	74 35                	je     23a6 <free@plt+0x18f6>
    2371:	48 83 fa 21          	cmp    rdx,0x21
    2375:	76 ea                	jbe    2361 <free@plt+0x18b1>
    2377:	4c 89 ef             	mov    rdi,r13
    237a:	48 29 d7             	sub    rdi,rdx
    237d:	48 83 ff 0f          	cmp    rdi,0xf
    2381:	76 d5                	jbe    2358 <free@plt+0x18a8>
    2383:	8d 3c 12             	lea    edi,[rdx+rdx*1]
    2386:	d1 ff                	sar    edi,1
    2388:	83 ff fc             	cmp    edi,0xfffffffc
    238b:	0f 86 77 05 00 00    	jbe    2908 <free@plt+0x1e58>
    2391:	44 89 c2             	mov    edx,r8d
    2394:	29 fa                	sub    edx,edi
    2396:	48 89 0c d6          	mov    QWORD PTR [rsi+rdx*8],rcx
    239a:	48 83 c1 10          	add    rcx,0x10
    239e:	48 8b 11             	mov    rdx,QWORD PTR [rcx]
    23a1:	48 85 d2             	test   rdx,rdx
    23a4:	75 cb                	jne    2371 <free@plt+0x18c1>
    23a6:	48 85 c0             	test   rax,rax
    23a9:	0f 84 cc 01 00 00    	je     257b <free@plt+0x1acb>
    23af:	49 8b 54 24 60       	mov    rdx,QWORD PTR [r12+0x60]
    23b4:	48 85 d2             	test   rdx,rdx
    23b7:	0f 84 60 0b 00 00    	je     2f1d <free@plt+0x246d>
    23bd:	48 8b 0a             	mov    rcx,QWORD PTR [rdx]
    23c0:	41 bb 70 00 00 00    	mov    r11d,0x70
    23c6:	41 ba 60 00 00 00    	mov    r10d,0x60
    23cc:	41 b8 50 00 00 00    	mov    r8d,0x50
    23d2:	bf 40 00 00 00       	mov    edi,0x40
    23d7:	be 30 00 00 00       	mov    esi,0x30
    23dc:	48 89 0d fd 37 22 00 	mov    QWORD PTR [rip+0x2237fd],rcx        # 225be0 <realloc@@GLIBC_2.2.5+0x20bcb0>
    23e3:	48 89 c1             	mov    rcx,rax
    23e6:	48 03 4a 08          	add    rcx,QWORD PTR [rdx+0x8]
    23ea:	ba 10 00 00 00       	mov    edx,0x10
    23ef:	48 89 0d f2 37 22 00 	mov    QWORD PTR [rip+0x2237f2],rcx        # 225be8 <realloc@@GLIBC_2.2.5+0x20bcb8>
    23f6:	48 8d 0d e3 37 22 00 	lea    rcx,[rip+0x2237e3]        # 225be0 <realloc@@GLIBC_2.2.5+0x20bcb0>
    23fd:	49 89 4c 24 60       	mov    QWORD PTR [r12+0x60],rcx
    2402:	b9 20 00 00 00       	mov    ecx,0x20
    2407:	4d 8b 4c 24 58       	mov    r9,QWORD PTR [r12+0x58]
    240c:	4d 85 c9             	test   r9,r9
    240f:	74 32                	je     2443 <free@plt+0x1993>
    2411:	4c 8d 2d c8 37 22 00 	lea    r13,[rip+0x2237c8]        # 225be0 <realloc@@GLIBC_2.2.5+0x20bcb0>
    2418:	49 89 c6             	mov    r14,rax
    241b:	4c 01 ea             	add    rdx,r13
    241e:	4d 8b 29             	mov    r13,QWORD PTR [r9]
    2421:	4c 89 2a             	mov    QWORD PTR [rdx],r13
    2424:	4d 03 71 08          	add    r14,QWORD PTR [r9+0x8]
    2428:	4c 89 72 08          	mov    QWORD PTR [rdx+0x8],r14
    242c:	49 89 54 24 58       	mov    QWORD PTR [r12+0x58],rdx
    2431:	48 89 ca             	mov    rdx,rcx
    2434:	48 89 f1             	mov    rcx,rsi
    2437:	48 89 fe             	mov    rsi,rdi
    243a:	4c 89 c7             	mov    rdi,r8
    243d:	4d 89 d0             	mov    r8,r10
    2440:	4d 89 da             	mov    r10,r11
    2443:	4d 8b 5c 24 68       	mov    r11,QWORD PTR [r12+0x68]
    2448:	4d 85 db             	test   r11,r11
    244b:	74 2f                	je     247c <free@plt+0x19cc>
    244d:	4c 8d 0d 8c 37 22 00 	lea    r9,[rip+0x22378c]        # 225be0 <realloc@@GLIBC_2.2.5+0x20bcb0>
    2454:	4c 01 ca             	add    rdx,r9
    2457:	4d 8b 0b             	mov    r9,QWORD PTR [r11]
    245a:	4c 89 0a             	mov    QWORD PTR [rdx],r9
    245d:	49 89 c1             	mov    r9,rax
    2460:	4d 03 4b 08          	add    r9,QWORD PTR [r11+0x8]
    2464:	4c 89 4a 08          	mov    QWORD PTR [rdx+0x8],r9
    2468:	49 89 54 24 68       	mov    QWORD PTR [r12+0x68],rdx
    246d:	48 89 ca             	mov    rdx,rcx
    2470:	48 89 f1             	mov    rcx,rsi
    2473:	48 89 fe             	mov    rsi,rdi
    2476:	4c 89 c7             	mov    rdi,r8
    2479:	4d 89 d0             	mov    r8,r10
    247c:	4d 8b 54 24 70       	mov    r10,QWORD PTR [r12+0x70]
    2481:	4d 85 d2             	test   r10,r10
    2484:	74 2c                	je     24b2 <free@plt+0x1a02>
    2486:	4c 8d 0d 53 37 22 00 	lea    r9,[rip+0x223753]        # 225be0 <realloc@@GLIBC_2.2.5+0x20bcb0>
    248d:	4c 01 ca             	add    rdx,r9
    2490:	4d 8b 0a             	mov    r9,QWORD PTR [r10]
    2493:	4c 89 0a             	mov    QWORD PTR [rdx],r9
    2496:	49 89 c1             	mov    r9,rax
    2499:	4d 03 4a 08          	add    r9,QWORD PTR [r10+0x8]
    249d:	4c 89 4a 08          	mov    QWORD PTR [rdx+0x8],r9
    24a1:	49 89 54 24 70       	mov    QWORD PTR [r12+0x70],rdx
    24a6:	48 89 ca             	mov    rdx,rcx
    24a9:	48 89 f1             	mov    rcx,rsi
    24ac:	48 89 fe             	mov    rsi,rdi
    24af:	4c 89 c7             	mov    rdi,r8
    24b2:	4d 8b 4c 24 78       	mov    r9,QWORD PTR [r12+0x78]
    24b7:	4d 85 c9             	test   r9,r9
    24ba:	74 29                	je     24e5 <free@plt+0x1a35>
    24bc:	4c 8d 05 1d 37 22 00 	lea    r8,[rip+0x22371d]        # 225be0 <realloc@@GLIBC_2.2.5+0x20bcb0>
    24c3:	4c 01 c2             	add    rdx,r8
    24c6:	4d 8b 01             	mov    r8,QWORD PTR [r9]
    24c9:	4c 89 02             	mov    QWORD PTR [rdx],r8
    24cc:	49 89 c0             	mov    r8,rax
    24cf:	4d 03 41 08          	add    r8,QWORD PTR [r9+0x8]
    24d3:	4c 89 42 08          	mov    QWORD PTR [rdx+0x8],r8
    24d7:	49 89 54 24 78       	mov    QWORD PTR [r12+0x78],rdx
    24dc:	48 89 ca             	mov    rdx,rcx
    24df:	48 89 f1             	mov    rcx,rsi
    24e2:	48 89 fe             	mov    rsi,rdi
    24e5:	4d 8b 84 24 f8 00 00 	mov    r8,QWORD PTR [r12+0xf8]
    24ec:	00 
    24ed:	4d 85 c0             	test   r8,r8
    24f0:	74 29                	je     251b <free@plt+0x1a6b>
    24f2:	48 8d 3d e7 36 22 00 	lea    rdi,[rip+0x2236e7]        # 225be0 <realloc@@GLIBC_2.2.5+0x20bcb0>
    24f9:	48 01 fa             	add    rdx,rdi
    24fc:	49 8b 38             	mov    rdi,QWORD PTR [r8]
    24ff:	48 89 3a             	mov    QWORD PTR [rdx],rdi
    2502:	48 89 c7             	mov    rdi,rax
    2505:	49 03 78 08          	add    rdi,QWORD PTR [r8+0x8]
    2509:	48 89 7a 08          	mov    QWORD PTR [rdx+0x8],rdi
    250d:	49 89 94 24 f8 00 00 	mov    QWORD PTR [r12+0xf8],rdx
    2514:	00 
    2515:	48 89 ca             	mov    rdx,rcx
    2518:	48 89 f1             	mov    rcx,rsi
    251b:	49 8b bc 24 c8 01 00 	mov    rdi,QWORD PTR [r12+0x1c8]
    2522:	00 
    2523:	48 85 ff             	test   rdi,rdi
    2526:	74 26                	je     254e <free@plt+0x1a9e>
    2528:	48 8d 35 b1 36 22 00 	lea    rsi,[rip+0x2236b1]        # 225be0 <realloc@@GLIBC_2.2.5+0x20bcb0>
    252f:	48 01 f2             	add    rdx,rsi
    2532:	48 8b 37             	mov    rsi,QWORD PTR [rdi]
    2535:	48 89 32             	mov    QWORD PTR [rdx],rsi
    2538:	48 89 c6             	mov    rsi,rax
    253b:	48 03 77 08          	add    rsi,QWORD PTR [rdi+0x8]
    253f:	48 89 72 08          	mov    QWORD PTR [rdx+0x8],rsi
    2543:	49 89 94 24 c8 01 00 	mov    QWORD PTR [r12+0x1c8],rdx
    254a:	00 
    254b:	48 89 ca             	mov    rdx,rcx
    254e:	49 8b b4 24 98 02 00 	mov    rsi,QWORD PTR [r12+0x298]
    2555:	00 
    2556:	48 85 f6             	test   rsi,rsi
    2559:	74 20                	je     257b <free@plt+0x1acb>
    255b:	48 8d 0d 7e 36 22 00 	lea    rcx,[rip+0x22367e]        # 225be0 <realloc@@GLIBC_2.2.5+0x20bcb0>
    2562:	48 01 ca             	add    rdx,rcx
    2565:	48 8b 0e             	mov    rcx,QWORD PTR [rsi]
    2568:	48 89 0a             	mov    QWORD PTR [rdx],rcx
    256b:	48 03 46 08          	add    rax,QWORD PTR [rsi+0x8]
    256f:	48 89 42 08          	mov    QWORD PTR [rdx+0x8],rax
    2573:	49 89 94 24 98 02 00 	mov    QWORD PTR [r12+0x298],rdx
    257a:	00 
    257b:	49 8b 84 24 e0 00 00 	mov    rax,QWORD PTR [r12+0xe0]
    2582:	00 
    2583:	48 85 c0             	test   rax,rax
    2586:	74 0b                	je     2593 <free@plt+0x1ae3>
    2588:	48 83 78 08 07       	cmp    QWORD PTR [rax+0x8],0x7
    258d:	0f 85 6b 09 00 00    	jne    2efe <free@plt+0x244e>
    2593:	49 83 7c 24 78 00    	cmp    QWORD PTR [r12+0x78],0x0
    2599:	74 13                	je     25ae <free@plt+0x1afe>
    259b:	49 8b 84 24 88 00 00 	mov    rax,QWORD PTR [r12+0x88]
    25a2:	00 
    25a3:	48 83 78 08 18       	cmp    QWORD PTR [rax+0x8],0x18
    25a8:	0f 85 31 09 00 00    	jne    2edf <free@plt+0x242f>
    25ae:	49 8b 84 24 30 01 00 	mov    rax,QWORD PTR [r12+0x130]
    25b5:	00 
    25b6:	48 85 c0             	test   rax,rax
    25b9:	74 33                	je     25ee <free@plt+0x1b3e>
    25bb:	48 8b 50 08          	mov    rdx,QWORD PTR [rax+0x8]
    25bf:	f6 c2 02             	test   dl,0x2
    25c2:	41 89 94 24 d8 03 00 	mov    DWORD PTR [r12+0x3d8],edx
    25c9:	00 
    25ca:	74 08                	je     25d4 <free@plt+0x1b24>
    25cc:	49 89 84 24 c0 00 00 	mov    QWORD PTR [r12+0xc0],rax
    25d3:	00 
    25d4:	f6 c2 04             	test   dl,0x4
    25d7:	74 08                	je     25e1 <free@plt+0x1b31>
    25d9:	49 89 84 24 f0 00 00 	mov    QWORD PTR [r12+0xf0],rax
    25e0:	00 
    25e1:	83 e2 08             	and    edx,0x8
    25e4:	74 08                	je     25ee <free@plt+0x1b3e>
    25e6:	49 89 84 24 00 01 00 	mov    QWORD PTR [r12+0x100],rax
    25ed:	00 
    25ee:	49 8b 84 24 70 01 00 	mov    rax,QWORD PTR [r12+0x170]
    25f5:	00 
    25f6:	48 85 c0             	test   rax,rax
    25f9:	74 30                	je     262b <free@plt+0x1b7b>
    25fb:	f6 05 9e 36 22 00 40 	test   BYTE PTR [rip+0x22369e],0x40        # 225ca0 <_rtld_global_ro@@GLIBC_PRIVATE>
    2602:	48 8b 40 08          	mov    rax,QWORD PTR [rax+0x8]
    2606:	89 c2                	mov    edx,eax
    2608:	41 89 84 24 d4 03 00 	mov    DWORD PTR [r12+0x3d4],eax
    260f:	00 
    2610:	0f 85 a0 08 00 00    	jne    2eb6 <free@plt+0x2406>
    2616:	83 e2 01             	and    edx,0x1
    2619:	74 10                	je     262b <free@plt+0x1b7b>
    261b:	49 8b 84 24 70 01 00 	mov    rax,QWORD PTR [r12+0x170]
    2622:	00 
    2623:	49 89 84 24 00 01 00 	mov    QWORD PTR [r12+0x100],rax
    262a:	00 
    262b:	49 83 bc 24 28 01 00 	cmp    QWORD PTR [r12+0x128],0x0
    2632:	00 00 
    2634:	74 0c                	je     2642 <free@plt+0x1b92>
    2636:	49 c7 84 24 b8 00 00 	mov    QWORD PTR [r12+0xb8],0x0
    263d:	00 00 00 00 00 
    2642:	4c 89 e7             	mov    rdi,r12
    2645:	e8 36 92 00 00       	call   b880 <_dl_rtld_di_serinfo@@GLIBC_PRIVATE+0x2400>
    264a:	49 8b 84 24 88 03 00 	mov    rax,QWORD PTR [r12+0x388]
    2651:	00 
    2652:	49 8d 54 24 28       	lea    rdx,[r12+0x28]
    2657:	41 80 8c 24 14 03 00 	or     BYTE PTR [r12+0x314],0x4
    265e:	00 04 
    2660:	41 c7 84 24 cc 03 00 	mov    DWORD PTR [r12+0x3cc],0x1
    2667:	00 01 00 00 00 
    266c:	c7 40 08 01 00 00 00 	mov    DWORD PTR [rax+0x8],0x1
    2673:	48 89 10             	mov    QWORD PTR [rax],rdx
    2676:	49 8b 84 24 b0 00 00 	mov    rax,QWORD PTR [r12+0xb0]
    267d:	00 
    267e:	48 85 c0             	test   rax,rax
    2681:	74 51                	je     26d4 <free@plt+0x1c24>
    2683:	49 8b 54 24 68       	mov    rdx,QWORD PTR [r12+0x68]
    2688:	4c 8b 68 08          	mov    r13,QWORD PTR [rax+0x8]
    268c:	4c 03 6a 08          	add    r13,QWORD PTR [rdx+0x8]
    2690:	4c 89 ef             	mov    rdi,r13
    2693:	e8 28 a7 01 00       	call   1cdc0 <realloc@@GLIBC_2.2.5+0x2e90>
    2698:	4c 8d 70 01          	lea    r14,[rax+0x1]
    269c:	4c 89 f7             	mov    rdi,r14
    269f:	e8 dc e3 ff ff       	call   a80 <malloc@plt>
    26a4:	48 85 c0             	test   rax,rax
    26a7:	0f 84 d3 02 00 00    	je     2980 <free@plt+0x1ed0>
    26ad:	4c 89 ee             	mov    rsi,r13
    26b0:	4c 89 f2             	mov    rdx,r14
    26b3:	48 89 c7             	mov    rdi,rax
    26b6:	4d 8b 7c 24 38       	mov    r15,QWORD PTR [r12+0x38]
    26bb:	e8 90 b6 01 00       	call   1dd50 <realloc@@GLIBC_2.2.5+0x3e20>
    26c0:	44 8b 2d d9 35 22 00 	mov    r13d,DWORD PTR [rip+0x2235d9]        # 225ca0 <_rtld_global_ro@@GLIBC_PRIVATE>
    26c7:	49 89 07             	mov    QWORD PTR [r15],rax
    26ca:	45 85 ed             	test   r13d,r13d
    26cd:	74 05                	je     26d4 <free@plt+0x1c24>
    26cf:	49 89 44 24 08       	mov    QWORD PTR [r12+0x8],rax
    26d4:	31 f6                	xor    esi,esi
    26d6:	4c 89 e7             	mov    rdi,r12
    26d9:	e8 52 92 00 00       	call   b930 <_dl_rtld_di_serinfo@@GLIBC_PRIVATE+0x24b0>
    26de:	49 83 7c 24 18 00    	cmp    QWORD PTR [r12+0x18],0x0
    26e4:	0f 85 90 23 00 00    	jne    4a7a <free@plt+0x3fca>
    26ea:	49 3b 5c 24 20       	cmp    rbx,QWORD PTR [r12+0x20]
    26ef:	0f 85 66 23 00 00    	jne    4a5b <free@plt+0x3fab>
    26f5:	48 8d 05 dc 42 22 00 	lea    rax,[rip+0x2242dc]        # 2269d8 <_rtld_global@@GLIBC_PRIVATE+0x998>
    26fc:	4c 89 25 ed 42 22 00 	mov    QWORD PTR [rip+0x2242ed],r12        # 2269f0 <_rtld_global@@GLIBC_PRIVATE+0x9b0>
    2703:	49 89 44 24 20       	mov    QWORD PTR [r12+0x20],rax
    2708:	49 8d 44 24 18       	lea    rax,[r12+0x18]
    270d:	4c 89 25 8c 36 22 00 	mov    QWORD PTR [rip+0x22368c],r12        # 225da0 <_rtld_global_ro@@GLIBC_PRIVATE+0x100>
    2714:	48 89 85 48 ff ff ff 	mov    QWORD PTR [rbp-0xb8],rax
    271b:	e8 80 72 01 00       	call   199a0 <__get_cpu_features@@GLIBC_PRIVATE+0x970>
    2720:	85 c0                	test   eax,eax
    2722:	0f 88 78 02 00 00    	js     29a0 <free@plt+0x1ef0>
    2728:	8b 15 76 35 22 00    	mov    edx,DWORD PTR [rip+0x223576]        # 225ca4 <_rtld_global_ro@@GLIBC_PRIVATE+0x4>
    272e:	85 d2                	test   edx,edx
    2730:	0f 85 33 0e 00 00    	jne    3569 <free@plt+0x2ab9>
    2736:	89 05 68 35 22 00    	mov    DWORD PTR [rip+0x223568],eax        # 225ca4 <_rtld_global_ro@@GLIBC_PRIVATE+0x4>
    273c:	3d 1f 06 02 00       	cmp    eax,0x2061f
    2741:	0f 8f a5 0b 00 00    	jg     32ec <free@plt+0x283c>
    2747:	66 0f 1f 84 00 00 00 	nop    WORD PTR [rax+rax*1+0x0]
    274e:	00 00 
    2750:	48 8d 35 ef ce 01 00 	lea    rsi,[rip+0x1ceef]        # 1f646 <realloc@@GLIBC_2.2.5+0x5716>
    2757:	bf 02 00 00 00       	mov    edi,0x2
    275c:	31 c0                	xor    eax,eax
    275e:	e8 ad ef 00 00       	call   11710 <_dl_debug_state@@GLIBC_PRIVATE+0x880>
    2763:	bf 7f 00 00 00       	mov    edi,0x7f
    2768:	e8 33 8c 01 00       	call   1b3a0 <realloc@@GLIBC_2.2.5+0x1470>
    276d:	eb e1                	jmp    2750 <free@plt+0x1ca0>
    276f:	48 8b 50 10          	mov    rdx,QWORD PTR [rax+0x10]
    2773:	48 89 93 58 04 00 00 	mov    QWORD PTR [rbx+0x458],rdx
    277a:	48 8b 50 28          	mov    rdx,QWORD PTR [rax+0x28]
    277e:	48 89 93 60 04 00 00 	mov    QWORD PTR [rbx+0x460],rdx
    2785:	e9 56 f7 ff ff       	jmp    1ee0 <free@plt+0x1430>
    278a:	8b 50 04             	mov    edx,DWORD PTR [rax+0x4]
    278d:	89 15 cd 47 22 00    	mov    DWORD PTR [rip+0x2247cd],edx        # 226f60 <_rtld_global@@GLIBC_PRIVATE+0xf20>
    2793:	e9 48 f7 ff ff       	jmp    1ee0 <free@plt+0x1430>
    2798:	4c 89 f2             	mov    rdx,r14
    279b:	48 2b 50 10          	sub    rdx,QWORD PTR [rax+0x10]
    279f:	48 89 13             	mov    QWORD PTR [rbx],rdx
    27a2:	e9 39 f7 ff ff       	jmp    1ee0 <free@plt+0x1430>
    27a7:	49 83 3c 24 00       	cmp    QWORD PTR [r12],0x0
    27ac:	48 8b 32             	mov    rsi,QWORD PTR [rdx]
    27af:	75 04                	jne    27b5 <free@plt+0x1d05>
    27b1:	49 89 34 24          	mov    QWORD PTR [r12],rsi
    27b5:	48 03 72 18          	add    rsi,QWORD PTR [rdx+0x18]
    27b9:	49 3b b4 24 48 03 00 	cmp    rsi,QWORD PTR [r12+0x348]
    27c0:	00 
    27c1:	72 08                	jb     27cb <free@plt+0x1d1b>
    27c3:	49 89 b4 24 48 03 00 	mov    QWORD PTR [r12+0x348],rsi
    27ca:	00 
    27cb:	f6 42 f4 01          	test   BYTE PTR [rdx-0xc],0x1
    27cf:	0f 84 cd fa ff ff    	je     22a2 <free@plt+0x17f2>
    27d5:	49 3b b4 24 50 03 00 	cmp    rsi,QWORD PTR [r12+0x350]
    27dc:	00 
    27dd:	0f 82 bf fa ff ff    	jb     22a2 <free@plt+0x17f2>
    27e3:	49 89 b4 24 50 03 00 	mov    QWORD PTR [r12+0x350],rsi
    27ea:	00 
    27eb:	e9 b2 fa ff ff       	jmp    22a2 <free@plt+0x17f2>
    27f0:	48 8b 48 10          	mov    rcx,QWORD PTR [rax+0x10]
    27f4:	48 8b 13             	mov    rdx,QWORD PTR [rbx]
    27f7:	49 89 c8             	mov    r8,rcx
    27fa:	49 21 f8             	and    r8,rdi
    27fd:	49 01 d0             	add    r8,rdx
    2800:	4c 3b 83 40 03 00 00 	cmp    r8,QWORD PTR [rbx+0x340]
    2807:	73 07                	jae    2810 <free@plt+0x1d60>
    2809:	4c 89 83 40 03 00 00 	mov    QWORD PTR [rbx+0x340],r8
    2810:	48 03 48 28          	add    rcx,QWORD PTR [rax+0x28]
    2814:	48 01 ca             	add    rdx,rcx
    2817:	48 3b 93 48 03 00 00 	cmp    rdx,QWORD PTR [rbx+0x348]
    281e:	76 07                	jbe    2827 <free@plt+0x1d77>
    2820:	48 89 93 48 03 00 00 	mov    QWORD PTR [rbx+0x348],rdx
    2827:	f6 40 04 01          	test   BYTE PTR [rax+0x4],0x1
    282b:	0f 84 af f6 ff ff    	je     1ee0 <free@plt+0x1430>
    2831:	48 3b 93 50 03 00 00 	cmp    rdx,QWORD PTR [rbx+0x350]
    2838:	0f 86 a2 f6 ff ff    	jbe    1ee0 <free@plt+0x1430>
    283e:	48 89 93 50 03 00 00 	mov    QWORD PTR [rbx+0x350],rdx
    2845:	e9 96 f6 ff ff       	jmp    1ee0 <free@plt+0x1430>
    284a:	48 8d 0d cf 47 22 00 	lea    rcx,[rip+0x2247cf]        # 227020 <_rtld_global@@GLIBC_PRIVATE+0xfe0>
    2851:	48 8b 13             	mov    rdx,QWORD PTR [rbx]
    2854:	48 03 50 10          	add    rdx,QWORD PTR [rax+0x10]
    2858:	41 bc 01 00 00 00    	mov    r12d,0x1
    285e:	48 89 0d ab 41 22 00 	mov    QWORD PTR [rip+0x2241ab],rcx        # 226a10 <_rtld_global@@GLIBC_PRIVATE+0x9d0>
    2865:	31 c9                	xor    ecx,ecx
    2867:	48 83 3d 79 41 22 00 	cmp    QWORD PTR [rip+0x224179],0x0        # 2269e8 <_rtld_global@@GLIBC_PRIVATE+0x9a8>
    286e:	00 
    286f:	48 89 15 aa 47 22 00 	mov    QWORD PTR [rip+0x2247aa],rdx        # 227020 <_rtld_global@@GLIBC_PRIVATE+0xfe0>
    2876:	0f 85 64 f6 ff ff    	jne    1ee0 <free@plt+0x1430>
    287c:	44 0f b6 02          	movzx  r8d,BYTE PTR [rdx]
    2880:	45 84 c0             	test   r8b,r8b
    2883:	74 15                	je     289a <free@plt+0x1dea>
    2885:	48 83 c2 01          	add    rdx,0x1
    2889:	41 80 f8 2f          	cmp    r8b,0x2f
    288d:	44 0f b6 02          	movzx  r8d,BYTE PTR [rdx]
    2891:	48 0f 44 ca          	cmove  rcx,rdx
    2895:	45 84 c0             	test   r8b,r8b
    2898:	75 eb                	jne    2885 <free@plt+0x1dd5>
    289a:	48 85 c9             	test   rcx,rcx
    289d:	0f 84 c1 06 00 00    	je     2f64 <free@plt+0x24b4>
    28a3:	48 89 0d 56 47 22 00 	mov    QWORD PTR [rip+0x224756],rcx        # 227000 <_rtld_global@@GLIBC_PRIVATE+0xfc0>
    28aa:	48 8d 0d 4f 47 22 00 	lea    rcx,[rip+0x22474f]        # 227000 <_rtld_global@@GLIBC_PRIVATE+0xfc0>
    28b1:	41 bc 01 00 00 00    	mov    r12d,0x1
    28b7:	48 89 0d 6a 47 22 00 	mov    QWORD PTR [rip+0x22476a],rcx        # 227028 <_rtld_global@@GLIBC_PRIVATE+0xfe8>
    28be:	e9 1d f6 ff ff       	jmp    1ee0 <free@plt+0x1430>
    28c3:	0f 1f 44 00 00       	nop    DWORD PTR [rax+rax*1+0x0]
    28c8:	48 8b 13             	mov    rdx,QWORD PTR [rbx]
    28cb:	48 03 50 10          	add    rdx,QWORD PTR [rax+0x10]
    28cf:	48 89 53 10          	mov    QWORD PTR [rbx+0x10],rdx
    28d3:	e9 08 f6 ff ff       	jmp    1ee0 <free@plt+0x1430>
    28d8:	48 8d 35 1e cc 01 00 	lea    rsi,[rip+0x1cc1e]        # 1f4fd <realloc@@GLIBC_2.2.5+0x55cd>
    28df:	ba 15 00 00 00       	mov    edx,0x15
    28e4:	4c 89 ff             	mov    rdi,r15
    28e7:	e8 e4 ab 01 00       	call   1d4d0 <realloc@@GLIBC_2.2.5+0x35a0>
    28ec:	85 c0                	test   eax,eax
    28ee:	0f 85 70 f1 ff ff    	jne    1a64 <free@plt+0xfb4>
    28f4:	81 0d 52 34 22 00 00 	or     DWORD PTR [rip+0x223452],0x10000        # 225d50 <_rtld_global_ro@@GLIBC_PRIVATE+0xb0>
    28fb:	00 01 00 
    28fe:	e9 61 f1 ff ff       	jmp    1a64 <free@plt+0xfb4>
    2903:	0f 1f 44 00 00       	nop    DWORD PTR [rax+rax*1+0x0]
    2908:	4c 89 df             	mov    rdi,r11
    290b:	48 29 d7             	sub    rdi,rdx
    290e:	48 83 ff 0b          	cmp    rdi,0xb
    2912:	77 2c                	ja     2940 <free@plt+0x1e90>
    2914:	48 f7 da             	neg    rdx
    2917:	48 8d 14 d6          	lea    rdx,[rsi+rdx*8]
    291b:	4a 89 0c 0a          	mov    QWORD PTR [rdx+r9*1],rcx
    291f:	e9 41 fa ff ff       	jmp    2365 <free@plt+0x18b5>
    2924:	4c 89 ee             	mov    rsi,r13
    2927:	48 29 c6             	sub    rsi,rax
    292a:	48 83 fe 0b          	cmp    rsi,0xb
    292e:	77 30                	ja     2960 <free@plt+0x1eb0>
    2930:	48 f7 d8             	neg    rax
    2933:	48 8d 04 c1          	lea    rax,[rcx+rax*8]
    2937:	4a 89 14 08          	mov    QWORD PTR [rax+r9*1],rdx
    293b:	e9 61 f7 ff ff       	jmp    20a1 <free@plt+0x15f1>
    2940:	4c 89 f7             	mov    rdi,r14
    2943:	48 29 d7             	sub    rdi,rdx
    2946:	48 83 ff 0a          	cmp    rdi,0xa
    294a:	0f 87 15 fa ff ff    	ja     2365 <free@plt+0x18b5>
    2950:	48 f7 da             	neg    rdx
    2953:	48 8d 14 d6          	lea    rdx,[rsi+rdx*8]
    2957:	4a 89 0c 12          	mov    QWORD PTR [rdx+r10*1],rcx
    295b:	e9 05 fa ff ff       	jmp    2365 <free@plt+0x18b5>
    2960:	4c 89 de             	mov    rsi,r11
    2963:	48 29 c6             	sub    rsi,rax
    2966:	48 83 fe 0a          	cmp    rsi,0xa
    296a:	0f 87 31 f7 ff ff    	ja     20a1 <free@plt+0x15f1>
    2970:	48 f7 d8             	neg    rax
    2973:	48 8d 04 c1          	lea    rax,[rcx+rax*8]
    2977:	4a 89 14 10          	mov    QWORD PTR [rax+r10*1],rdx
    297b:	e9 21 f7 ff ff       	jmp    20a1 <free@plt+0x15f1>
    2980:	48 8d 35 88 cc 01 00 	lea    rsi,[rip+0x1cc88]        # 1f60f <realloc@@GLIBC_2.2.5+0x56df>
    2987:	bf 02 00 00 00       	mov    edi,0x2
    298c:	31 c0                	xor    eax,eax
    298e:	e8 7d ed 00 00       	call   11710 <_dl_debug_state@@GLIBC_PRIVATE+0x880>
    2993:	bf 7f 00 00 00       	mov    edi,0x7f
    2998:	e8 03 8a 01 00       	call   1b3a0 <realloc@@GLIBC_2.2.5+0x1470>
    299d:	eb e1                	jmp    2980 <free@plt+0x1ed0>
    299f:	90                   	nop
    29a0:	48 8d 35 b9 e1 01 00 	lea    rsi,[rip+0x1e1b9]        # 20b60 <realloc@@GLIBC_2.2.5+0x6c30>
    29a7:	bf 02 00 00 00       	mov    edi,0x2
    29ac:	31 c0                	xor    eax,eax
    29ae:	e8 5d ed 00 00       	call   11710 <_dl_debug_state@@GLIBC_PRIVATE+0x880>
    29b3:	bf 7f 00 00 00       	mov    edi,0x7f
    29b8:	e8 e3 89 01 00       	call   1b3a0 <realloc@@GLIBC_2.2.5+0x1470>
    29bd:	eb e1                	jmp    29a0 <free@plt+0x1ef0>
    29bf:	48 8d 35 22 cb 01 00 	lea    rsi,[rip+0x1cb22]        # 1f4e8 <realloc@@GLIBC_2.2.5+0x55b8>
    29c6:	ba 14 00 00 00       	mov    edx,0x14
    29cb:	4c 89 ff             	mov    rdi,r15
    29ce:	e8 fd aa 01 00       	call   1d4d0 <realloc@@GLIBC_2.2.5+0x35a0>
    29d3:	85 c0                	test   eax,eax
    29d5:	b8 03 00 00 00       	mov    eax,0x3
    29da:	0f 45 85 68 ff ff ff 	cmovne eax,DWORD PTR [rbp-0x98]
    29e1:	89 85 68 ff ff ff    	mov    DWORD PTR [rbp-0x98],eax
    29e7:	e9 78 f0 ff ff       	jmp    1a64 <free@plt+0xfb4>
    29ec:	48 8d 35 e4 ca 01 00 	lea    rsi,[rip+0x1cae4]        # 1f4d7 <realloc@@GLIBC_2.2.5+0x55a7>
    29f3:	ba 10 00 00 00       	mov    edx,0x10
    29f8:	4c 89 ff             	mov    rdi,r15
    29fb:	e8 d0 aa 01 00       	call   1d4d0 <realloc@@GLIBC_2.2.5+0x35a0>
    2a00:	85 c0                	test   eax,eax
    2a02:	0f 85 5c f0 ff ff    	jne    1a64 <free@plt+0xfb4>
    2a08:	49 83 c7 11          	add    r15,0x11
    2a0c:	c7 05 c6 32 22 00 01 	mov    DWORD PTR [rip+0x2232c6],0x1        # 225cdc <_rtld_global_ro@@GLIBC_PRIVATE+0x3c>
    2a13:	00 00 00 
    2a16:	81 0d 80 32 22 00 00 	or     DWORD PTR [rip+0x223280],0x800        # 225ca0 <_rtld_global_ro@@GLIBC_PRIVATE>
    2a1d:	08 00 00 
    2a20:	4c 89 3d 59 33 22 00 	mov    QWORD PTR [rip+0x223359],r15        # 225d80 <_rtld_global_ro@@GLIBC_PRIVATE+0xe0>
    2a27:	c7 85 68 ff ff ff 03 	mov    DWORD PTR [rbp-0x98],0x3
    2a2e:	00 00 00 
    2a31:	e9 2e f0 ff ff       	jmp    1a64 <free@plt+0xfb4>
    2a36:	66 2e 0f 1f 84 00 00 	cs nop WORD PTR [rax+rax*1+0x0]
    2a3d:	00 00 00 
    2a40:	8b 05 22 34 22 00    	mov    eax,DWORD PTR [rip+0x223422]        # 225e68 <__libc_enable_secure@@GLIBC_PRIVATE>
    2a46:	85 c0                	test   eax,eax
    2a48:	0f 85 16 f0 ff ff    	jne    1a64 <free@plt+0xfb4>
    2a4e:	48 8d 35 73 ca 01 00 	lea    rsi,[rip+0x1ca73]        # 1f4c8 <realloc@@GLIBC_2.2.5+0x5598>
    2a55:	ba 0e 00 00 00       	mov    edx,0xe
    2a5a:	4c 89 ff             	mov    rdi,r15
    2a5d:	e8 6e aa 01 00       	call   1d4d0 <realloc@@GLIBC_2.2.5+0x35a0>
    2a62:	85 c0                	test   eax,eax
    2a64:	0f 85 fa ef ff ff    	jne    1a64 <free@plt+0xfb4>
    2a6a:	41 80 7f 0f 00       	cmp    BYTE PTR [r15+0xf],0x0
    2a6f:	0f 84 ef ef ff ff    	je     1a64 <free@plt+0xfb4>
    2a75:	49 83 c7 0f          	add    r15,0xf
    2a79:	4c 89 3d f8 32 22 00 	mov    QWORD PTR [rip+0x2232f8],r15        # 225d78 <_rtld_global_ro@@GLIBC_PRIVATE+0xd8>
    2a80:	e9 df ef ff ff       	jmp    1a64 <free@plt+0xfb4>
    2a85:	0f 1f 00             	nop    DWORD PTR [rax]
    2a88:	48 8d 35 1d ca 01 00 	lea    rsi,[rip+0x1ca1d]        # 1f4ac <realloc@@GLIBC_2.2.5+0x557c>
    2a8f:	ba 0d 00 00 00       	mov    edx,0xd
    2a94:	4c 89 ff             	mov    rdi,r15
    2a97:	e8 34 aa 01 00       	call   1d4d0 <realloc@@GLIBC_2.2.5+0x35a0>
    2a9c:	85 c0                	test   eax,eax
    2a9e:	0f 85 72 03 00 00    	jne    2e16 <free@plt+0x2366>
    2aa4:	4d 8d 57 0e          	lea    r10,[r15+0xe]
    2aa8:	41 b8 10 00 00 00    	mov    r8d,0x10
    2aae:	45 31 ff             	xor    r15d,r15d
    2ab1:	45 31 c9             	xor    r9d,r9d
    2ab4:	48 8b b5 50 ff ff ff 	mov    rsi,QWORD PTR [rbp-0xb0]
    2abb:	31 c9                	xor    ecx,ecx
    2abd:	31 d2                	xor    edx,edx
    2abf:	4c 89 d7             	mov    rdi,r10
    2ac2:	4c 89 8d 30 ff ff ff 	mov    QWORD PTR [rbp-0xd0],r9
    2ac9:	44 89 85 38 ff ff ff 	mov    DWORD PTR [rbp-0xc8],r8d
    2ad0:	4c 89 95 40 ff ff ff 	mov    QWORD PTR [rbp-0xc0],r10
    2ad7:	e8 54 75 01 00       	call   1a030 <realloc@@GLIBC_2.2.5+0x100>
    2adc:	48 3d fe 00 00 00    	cmp    rax,0xfe
    2ae2:	0f 87 7c ef ff ff    	ja     1a64 <free@plt+0xfb4>
    2ae8:	48 8b 55 b0          	mov    rdx,QWORD PTR [rbp-0x50]
    2aec:	4c 8b 95 40 ff ff ff 	mov    r10,QWORD PTR [rbp-0xc0]
    2af3:	4c 39 d2             	cmp    rdx,r10
    2af6:	0f 84 68 ef ff ff    	je     1a64 <free@plt+0xfb4>
    2afc:	4c 8b 8d 30 ff ff ff 	mov    r9,QWORD PTR [rbp-0xd0]
    2b03:	49 83 f9 02          	cmp    r9,0x2
    2b07:	0f 85 99 07 00 00    	jne    32a6 <free@plt+0x27f6>
    2b0d:	49 09 c7             	or     r15,rax
    2b10:	4d 85 ff             	test   r15,r15
    2b13:	0f 84 4b ef ff ff    	je     1a64 <free@plt+0xfb4>
    2b19:	44 89 3d 84 31 22 00 	mov    DWORD PTR [rip+0x223184],r15d        # 225ca4 <_rtld_global_ro@@GLIBC_PRIVATE+0x4>
    2b20:	e9 3f ef ff ff       	jmp    1a64 <free@plt+0xfb4>
    2b25:	0f 1f 00             	nop    DWORD PTR [rax]
    2b28:	48 8d 35 df ce 01 00 	lea    rsi,[rip+0x1cedf]        # 1fa0e <realloc@@GLIBC_2.2.5+0x5ade>
    2b2f:	ba 0c 00 00 00       	mov    edx,0xc
    2b34:	4c 89 ff             	mov    rdi,r15
    2b37:	e8 94 a9 01 00       	call   1d4d0 <realloc@@GLIBC_2.2.5+0x35a0>
    2b3c:	85 c0                	test   eax,eax
    2b3e:	0f 85 78 02 00 00    	jne    2dbc <free@plt+0x230c>
    2b44:	49 83 c7 0d          	add    r15,0xd
    2b48:	4c 89 3d 81 30 22 00 	mov    QWORD PTR [rip+0x223081],r15        # 225bd0 <realloc@@GLIBC_2.2.5+0x20bca0>
    2b4f:	e9 10 ef ff ff       	jmp    1a64 <free@plt+0xfb4>
    2b54:	0f 1f 40 00          	nop    DWORD PTR [rax+0x0]
    2b58:	8b 0d 0a 33 22 00    	mov    ecx,DWORD PTR [rip+0x22330a]        # 225e68 <__libc_enable_secure@@GLIBC_PRIVATE>
    2b5e:	85 c9                	test   ecx,ecx
    2b60:	0f 85 fe ee ff ff    	jne    1a64 <free@plt+0xfb4>
    2b66:	48 8d 35 19 c9 01 00 	lea    rsi,[rip+0x1c919]        # 1f486 <realloc@@GLIBC_2.2.5+0x5556>
    2b6d:	ba 0b 00 00 00       	mov    edx,0xb
    2b72:	4c 89 ff             	mov    rdi,r15
    2b75:	e8 56 a9 01 00       	call   1d4d0 <realloc@@GLIBC_2.2.5+0x35a0>
    2b7a:	85 c0                	test   eax,eax
    2b7c:	0f 85 e2 ee ff ff    	jne    1a64 <free@plt+0xfb4>
    2b82:	49 83 c7 0c          	add    r15,0xc
    2b86:	4c 89 3d d3 31 22 00 	mov    QWORD PTR [rip+0x2231d3],r15        # 225d60 <_rtld_global_ro@@GLIBC_PRIVATE+0xc0>
    2b8d:	e9 d2 ee ff ff       	jmp    1a64 <free@plt+0xfb4>
    2b92:	66 0f 1f 44 00 00    	nop    WORD PTR [rax+rax*1+0x0]
    2b98:	48 8d 35 c0 c8 01 00 	lea    rsi,[rip+0x1c8c0]        # 1f45f <realloc@@GLIBC_2.2.5+0x552f>
    2b9f:	ba 08 00 00 00       	mov    edx,0x8
    2ba4:	4c 89 ff             	mov    rdi,r15
    2ba7:	e8 24 a9 01 00       	call   1d4d0 <realloc@@GLIBC_2.2.5+0x35a0>
    2bac:	85 c0                	test   eax,eax
    2bae:	0f 85 d1 02 00 00    	jne    2e85 <free@plt+0x23d5>
    2bb4:	31 c0                	xor    eax,eax
    2bb6:	41 80 7f 09 00       	cmp    BYTE PTR [r15+0x9],0x0
    2bbb:	0f 94 c0             	sete   al
    2bbe:	89 05 20 31 22 00    	mov    DWORD PTR [rip+0x223120],eax        # 225ce4 <_rtld_global_ro@@GLIBC_PRIVATE+0x44>
    2bc4:	e9 9b ee ff ff       	jmp    1a64 <free@plt+0xfb4>
    2bc9:	0f 1f 80 00 00 00 00 	nop    DWORD PTR [rax+0x0]
    2bd0:	48 8d 35 78 c8 01 00 	lea    rsi,[rip+0x1c878]        # 1f44f <realloc@@GLIBC_2.2.5+0x551f>
    2bd7:	ba 07 00 00 00       	mov    edx,0x7
    2bdc:	4c 89 ff             	mov    rdi,r15
    2bdf:	e8 ec a8 01 00       	call   1d4d0 <realloc@@GLIBC_2.2.5+0x35a0>
    2be4:	85 c0                	test   eax,eax
    2be6:	0f 85 6d 02 00 00    	jne    2e59 <free@plt+0x23a9>
    2bec:	31 c0                	xor    eax,eax
    2bee:	41 80 7f 08 00       	cmp    BYTE PTR [r15+0x8],0x0
    2bf3:	0f 95 c0             	setne  al
    2bf6:	89 05 c8 2f 22 00    	mov    DWORD PTR [rip+0x222fc8],eax        # 225bc4 <realloc@@GLIBC_2.2.5+0x20bc94>
    2bfc:	e9 63 ee ff ff       	jmp    1a64 <free@plt+0xfb4>
    2c01:	0f 1f 80 00 00 00 00 	nop    DWORD PTR [rax+0x0]
    2c08:	48 8d 35 34 c8 01 00 	lea    rsi,[rip+0x1c834]        # 1f443 <realloc@@GLIBC_2.2.5+0x5513>
    2c0f:	ba 05 00 00 00       	mov    edx,0x5
    2c14:	4c 89 ff             	mov    rdi,r15
    2c17:	e8 b4 a8 01 00       	call   1d4d0 <realloc@@GLIBC_2.2.5+0x35a0>
    2c1c:	85 c0                	test   eax,eax
    2c1e:	0f 84 7d 1d 00 00    	je     49a1 <free@plt+0x3ef1>
    2c24:	48 8d 35 1e c8 01 00 	lea    rsi,[rip+0x1c81e]        # 1f449 <realloc@@GLIBC_2.2.5+0x5519>
    2c2b:	ba 05 00 00 00       	mov    edx,0x5
    2c30:	4c 89 ff             	mov    rdi,r15
    2c33:	e8 98 a8 01 00       	call   1d4d0 <realloc@@GLIBC_2.2.5+0x35a0>
    2c38:	85 c0                	test   eax,eax
    2c3a:	0f 85 24 ee ff ff    	jne    1a64 <free@plt+0xfb4>
    2c40:	49 83 c7 06          	add    r15,0x6
    2c44:	4c 89 7d 90          	mov    QWORD PTR [rbp-0x70],r15
    2c48:	48 8b bd 48 ff ff ff 	mov    rdi,QWORD PTR [rbp-0xb8]
    2c4f:	48 8d 35 4a ca 01 00 	lea    rsi,[rip+0x1ca4a]        # 1f6a0 <realloc@@GLIBC_2.2.5+0x5770>
    2c56:	e8 05 76 01 00       	call   1a260 <realloc@@GLIBC_2.2.5+0x330>
    2c5b:	48 85 c0             	test   rax,rax
    2c5e:	49 89 c7             	mov    r15,rax
    2c61:	0f 84 fd ed ff ff    	je     1a64 <free@plt+0xfb4>
    2c67:	41 80 3f 00          	cmp    BYTE PTR [r15],0x0
    2c6b:	74 db                	je     2c48 <free@plt+0x2198>
    2c6d:	8b 3d f5 31 22 00    	mov    edi,DWORD PTR [rip+0x2231f5]        # 225e68 <__libc_enable_secure@@GLIBC_PRIVATE>
    2c73:	85 ff                	test   edi,edi
    2c75:	75 d1                	jne    2c48 <free@plt+0x2198>
    2c77:	bf 10 00 00 00       	mov    edi,0x10
    2c7c:	e8 ff dd ff ff       	call   a80 <malloc@plt>
    2c81:	48 8b 15 b0 43 22 00 	mov    rdx,QWORD PTR [rip+0x2243b0]        # 227038 <_rtld_global@@GLIBC_PRIVATE+0xff8>
    2c88:	4c 89 38             	mov    QWORD PTR [rax],r15
    2c8b:	48 85 d2             	test   rdx,rdx
    2c8e:	0f 84 79 1d 00 00    	je     4a0d <free@plt+0x3f5d>
    2c94:	48 8b 4a 08          	mov    rcx,QWORD PTR [rdx+0x8]
    2c98:	48 89 05 99 43 22 00 	mov    QWORD PTR [rip+0x224399],rax        # 227038 <_rtld_global@@GLIBC_PRIVATE+0xff8>
    2c9f:	48 89 48 08          	mov    QWORD PTR [rax+0x8],rcx
    2ca3:	48 89 42 08          	mov    QWORD PTR [rdx+0x8],rax
    2ca7:	eb 9f                	jmp    2c48 <free@plt+0x2198>
    2ca9:	0f 1f 80 00 00 00 00 	nop    DWORD PTR [rax+0x0]
    2cb0:	48 8d 35 87 c7 01 00 	lea    rsi,[rip+0x1c787]        # 1f43e <realloc@@GLIBC_2.2.5+0x550e>
    2cb7:	ba 04 00 00 00       	mov    edx,0x4
    2cbc:	4c 89 ff             	mov    rdi,r15
    2cbf:	e8 0c a8 01 00       	call   1d4d0 <realloc@@GLIBC_2.2.5+0x35a0>
    2cc4:	85 c0                	test   eax,eax
    2cc6:	0f 85 98 ed ff ff    	jne    1a64 <free@plt+0xfb4>
    2ccc:	31 c0                	xor    eax,eax
    2cce:	41 80 7f 05 00       	cmp    BYTE PTR [r15+0x5],0x0
    2cd3:	0f 95 c0             	setne  al
    2cd6:	89 05 00 30 22 00    	mov    DWORD PTR [rip+0x223000],eax        # 225cdc <_rtld_global_ro@@GLIBC_PRIVATE+0x3c>
    2cdc:	e9 83 ed ff ff       	jmp    1a64 <free@plt+0xfb4>
    2ce1:	0f 1f 80 00 00 00 00 	nop    DWORD PTR [rax+0x0]
    2ce8:	48 8d 35 8c c7 01 00 	lea    rsi,[rip+0x1c78c]        # 1f47b <realloc@@GLIBC_2.2.5+0x554b>
    2cef:	ba 0a 00 00 00       	mov    edx,0xa
    2cf4:	4c 89 ff             	mov    rdi,r15
    2cf7:	e8 d4 a7 01 00       	call   1d4d0 <realloc@@GLIBC_2.2.5+0x35a0>
    2cfc:	85 c0                	test   eax,eax
    2cfe:	0f 85 60 ed ff ff    	jne    1a64 <free@plt+0xfb4>
    2d04:	49 8d 7f 0b          	lea    rdi,[r15+0xb]
    2d08:	31 c9                	xor    ecx,ecx
    2d0a:	31 d2                	xor    edx,edx
    2d0c:	31 f6                	xor    esi,esi
    2d0e:	e8 1d 73 01 00       	call   1a030 <realloc@@GLIBC_2.2.5+0x100>
    2d13:	48 89 05 e6 2f 22 00 	mov    QWORD PTR [rip+0x222fe6],rax        # 225d00 <_rtld_global_ro@@GLIBC_PRIVATE+0x60>
    2d1a:	e9 45 ed ff ff       	jmp    1a64 <free@plt+0xfb4>
    2d1f:	90                   	nop
    2d20:	8b 35 42 31 22 00    	mov    esi,DWORD PTR [rip+0x223142]        # 225e68 <__libc_enable_secure@@GLIBC_PRIVATE>
    2d26:	85 f6                	test   esi,esi
    2d28:	0f 85 36 ed ff ff    	jne    1a64 <free@plt+0xfb4>
    2d2e:	48 8d 35 3c c7 01 00 	lea    rsi,[rip+0x1c73c]        # 1f471 <realloc@@GLIBC_2.2.5+0x5541>
    2d35:	ba 09 00 00 00       	mov    edx,0x9
    2d3a:	4c 89 ff             	mov    rdi,r15
    2d3d:	e8 8e a7 01 00       	call   1d4d0 <realloc@@GLIBC_2.2.5+0x35a0>
    2d42:	85 c0                	test   eax,eax
    2d44:	0f 85 1a ed ff ff    	jne    1a64 <free@plt+0xfb4>
    2d4a:	e8 a1 6a 01 00       	call   197f0 <__get_cpu_features@@GLIBC_PRIVATE+0x7c0>
    2d4f:	e9 10 ed ff ff       	jmp    1a64 <free@plt+0xfb4>
    2d54:	4c 8d 3d 25 bc 01 00 	lea    r15,[rip+0x1bc25]        # 1e980 <realloc@@GLIBC_2.2.5+0x4a50>
    2d5b:	4c 89 ff             	mov    rdi,r15
    2d5e:	e8 5d 6e 01 00       	call   19bc0 <__get_cpu_features@@GLIBC_PRIVATE+0xb90>
    2d63:	31 f6                	xor    esi,esi
    2d65:	4c 89 ff             	mov    rdi,r15
    2d68:	e8 a3 89 01 00       	call   1b710 <realloc@@GLIBC_2.2.5+0x17e0>
    2d6d:	80 78 01 00          	cmp    BYTE PTR [rax+0x1],0x0
    2d71:	4c 8d 78 01          	lea    r15,[rax+0x1]
    2d75:	75 e4                	jne    2d5b <free@plt+0x22ab>
    2d77:	48 8d 3d 95 c7 01 00 	lea    rdi,[rip+0x1c795]        # 1f513 <realloc@@GLIBC_2.2.5+0x55e3>
    2d7e:	31 f6                	xor    esi,esi
    2d80:	e8 2b 84 01 00       	call   1b1b0 <realloc@@GLIBC_2.2.5+0x1280>
    2d85:	85 c0                	test   eax,eax
    2d87:	74 16                	je     2d9f <free@plt+0x22ef>
    2d89:	48 8d 3d 93 c7 01 00 	lea    rdi,[rip+0x1c793]        # 1f523 <realloc@@GLIBC_2.2.5+0x55f3>
    2d90:	e8 2b 6e 01 00       	call   19bc0 <__get_cpu_features@@GLIBC_PRIVATE+0xb90>
    2d95:	c7 05 01 2f 22 00 00 	mov    DWORD PTR [rip+0x222f01],0x0        # 225ca0 <_rtld_global_ro@@GLIBC_PRIVATE>
    2d9c:	00 00 00 
    2d9f:	8b 85 68 ff ff ff    	mov    eax,DWORD PTR [rbp-0x98]
    2da5:	85 c0                	test   eax,eax
    2da7:	0f 84 f6 ed ff ff    	je     1ba3 <free@plt+0x10f3>
    2dad:	bf 05 00 00 00       	mov    edi,0x5
    2db2:	e8 e9 85 01 00       	call   1b3a0 <realloc@@GLIBC_2.2.5+0x1470>
    2db7:	e9 e7 ed ff ff       	jmp    1ba3 <free@plt+0x10f3>
    2dbc:	48 8d 35 cf c6 01 00 	lea    rsi,[rip+0x1c6cf]        # 1f492 <realloc@@GLIBC_2.2.5+0x5562>
    2dc3:	ba 0c 00 00 00       	mov    edx,0xc
    2dc8:	4c 89 ff             	mov    rdi,r15
    2dcb:	e8 00 a7 01 00       	call   1d4d0 <realloc@@GLIBC_2.2.5+0x35a0>
    2dd0:	85 c0                	test   eax,eax
    2dd2:	75 09                	jne    2ddd <free@plt+0x232d>
    2dd4:	49 8d 5f 0d          	lea    rbx,[r15+0xd]
    2dd8:	e9 87 ec ff ff       	jmp    1a64 <free@plt+0xfb4>
    2ddd:	8b 15 85 30 22 00    	mov    edx,DWORD PTR [rip+0x223085]        # 225e68 <__libc_enable_secure@@GLIBC_PRIVATE>
    2de3:	85 d2                	test   edx,edx
    2de5:	0f 85 79 ec ff ff    	jne    1a64 <free@plt+0xfb4>
    2deb:	48 8d 35 ad c6 01 00 	lea    rsi,[rip+0x1c6ad]        # 1f49f <realloc@@GLIBC_2.2.5+0x556f>
    2df2:	ba 0c 00 00 00       	mov    edx,0xc
    2df7:	4c 89 ff             	mov    rdi,r15
    2dfa:	e8 d1 a6 01 00       	call   1d4d0 <realloc@@GLIBC_2.2.5+0x35a0>
    2dff:	85 c0                	test   eax,eax
    2e01:	0f 85 5d ec ff ff    	jne    1a64 <free@plt+0xfb4>
    2e07:	c7 05 db 2e 22 00 01 	mov    DWORD PTR [rip+0x222edb],0x1        # 225cec <_rtld_global_ro@@GLIBC_PRIVATE+0x4c>
    2e0e:	00 00 00 
    2e11:	e9 4e ec ff ff       	jmp    1a64 <free@plt+0xfb4>
    2e16:	8b 05 4c 30 22 00    	mov    eax,DWORD PTR [rip+0x22304c]        # 225e68 <__libc_enable_secure@@GLIBC_PRIVATE>
    2e1c:	85 c0                	test   eax,eax
    2e1e:	0f 85 40 ec ff ff    	jne    1a64 <free@plt+0xfb4>
    2e24:	48 8d 35 8f c6 01 00 	lea    rsi,[rip+0x1c68f]        # 1f4ba <realloc@@GLIBC_2.2.5+0x558a>
    2e2b:	ba 0d 00 00 00       	mov    edx,0xd
    2e30:	4c 89 ff             	mov    rdi,r15
    2e33:	e8 98 a6 01 00       	call   1d4d0 <realloc@@GLIBC_2.2.5+0x35a0>
    2e38:	85 c0                	test   eax,eax
    2e3a:	0f 85 24 ec ff ff    	jne    1a64 <free@plt+0xfb4>
    2e40:	31 c0                	xor    eax,eax
    2e42:	41 80 7f 0e 31       	cmp    BYTE PTR [r15+0xe],0x31
    2e47:	0f 94 c0             	sete   al
    2e4a:	48 f7 d8             	neg    rax
    2e4d:	48 89 05 14 2f 22 00 	mov    QWORD PTR [rip+0x222f14],rax        # 225d68 <_rtld_global_ro@@GLIBC_PRIVATE+0xc8>
    2e54:	e9 0b ec ff ff       	jmp    1a64 <free@plt+0xfb4>
    2e59:	48 8d 35 37 c8 01 00 	lea    rsi,[rip+0x1c837]        # 1f697 <realloc@@GLIBC_2.2.5+0x5767>
    2e60:	ba 07 00 00 00       	mov    edx,0x7
    2e65:	4c 89 ff             	mov    rdi,r15
    2e68:	e8 63 a6 01 00       	call   1d4d0 <realloc@@GLIBC_2.2.5+0x35a0>
    2e6d:	85 c0                	test   eax,eax
    2e6f:	0f 85 61 1b 00 00    	jne    49d6 <free@plt+0x3f26>
    2e75:	49 83 c7 08          	add    r15,0x8
    2e79:	4c 89 3d 48 2d 22 00 	mov    QWORD PTR [rip+0x222d48],r15        # 225bc8 <realloc@@GLIBC_2.2.5+0x20bc98>
    2e80:	e9 df eb ff ff       	jmp    1a64 <free@plt+0xfb4>
    2e85:	48 8d 35 dc c5 01 00 	lea    rsi,[rip+0x1c5dc]        # 1f468 <realloc@@GLIBC_2.2.5+0x5538>
    2e8c:	ba 08 00 00 00       	mov    edx,0x8
    2e91:	4c 89 ff             	mov    rdi,r15
    2e94:	e8 37 a6 01 00       	call   1d4d0 <realloc@@GLIBC_2.2.5+0x35a0>
    2e99:	85 c0                	test   eax,eax
    2e9b:	0f 85 c3 eb ff ff    	jne    1a64 <free@plt+0xfb4>
    2ea1:	31 c0                	xor    eax,eax
    2ea3:	41 80 7f 09 00       	cmp    BYTE PTR [r15+0x9],0x0
    2ea8:	0f 95 c0             	setne  al
    2eab:	89 05 37 2e 22 00    	mov    DWORD PTR [rip+0x222e37],eax        # 225ce8 <_rtld_global_ro@@GLIBC_PRIVATE+0x48>
    2eb1:	e9 ae eb ff ff       	jmp    1a64 <free@plt+0xfb4>
    2eb6:	89 c6                	mov    esi,eax
    2eb8:	81 e6 16 f7 ff ff    	and    esi,0xfffff716
    2ebe:	0f 84 52 f7 ff ff    	je     2616 <free@plt+0x1b66>
    2ec4:	48 8d 3d 55 dc 01 00 	lea    rdi,[rip+0x1dc55]        # 20b20 <realloc@@GLIBC_2.2.5+0x6bf0>
    2ecb:	31 c0                	xor    eax,eax
    2ecd:	e8 de e6 00 00       	call   115b0 <_dl_debug_state@@GLIBC_PRIVATE+0x720>
    2ed2:	41 8b 94 24 d4 03 00 	mov    edx,DWORD PTR [r12+0x3d4]
    2ed9:	00 
    2eda:	e9 37 f7 ff ff       	jmp    2616 <free@plt+0x1b66>
    2edf:	48 8d 0d 3a f4 01 00 	lea    rcx,[rip+0x1f43a]        # 22320 <realloc@@GLIBC_2.2.5+0x83f0>
    2ee6:	48 8d 35 ed c6 01 00 	lea    rsi,[rip+0x1c6ed]        # 1f5da <realloc@@GLIBC_2.2.5+0x56aa>
    2eed:	48 8d 3d f4 db 01 00 	lea    rdi,[rip+0x1dbf4]        # 20ae8 <realloc@@GLIBC_2.2.5+0x6bb8>
    2ef4:	ba 81 00 00 00       	mov    edx,0x81
    2ef9:	e8 e2 6f 01 00       	call   19ee0 <free@@GLIBC_2.2.5+0x160>
    2efe:	48 8d 0d 1b f4 01 00 	lea    rcx,[rip+0x1f41b]        # 22320 <realloc@@GLIBC_2.2.5+0x83f0>
    2f05:	48 8d 35 ce c6 01 00 	lea    rsi,[rip+0x1c6ce]        # 1f5da <realloc@@GLIBC_2.2.5+0x56aa>
    2f0c:	48 8d 3d ad db 01 00 	lea    rdi,[rip+0x1dbad]        # 20ac0 <realloc@@GLIBC_2.2.5+0x6b90>
    2f13:	ba 79 00 00 00       	mov    edx,0x79
    2f18:	e8 c3 6f 01 00       	call   19ee0 <free@@GLIBC_2.2.5+0x160>
    2f1d:	41 bb 60 00 00 00    	mov    r11d,0x60
    2f23:	41 ba 50 00 00 00    	mov    r10d,0x50
    2f29:	41 b8 40 00 00 00    	mov    r8d,0x40
    2f2f:	bf 30 00 00 00       	mov    edi,0x30
    2f34:	be 20 00 00 00       	mov    esi,0x20
    2f39:	b9 10 00 00 00       	mov    ecx,0x10
    2f3e:	31 d2                	xor    edx,edx
    2f40:	e9 c2 f4 ff ff       	jmp    2407 <free@plt+0x1957>
    2f45:	48 8d 0d d4 df 01 00 	lea    rcx,[rip+0x1dfd4]        # 20f20 <realloc@@GLIBC_2.2.5+0x6ff0>
    2f4c:	48 8d 35 9a c6 01 00 	lea    rsi,[rip+0x1c69a]        # 1f5ed <realloc@@GLIBC_2.2.5+0x56bd>
    2f53:	48 8d 3d a0 c6 01 00 	lea    rdi,[rip+0x1c6a0]        # 1f5fa <realloc@@GLIBC_2.2.5+0x56ca>
    2f5a:	ba 3d 00 00 00       	mov    edx,0x3d
    2f5f:	e8 7c 6f 01 00       	call   19ee0 <free@@GLIBC_2.2.5+0x160>
    2f64:	41 bc 01 00 00 00    	mov    r12d,0x1
    2f6a:	e9 71 ef ff ff       	jmp    1ee0 <free@plt+0x1430>
    2f6f:	48 8d 05 7a 3a 22 00 	lea    rax,[rip+0x223a7a]        # 2269f0 <_rtld_global@@GLIBC_PRIVATE+0x9b0>
    2f76:	48 89 85 48 ff ff ff 	mov    QWORD PTR [rbp-0xb8],rax
    2f7d:	e9 99 f7 ff ff       	jmp    271b <free@plt+0x1c6b>
    2f82:	48 83 7b 10 00       	cmp    QWORD PTR [rbx+0x10],0x0
    2f87:	75 0a                	jne    2f93 <free@plt+0x24e3>
    2f89:	bf 01 00 00 00       	mov    edi,0x1
    2f8e:	e8 0d 84 01 00       	call   1b3a0 <realloc@@GLIBC_2.2.5+0x1470>
    2f93:	41 80 fc 01          	cmp    r12b,0x1
    2f97:	19 ff                	sbb    edi,edi
    2f99:	83 e7 02             	and    edi,0x2
    2f9c:	e8 ff 83 01 00       	call   1b3a0 <realloc@@GLIBC_2.2.5+0x1470>
    2fa1:	e9 81 f2 ff ff       	jmp    2227 <free@plt+0x1777>
    2fa6:	48 8d 0d 83 df 01 00 	lea    rcx,[rip+0x1df83]        # 20f30 <realloc@@GLIBC_2.2.5+0x7000>
    2fad:	48 8d 35 46 c4 01 00 	lea    rsi,[rip+0x1c446]        # 1f3fa <realloc@@GLIBC_2.2.5+0x54ca>
    2fb4:	48 8d 3d 03 c6 01 00 	lea    rdi,[rip+0x1c603]        # 1f5be <realloc@@GLIBC_2.2.5+0x568e>
    2fbb:	ba 87 04 00 00       	mov    edx,0x487
    2fc0:	e8 1b 6f 01 00       	call   19ee0 <free@@GLIBC_2.2.5+0x160>
    2fc5:	48 8d 0d 64 df 01 00 	lea    rcx,[rip+0x1df64]        # 20f30 <realloc@@GLIBC_2.2.5+0x7000>
    2fcc:	48 8d 35 27 c4 01 00 	lea    rsi,[rip+0x1c427]        # 1f3fa <realloc@@GLIBC_2.2.5+0x54ca>
    2fd3:	48 8d 3d be da 01 00 	lea    rdi,[rip+0x1dabe]        # 20a98 <realloc@@GLIBC_2.2.5+0x6b68>
    2fda:	ba 82 04 00 00       	mov    edx,0x482
    2fdf:	e8 fc 6e 01 00       	call   19ee0 <free@@GLIBC_2.2.5+0x160>
    2fe4:	48 8b 05 f5 39 22 00 	mov    rax,QWORD PTR [rip+0x2239f5]        # 2269e0 <_rtld_global@@GLIBC_PRIVATE+0x9a0>
    2feb:	48 85 c0             	test   rax,rax
    2fee:	74 3c                	je     302c <free@plt+0x257c>
    2ff0:	48 89 05 29 40 22 00 	mov    QWORD PTR [rip+0x224029],rax        # 227020 <_rtld_global@@GLIBC_PRIVATE+0xfe0>
    2ff7:	48 8d 05 22 40 22 00 	lea    rax,[rip+0x224022]        # 227020 <_rtld_global@@GLIBC_PRIVATE+0xfe0>
    2ffe:	48 89 05 0b 3a 22 00 	mov    QWORD PTR [rip+0x223a0b],rax        # 226a10 <_rtld_global@@GLIBC_PRIVATE+0x9d0>
    3005:	49 89 c6             	mov    r14,rax
    3008:	e9 c5 ef ff ff       	jmp    1fd2 <free@plt+0x1522>
    300d:	48 8b 83 18 04 00 00 	mov    rax,QWORD PTR [rbx+0x418]
    3014:	31 d2                	xor    edx,edx
    3016:	45 31 e4             	xor    r12d,r12d
    3019:	48 85 c0             	test   rax,rax
    301c:	0f 84 85 ef ff ff    	je     1fa7 <free@plt+0x14f7>
    3022:	31 c9                	xor    ecx,ecx
    3024:	45 31 e4             	xor    r12d,r12d
    3027:	e9 6c ef ff ff       	jmp    1f98 <free@plt+0x14e8>
    302c:	48 8d 0d fd de 01 00 	lea    rcx,[rip+0x1defd]        # 20f30 <realloc@@GLIBC_2.2.5+0x7000>
    3033:	48 8d 35 c0 c3 01 00 	lea    rsi,[rip+0x1c3c0]        # 1f3fa <realloc@@GLIBC_2.2.5+0x54ca>
    303a:	48 8d 3d 63 c5 01 00 	lea    rdi,[rip+0x1c563]        # 1f5a4 <realloc@@GLIBC_2.2.5+0x5674>
    3041:	ba 73 04 00 00       	mov    edx,0x473
    3046:	e8 95 6e 01 00       	call   19ee0 <free@@GLIBC_2.2.5+0x160>
    304b:	48 8d 0d de de 01 00 	lea    rcx,[rip+0x1dede]        # 20f30 <realloc@@GLIBC_2.2.5+0x7000>
    3052:	48 8d 35 a1 c3 01 00 	lea    rsi,[rip+0x1c3a1]        # 1f3fa <realloc@@GLIBC_2.2.5+0x54ca>
    3059:	48 8d 3d 08 da 01 00 	lea    rdi,[rip+0x1da08]        # 20a68 <realloc@@GLIBC_2.2.5+0x6b38>
    3060:	ba df 03 00 00       	mov    edx,0x3df
    3065:	e8 76 6e 01 00       	call   19ee0 <free@@GLIBC_2.2.5+0x160>
    306a:	48 8d 0d bf de 01 00 	lea    rcx,[rip+0x1debf]        # 20f30 <realloc@@GLIBC_2.2.5+0x7000>
    3071:	48 8d 35 82 c3 01 00 	lea    rsi,[rip+0x1c382]        # 1f3fa <realloc@@GLIBC_2.2.5+0x54ca>
    3078:	48 8d 3d 14 c5 01 00 	lea    rdi,[rip+0x1c514]        # 1f593 <realloc@@GLIBC_2.2.5+0x5663>
    307f:	ba d7 03 00 00       	mov    edx,0x3d7
    3084:	e8 57 6e 01 00       	call   19ee0 <free@@GLIBC_2.2.5+0x160>
    3089:	b8 01 00 00 00       	mov    eax,0x1
    308e:	89 05 f4 2b 22 00    	mov    DWORD PTR [rip+0x222bf4],eax        # 225c88 <_dl_argv@@GLIBC_PRIVATE+0x8>
    3094:	8b 85 58 ff ff ff    	mov    eax,DWORD PTR [rbp-0xa8]
    309a:	48 83 c2 08          	add    rdx,0x8
    309e:	48 89 15 db 2b 22 00 	mov    QWORD PTR [rip+0x222bdb],rdx        # 225c80 <_dl_argv@@GLIBC_PRIVATE>
    30a5:	83 05 cc 2b 22 00 01 	add    DWORD PTR [rip+0x222bcc],0x1        # 225c78 <realloc@@GLIBC_2.2.5+0x20bd48>
    30ac:	48 8d 14 c5 00 00 00 	lea    rdx,[rax*8+0x0]
    30b3:	00 
    30b4:	48 c1 e0 06          	shl    rax,0x6
    30b8:	48 29 d0             	sub    rax,rdx
    30bb:	4c 01 f0             	add    rax,r14
    30be:	49 39 c6             	cmp    r14,rax
    30c1:	72 0e                	jb     30d1 <free@plt+0x2621>
    30c3:	eb 1f                	jmp    30e4 <free@plt+0x2634>
    30c5:	0f 1f 00             	nop    DWORD PTR [rax]
    30c8:	49 83 c6 38          	add    r14,0x38
    30cc:	49 39 c6             	cmp    r14,rax
    30cf:	73 13                	jae    30e4 <free@plt+0x2634>
    30d1:	41 81 3e 51 e5 74 64 	cmp    DWORD PTR [r14],0x6474e551
    30d8:	75 ee                	jne    30c8 <free@plt+0x2618>
    30da:	41 8b 46 04          	mov    eax,DWORD PTR [r14+0x4]
    30de:	89 05 7c 3e 22 00    	mov    DWORD PTR [rip+0x223e7c],eax        # 226f60 <_rtld_global@@GLIBC_PRIVATE+0xf20>
    30e4:	83 bd 68 ff ff ff 02 	cmp    DWORD PTR [rbp-0x98],0x2
    30eb:	0f 84 50 01 00 00    	je     3241 <free@plt+0x2791>
    30f1:	0f 31                	rdtsc
    30f3:	48 c1 e2 20          	shl    rdx,0x20
    30f7:	89 c0                	mov    eax,eax
    30f9:	45 31 c9             	xor    r9d,r9d
    30fc:	48 09 c2             	or     rdx,rax
    30ff:	41 b8 00 00 00 20    	mov    r8d,0x20000000
    3105:	31 c9                	xor    ecx,ecx
    3107:	49 89 d6             	mov    r14,rdx
    310a:	4c 89 d6             	mov    rsi,r10
    310d:	31 d2                	xor    edx,edx
    310f:	31 ff                	xor    edi,edi
    3111:	e8 fa 56 00 00       	call   8810 <free@plt+0x7d60>
    3116:	0f 31                	rdtsc
    3118:	48 c1 e2 20          	shl    rdx,0x20
    311c:	89 c0                	mov    eax,eax
    311e:	48 8b 1d 1b 2f 22 00 	mov    rbx,QWORD PTR [rip+0x222f1b]        # 226040 <_rtld_global@@GLIBC_PRIVATE>
    3125:	48 09 d0             	or     rax,rdx
    3128:	4c 29 f0             	sub    rax,r14
    312b:	44 8b b5 68 ff ff ff 	mov    r14d,DWORD PTR [rbp-0x98]
    3132:	48 89 05 2f 2b 22 00 	mov    QWORD PTR [rip+0x222b2f],rax        # 225c68 <realloc@@GLIBC_2.2.5+0x20bd38>
    3139:	45 85 f6             	test   r14d,r14d
    313c:	75 40                	jne    317e <free@plt+0x26ce>
    313e:	48 8b 05 43 39 22 00 	mov    rax,QWORD PTR [rip+0x223943]        # 226a88 <_rtld_global@@GLIBC_PRIVATE+0xa48>
    3145:	48 85 c0             	test   rax,rax
    3148:	74 34                	je     317e <free@plt+0x26ce>
    314a:	48 8b 93 b0 00 00 00 	mov    rdx,QWORD PTR [rbx+0xb0]
    3151:	48 85 d2             	test   rdx,rdx
    3154:	74 28                	je     317e <free@plt+0x26ce>
    3156:	48 8b 4b 68          	mov    rcx,QWORD PTR [rbx+0x68]
    315a:	48 8b 78 08          	mov    rdi,QWORD PTR [rax+0x8]
    315e:	48 8b 05 db 38 22 00 	mov    rax,QWORD PTR [rip+0x2238db]        # 226a40 <_rtld_global@@GLIBC_PRIVATE+0xa00>
    3165:	48 8b 72 08          	mov    rsi,QWORD PTR [rdx+0x8]
    3169:	48 03 71 08          	add    rsi,QWORD PTR [rcx+0x8]
    316d:	48 03 78 08          	add    rdi,QWORD PTR [rax+0x8]
    3171:	e8 ba 87 01 00       	call   1b930 <realloc@@GLIBC_2.2.5+0x1a00>
    3176:	85 c0                	test   eax,eax
    3178:	0f 84 92 00 00 00    	je     3210 <free@plt+0x2760>
    317e:	0f b7 83 b0 02 00 00 	movzx  eax,WORD PTR [rbx+0x2b0]
    3185:	4c 8b b3 a0 02 00 00 	mov    r14,QWORD PTR [rbx+0x2a0]
    318c:	48 89 c2             	mov    rdx,rax
    318f:	89 85 58 ff ff ff    	mov    DWORD PTR [rbp-0xa8],eax
    3195:	48 8d 05 0a c5 01 00 	lea    rax,[rip+0x1c50a]        # 1f6a6 <realloc@@GLIBC_2.2.5+0x5776>
    319c:	48 89 43 08          	mov    QWORD PTR [rbx+0x8],rax
    31a0:	48 8b 83 a8 02 00 00 	mov    rax,QWORD PTR [rbx+0x2a8]
    31a7:	49 89 45 00          	mov    QWORD PTR [r13+0x0],rax
    31ab:	49 8b 04 24          	mov    rax,QWORD PTR [r12]
    31af:	48 85 c0             	test   rax,rax
    31b2:	74 4a                	je     31fe <free@plt+0x274e>
    31b4:	48 8b 0d c5 2a 22 00 	mov    rcx,QWORD PTR [rip+0x222ac5]        # 225c80 <_dl_argv@@GLIBC_PRIVATE>
    31bb:	eb 21                	jmp    31de <free@plt+0x272e>
    31bd:	48 83 f8 09          	cmp    rax,0x9
    31c1:	74 6c                	je     322f <free@plt+0x277f>
    31c3:	48 83 f8 1f          	cmp    rax,0x1f
    31c7:	75 08                	jne    31d1 <free@plt+0x2721>
    31c9:	48 8b 01             	mov    rax,QWORD PTR [rcx]
    31cc:	49 89 44 24 08       	mov    QWORD PTR [r12+0x8],rax
    31d1:	49 83 c4 10          	add    r12,0x10
    31d5:	49 8b 04 24          	mov    rax,QWORD PTR [r12]
    31d9:	48 85 c0             	test   rax,rax
    31dc:	74 20                	je     31fe <free@plt+0x274e>
    31de:	48 83 f8 05          	cmp    rax,0x5
    31e2:	74 56                	je     323a <free@plt+0x278a>
    31e4:	77 d7                	ja     31bd <free@plt+0x270d>
    31e6:	48 83 f8 03          	cmp    rax,0x3
    31ea:	75 e5                	jne    31d1 <free@plt+0x2721>
    31ec:	4d 89 74 24 08       	mov    QWORD PTR [r12+0x8],r14
    31f1:	49 83 c4 10          	add    r12,0x10
    31f5:	49 8b 04 24          	mov    rax,QWORD PTR [r12]
    31f9:	48 85 c0             	test   rax,rax
    31fc:	75 e0                	jne    31de <free@plt+0x272e>
    31fe:	41 bd 01 00 00 00    	mov    r13d,0x1
    3204:	e9 5e ec ff ff       	jmp    1e67 <free@plt+0x13b7>
    3209:	0f 1f 80 00 00 00 00 	nop    DWORD PTR [rax+0x0]
    3210:	48 8d 35 61 c3 01 00 	lea    rsi,[rip+0x1c361]        # 1f578 <realloc@@GLIBC_2.2.5+0x5648>
    3217:	bf 02 00 00 00       	mov    edi,0x2
    321c:	31 c0                	xor    eax,eax
    321e:	e8 ed e4 00 00       	call   11710 <_dl_debug_state@@GLIBC_PRIVATE+0x880>
    3223:	bf 7f 00 00 00       	mov    edi,0x7f
    3228:	e8 73 81 01 00       	call   1b3a0 <realloc@@GLIBC_2.2.5+0x1470>
    322d:	eb e1                	jmp    3210 <free@plt+0x2760>
    322f:	49 8b 45 00          	mov    rax,QWORD PTR [r13+0x0]
    3233:	49 89 44 24 08       	mov    QWORD PTR [r12+0x8],rax
    3238:	eb 97                	jmp    31d1 <free@plt+0x2721>
    323a:	49 89 54 24 08       	mov    QWORD PTR [r12+0x8],rdx
    323f:	eb 90                	jmp    31d1 <free@plt+0x2721>
    3241:	48 8d 45 88          	lea    rax,[rbp-0x78]
    3245:	4c 8d 7d 80          	lea    r15,[rbp-0x80]
    3249:	48 8b b5 60 ff ff ff 	mov    rsi,QWORD PTR [rbp-0xa0]
    3250:	4c 8d 45 b0          	lea    r8,[rbp-0x50]
    3254:	48 8d 0d 25 dc ff ff 	lea    rcx,[rip+0xffffffffffffdc25]        # e80 <free@plt+0x3d0>
    325b:	48 c7 45 a0 00 00 00 	mov    QWORD PTR [rbp-0x60],0x0
    3262:	00 
    3263:	4c 89 fa             	mov    rdx,r15
    3266:	48 89 c7             	mov    rdi,rax
    3269:	4c 89 55 b0          	mov    QWORD PTR [rbp-0x50],r10
    326d:	48 c7 45 b8 00 00 00 	mov    QWORD PTR [rbp-0x48],0x0
    3274:	00 
    3275:	c7 45 c0 00 00 00 20 	mov    DWORD PTR [rbp-0x40],0x20000000
    327c:	e8 9f d0 00 00       	call   10320 <_dl_rtld_di_serinfo@@GLIBC_PRIVATE+0x6ea0>
    3281:	48 83 7d a0 00       	cmp    QWORD PTR [rbp-0x60],0x0
    3286:	74 0a                	je     3292 <free@plt+0x27e2>
    3288:	bf 01 00 00 00       	mov    edi,0x1
    328d:	e8 0e 81 01 00       	call   1b3a0 <realloc@@GLIBC_2.2.5+0x1470>
    3292:	48 8b 1d a7 2d 22 00 	mov    rbx,QWORD PTR [rip+0x222da7]        # 226040 <_rtld_global@@GLIBC_PRIVATE>
    3299:	e9 e0 fe ff ff       	jmp    317e <free@plt+0x26ce>
    329e:	83 e8 01             	sub    eax,0x1
    32a1:	e9 e8 fd ff ff       	jmp    308e <free@plt+0x25de>
    32a6:	0f b6 32             	movzx  esi,BYTE PTR [rdx]
    32a9:	44 8b 85 38 ff ff ff 	mov    r8d,DWORD PTR [rbp-0xc8]
    32b0:	40 84 f6             	test   sil,sil
    32b3:	74 0a                	je     32bf <free@plt+0x280f>
    32b5:	40 80 fe 2e          	cmp    sil,0x2e
    32b9:	0f 85 a5 e7 ff ff    	jne    1a64 <free@plt+0xfb4>
    32bf:	44 89 c1             	mov    ecx,r8d
    32c2:	48 d3 e0             	shl    rax,cl
    32c5:	49 09 c7             	or     r15,rax
    32c8:	40 84 f6             	test   sil,sil
    32cb:	0f 84 3f f8 ff ff    	je     2b10 <free@plt+0x2060>
    32d1:	41 83 e8 08          	sub    r8d,0x8
    32d5:	49 83 c1 01          	add    r9,0x1
    32d9:	4c 8d 52 01          	lea    r10,[rdx+0x1]
    32dd:	41 83 f8 f8          	cmp    r8d,0xfffffff8
    32e1:	0f 85 cd f7 ff ff    	jne    2ab4 <free@plt+0x2004>
    32e7:	e9 24 f8 ff ff       	jmp    2b10 <free@plt+0x2060>
    32ec:	48 8b 3d dd 28 22 00 	mov    rdi,QWORD PTR [rip+0x2228dd]        # 225bd0 <realloc@@GLIBC_2.2.5+0x20bca0>
    32f3:	e8 f8 4f 00 00       	call   82f0 <free@plt+0x7840>
    32f8:	48 8b 3d d9 36 22 00 	mov    rdi,QWORD PTR [rip+0x2236d9]        # 2269d8 <_rtld_global@@GLIBC_PRIVATE+0x998>
    32ff:	31 f6                	xor    esi,esi
    3301:	e8 9a db 00 00       	call   10ea0 <_dl_debug_state@@GLIBC_PRIVATE+0x10>
    3306:	48 83 3d d2 36 22 00 	cmp    QWORD PTR [rip+0x2236d2],0x0        # 2269e0 <_rtld_global@@GLIBC_PRIVATE+0x9a0>
    330d:	00 
    330e:	49 89 c6             	mov    r14,rax
    3311:	c7 40 18 00 00 00 00 	mov    DWORD PTR [rax+0x18],0x0
    3318:	75 11                	jne    332b <free@plt+0x287b>
    331a:	48 8b 05 ef 36 22 00 	mov    rax,QWORD PTR [rip+0x2236ef]        # 226a10 <_rtld_global@@GLIBC_PRIVATE+0x9d0>
    3321:	48 8b 00             	mov    rax,QWORD PTR [rax]
    3324:	48 89 05 b5 36 22 00 	mov    QWORD PTR [rip+0x2236b5],rax        # 2269e0 <_rtld_global@@GLIBC_PRIVATE+0x9a0>
    332b:	0f b6 05 ba 39 22 00 	movzx  eax,BYTE PTR [rip+0x2239ba]        # 226cec <_rtld_global@@GLIBC_PRIVATE+0xcac>
    3332:	83 05 0f 2d 22 00 01 	add    DWORD PTR [rip+0x222d0f],0x1        # 226048 <_rtld_global@@GLIBC_PRIVATE+0x8>
    3339:	83 e0 fc             	and    eax,0xfffffffc
    333c:	83 c8 01             	or     eax,0x1
    333f:	88 05 a7 39 22 00    	mov    BYTE PTR [rip+0x2239a7],al        # 226cec <_rtld_global@@GLIBC_PRIVATE+0xcac>
    3345:	48 8d 05 8c 36 22 00 	lea    rax,[rip+0x22368c]        # 2269d8 <_rtld_global@@GLIBC_PRIVATE+0x998>
    334c:	48 89 43 18          	mov    QWORD PTR [rbx+0x18],rax
    3350:	48 83 05 40 36 22 00 	add    QWORD PTR [rip+0x223640],0x1        # 226998 <_rtld_global@@GLIBC_PRIVATE+0x958>
    3357:	01 
    3358:	48 83 3d 08 2a 22 00 	cmp    QWORD PTR [rip+0x222a08],0xfffffffffffffffe        # 225d68 <_rtld_global_ro@@GLIBC_PRIVATE+0xc8>
    335f:	fe 
    3360:	48 89 1d 91 36 22 00 	mov    QWORD PTR [rip+0x223691],rbx        # 2269f8 <_rtld_global@@GLIBC_PRIVATE+0x9b8>
    3367:	75 13                	jne    337c <free@plt+0x28cc>
    3369:	31 c0                	xor    eax,eax
    336b:	48 83 3b 00          	cmp    QWORD PTR [rbx],0x0
    336f:	0f 94 c0             	sete   al
    3372:	48 f7 d8             	neg    rax
    3375:	48 89 05 ec 29 22 00 	mov    QWORD PTR [rip+0x2229ec],rax        # 225d68 <_rtld_global_ro@@GLIBC_PRIVATE+0xc8>
    337c:	66 83 3d b0 cc ff ff 	cmp    WORD PTR [rip+0xffffffffffffccb0],0x40        # 34 <GLIBC_2.2.5@@GLIBC_2.2.5+0x34>
    3383:	40 
    3384:	0f 85 b2 16 00 00    	jne    4a3c <free@plt+0x3f8c>
    338a:	66 83 3d a4 cc ff ff 	cmp    WORD PTR [rip+0xffffffffffffcca4],0x38        # 36 <GLIBC_2.2.5@@GLIBC_2.2.5+0x36>
    3391:	38 
    3392:	0f 85 85 16 00 00    	jne    4a1d <free@plt+0x3f6d>
    3398:	0f b7 05 99 cc ff ff 	movzx  eax,WORD PTR [rip+0xffffffffffffcc99]        # 38 <GLIBC_2.2.5@@GLIBC_2.2.5+0x38>
    339f:	48 8d 15 5a cc ff ff 	lea    rdx,[rip+0xffffffffffffcc5a]        # 0 <GLIBC_2.2.5@@GLIBC_2.2.5>
    33a6:	48 03 15 73 cc ff ff 	add    rdx,QWORD PTR [rip+0xffffffffffffcc73]        # 20 <GLIBC_2.2.5@@GLIBC_2.2.5+0x20>
    33ad:	48 8d 34 c5 00 00 00 	lea    rsi,[rax*8+0x0]
    33b4:	00 
    33b5:	48 89 c1             	mov    rcx,rax
    33b8:	48 89 15 b9 38 22 00 	mov    QWORD PTR [rip+0x2238b9],rdx        # 226c78 <_rtld_global@@GLIBC_PRIVATE+0xc38>
    33bf:	48 c1 e1 06          	shl    rcx,0x6
    33c3:	66 89 05 be 38 22 00 	mov    WORD PTR [rip+0x2238be],ax        # 226c88 <_rtld_global@@GLIBC_PRIVATE+0xc48>
    33ca:	48 29 f1             	sub    rcx,rsi
    33cd:	48 8d 74 0a c8       	lea    rsi,[rdx+rcx*1-0x38]
    33d2:	31 c9                	xor    ecx,ecx
    33d4:	48 39 c8             	cmp    rax,rcx
    33d7:	74 29                	je     3402 <free@plt+0x2952>
    33d9:	48 89 f2             	mov    rdx,rsi
    33dc:	48 83 c1 01          	add    rcx,0x1
    33e0:	48 83 ee 38          	sub    rsi,0x38
    33e4:	81 3a 52 e5 74 64    	cmp    DWORD PTR [rdx],0x6474e552
    33ea:	75 e8                	jne    33d4 <free@plt+0x2924>
    33ec:	48 8b 42 10          	mov    rax,QWORD PTR [rdx+0x10]
    33f0:	48 89 05 39 3a 22 00 	mov    QWORD PTR [rip+0x223a39],rax        # 226e30 <_rtld_global@@GLIBC_PRIVATE+0xdf0>
    33f7:	48 8b 42 28          	mov    rax,QWORD PTR [rdx+0x28]
    33fb:	48 89 05 36 3a 22 00 	mov    QWORD PTR [rip+0x223a36],rax        # 226e38 <_rtld_global@@GLIBC_PRIVATE+0xdf8>
    3402:	48 83 3d f6 39 22 00 	cmp    QWORD PTR [rip+0x2239f6],0x0        # 226e00 <_rtld_global@@GLIBC_PRIVATE+0xdc0>
    3409:	00 
    340a:	74 0c                	je     3418 <free@plt+0x2968>
    340c:	e8 7f fb 00 00       	call   12f90 <_dl_mcount@@GLIBC_2.2.5+0x640>
    3411:	48 89 05 08 3a 22 00 	mov    QWORD PTR [rip+0x223a08],rax        # 226e20 <_rtld_global@@GLIBC_PRIVATE+0xde0>
    3418:	48 8b 05 19 3c 22 00 	mov    rax,QWORD PTR [rip+0x223c19]        # 227038 <_rtld_global@@GLIBC_PRIVATE+0xff8>
    341f:	48 c7 85 58 ff ff ff 	mov    QWORD PTR [rbp-0xa8],0x0
    3426:	00 00 00 00 
    342a:	48 85 c0             	test   rax,rax
    342d:	0f 85 43 01 00 00    	jne    3576 <free@plt+0x2ac6>
    3433:	e8 58 fc 00 00       	call   13090 <_dl_mcount@@GLIBC_2.2.5+0x740>
    3438:	48 89 85 40 ff ff ff 	mov    QWORD PTR [rbp-0xc0],rax
    343f:	48 8b 83 e8 00 00 00 	mov    rax,QWORD PTR [rbx+0xe8]
    3446:	48 85 c0             	test   rax,rax
    3449:	74 04                	je     344f <free@plt+0x299f>
    344b:	4c 89 70 08          	mov    QWORD PTR [rax+0x8],r14
    344f:	48 8b 05 6a 36 22 00 	mov    rax,QWORD PTR [rip+0x22366a]        # 226ac0 <_rtld_global@@GLIBC_PRIVATE+0xa80>
    3456:	48 85 c0             	test   rax,rax
    3459:	74 04                	je     345f <free@plt+0x29af>
    345b:	4c 89 70 08          	mov    QWORD PTR [rax+0x8],r14
    345f:	41 c7 46 18 01 00 00 	mov    DWORD PTR [r14+0x18],0x1
    3466:	00 
    3467:	e8 24 da 00 00       	call   10e90 <_dl_debug_state@@GLIBC_PRIVATE>
    346c:	90                   	nop
    346d:	8b 15 95 29 22 00    	mov    edx,DWORD PTR [rip+0x222995]        # 225e08 <_rtld_global_ro@@GLIBC_PRIVATE+0x168>
    3473:	85 d2                	test   edx,edx
    3475:	0f 85 d3 11 00 00    	jne    464e <free@plt+0x3b9e>
    347b:	48 8b 85 48 ff ff ff 	mov    rax,QWORD PTR [rbp-0xb8]
    3482:	48 83 38 00          	cmp    QWORD PTR [rax],0x0
    3486:	0f 85 a3 11 00 00    	jne    462f <free@plt+0x3b7f>
    348c:	4c 8b 2d 35 27 22 00 	mov    r13,QWORD PTR [rip+0x222735]        # 225bc8 <realloc@@GLIBC_2.2.5+0x20bc98>
    3493:	45 31 e4             	xor    r12d,r12d
    3496:	4d 85 ed             	test   r13,r13
    3499:	0f 85 fa 10 00 00    	jne    4599 <free@plt+0x3ae9>
    349f:	48 8d 3d 9a ee 01 00 	lea    rdi,[rip+0x1ee9a]        # 22340 <realloc@@GLIBC_2.2.5+0x8410>
    34a6:	be 04 00 00 00       	mov    esi,0x4
    34ab:	e8 00 7d 01 00       	call   1b1b0 <realloc@@GLIBC_2.2.5+0x1280>
    34b0:	85 c0                	test   eax,eax
    34b2:	0f 84 6a 10 00 00    	je     4522 <free@plt+0x3a72>
    34b8:	48 8b 85 48 ff ff ff 	mov    rax,QWORD PTR [rbp-0xb8]
    34bf:	31 f6                	xor    esi,esi
    34c1:	48 8b 10             	mov    rdx,QWORD PTR [rax]
    34c4:	48 85 d2             	test   rdx,rdx
    34c7:	0f 85 b3 04 00 00    	jne    3980 <free@plt+0x2ed0>
    34cd:	0f 31                	rdtsc
    34cf:	89 c0                	mov    eax,eax
    34d1:	48 c1 e2 20          	shl    rdx,0x20
    34d5:	45 31 f6             	xor    r14d,r14d
    34d8:	48 09 c2             	or     rdx,rax
    34db:	83 bd 68 ff ff ff 03 	cmp    DWORD PTR [rbp-0x98],0x3
    34e2:	48 89 df             	mov    rdi,rbx
    34e5:	49 89 d5             	mov    r13,rdx
    34e8:	44 89 e2             	mov    edx,r12d
    34eb:	41 0f 94 c6          	sete   r14b
    34ef:	45 31 c0             	xor    r8d,r8d
    34f2:	44 89 f1             	mov    ecx,r14d
    34f5:	e8 b6 a8 00 00       	call   ddb0 <_dl_rtld_di_serinfo@@GLIBC_PRIVATE+0x4930>
    34fa:	0f 31                	rdtsc
    34fc:	48 c1 e2 20          	shl    rdx,0x20
    3500:	89 c0                	mov    eax,eax
    3502:	8b 8b c0 02 00 00    	mov    ecx,DWORD PTR [rbx+0x2c0]
    3508:	48 09 d0             	or     rax,rdx
    350b:	48 03 05 56 27 22 00 	add    rax,QWORD PTR [rip+0x222756]        # 225c68 <realloc@@GLIBC_2.2.5+0x20bd38>
    3512:	4c 29 e8             	sub    rax,r13
    3515:	85 c9                	test   ecx,ecx
    3517:	48 89 05 4a 27 22 00 	mov    QWORD PTR [rip+0x22274a],rax        # 225c68 <realloc@@GLIBC_2.2.5+0x20bd38>
    351e:	0f 84 ee 03 00 00    	je     3912 <free@plt+0x2e62>
    3524:	48 8b b3 b8 02 00 00 	mov    rsi,QWORD PTR [rbx+0x2b8]
    352b:	89 c8                	mov    eax,ecx
    352d:	8d 50 ff             	lea    edx,[rax-0x1]
    3530:	48 89 d0             	mov    rax,rdx
    3533:	48 8b 14 d6          	mov    rdx,QWORD PTR [rsi+rdx*8]
    3537:	80 8a 14 03 00 00 10 	or     BYTE PTR [rdx+0x314],0x10
    353e:	85 c0                	test   eax,eax
    3540:	75 eb                	jne    352d <free@plt+0x2a7d>
    3542:	48 8b 05 a7 34 22 00 	mov    rax,QWORD PTR [rip+0x2234a7]        # 2269f0 <_rtld_global@@GLIBC_PRIVATE+0x9b0>
    3549:	48 8b 15 a8 34 22 00 	mov    rdx,QWORD PTR [rip+0x2234a8]        # 2269f8 <_rtld_global@@GLIBC_PRIVATE+0x9b8>
    3550:	48 89 42 18          	mov    QWORD PTR [rdx+0x18],rax
    3554:	48 8b 05 95 34 22 00 	mov    rax,QWORD PTR [rip+0x223495]        # 2269f0 <_rtld_global@@GLIBC_PRIVATE+0x9b0>
    355b:	48 85 c0             	test   rax,rax
    355e:	0f 85 cc 03 00 00    	jne    3930 <free@plt+0x2e80>
    3564:	e9 cb 03 00 00       	jmp    3934 <free@plt+0x2e84>
    3569:	39 c2                	cmp    edx,eax
    356b:	0f 86 cb f1 ff ff    	jbe    273c <free@plt+0x1c8c>
    3571:	e9 c0 f1 ff ff       	jmp    2736 <free@plt+0x1c86>
    3576:	4c 8b 60 08          	mov    r12,QWORD PTR [rax+0x8]
    357a:	e8 cb d5 ff ff       	call   b4a <free@plt+0x9a>
    357f:	48 8b 15 d2 28 22 00 	mov    rdx,QWORD PTR [rip+0x2228d2]        # 225e58 <_rtld_global_ro@@GLIBC_PRIVATE+0x1b8>
    3586:	48 89 85 58 ff ff ff 	mov    QWORD PTR [rbp-0xa8],rax
    358d:	48 8b 02             	mov    rax,QWORD PTR [rdx]
    3590:	30 c0                	xor    al,al
    3592:	64 48 89 04 25 28 00 	mov    QWORD PTR fs:0x28,rax
    3599:	00 00 
    359b:	48 8b 42 08          	mov    rax,QWORD PTR [rdx+0x8]
    359f:	64 48 89 04 25 30 00 	mov    QWORD PTR fs:0x30,rax
    35a6:	00 00 
    35a8:	48 89 05 c1 26 22 00 	mov    QWORD PTR [rip+0x2226c1],rax        # 225c70 <realloc@@GLIBC_2.2.5+0x20bd40>
    35af:	48 8d 45 88          	lea    rax,[rbp-0x78]
    35b3:	48 c7 05 9a 28 22 00 	mov    QWORD PTR [rip+0x22289a],0x0        # 225e58 <_rtld_global_ro@@GLIBC_PRIVATE+0x1b8>
    35ba:	00 00 00 00 
    35be:	48 c7 85 50 ff ff ff 	mov    QWORD PTR [rbp-0xb0],0x0
    35c5:	00 00 00 00 
    35c9:	4c 8d 7d 80          	lea    r15,[rbp-0x80]
    35cd:	48 89 9d 28 ff ff ff 	mov    QWORD PTR [rbp-0xd8],rbx
    35d4:	48 89 85 38 ff ff ff 	mov    QWORD PTR [rbp-0xc8],rax
    35db:	48 8d 85 7f ff ff ff 	lea    rax,[rbp-0x81]
    35e2:	48 89 85 40 ff ff ff 	mov    QWORD PTR [rbp-0xc0],rax
    35e9:	48 8d 45 b0          	lea    rax,[rbp-0x50]
    35ed:	48 89 85 30 ff ff ff 	mov    QWORD PTR [rbp-0xd0],rax
    35f4:	e9 8b 00 00 00       	jmp    3684 <free@plt+0x2bd4>
    35f9:	0f 1f 80 00 00 00 00 	nop    DWORD PTR [rax+0x0]
    3600:	48 8b 7d a8          	mov    rdi,QWORD PTR [rbp-0x58]
    3604:	4c 8b 6f 30          	mov    r13,QWORD PTR [rdi+0x30]
    3608:	e8 83 39 01 00       	call   16f90 <_dl_find_dso_for_object@@GLIBC_PRIVATE+0x2570>
    360d:	48 8d 0d 2c 2a 22 00 	lea    rcx,[rip+0x222a2c]        # 226040 <_rtld_global@@GLIBC_PRIVATE>
    3614:	4b 8d 44 ed 00       	lea    rax,[r13+r13*8+0x0]
    3619:	48 c1 e0 04          	shl    rax,0x4
    361d:	48 01 c8             	add    rax,rcx
    3620:	48 83 38 00          	cmp    QWORD PTR [rax],0x0
    3624:	0f 85 84 10 00 00    	jne    46ae <free@plt+0x3bfe>
    362a:	44 8b 58 08          	mov    r11d,DWORD PTR [rax+0x8]
    362e:	45 85 db             	test   r11d,r11d
    3631:	0f 85 96 10 00 00    	jne    46cd <free@plt+0x3c1d>
    3637:	48 8b 4d 88          	mov    rcx,QWORD PTR [rbp-0x78]
    363b:	4c 63 eb             	movsxd r13,ebx
    363e:	4c 89 2d 23 39 22 00 	mov    QWORD PTR [rip+0x223923],r13        # 226f68 <_rtld_global@@GLIBC_PRIVATE+0xf28>
    3645:	49 8b 14 24          	mov    rdx,QWORD PTR [r12]
    3649:	48 8d 35 98 d5 01 00 	lea    rsi,[rip+0x1d598]        # 20be8 <realloc@@GLIBC_2.2.5+0x6cb8>
    3650:	31 c0                	xor    eax,eax
    3652:	bf 02 00 00 00       	mov    edi,0x2
    3657:	e8 b4 e0 00 00       	call   11710 <_dl_debug_state@@GLIBC_PRIVATE+0x880>
    365c:	80 bd 7f ff ff ff 00 	cmp    BYTE PTR [rbp-0x81],0x0
    3663:	74 09                	je     366e <free@plt+0x2bbe>
    3665:	48 8b 7d 88          	mov    rdi,QWORD PTR [rbp-0x78]
    3669:	e8 42 d4 ff ff       	call   ab0 <free@plt>
    366e:	48 8b 05 c3 39 22 00 	mov    rax,QWORD PTR [rip+0x2239c3]        # 227038 <_rtld_global@@GLIBC_PRIVATE+0xff8>
    3675:	4d 8b 64 24 08       	mov    r12,QWORD PTR [r12+0x8]
    367a:	4c 3b 60 08          	cmp    r12,QWORD PTR [rax+0x8]
    367e:	0f 84 6e 01 00 00    	je     37f2 <free@plt+0x2d42>
    3684:	49 8b 04 24          	mov    rax,QWORD PTR [r12]
    3688:	4c 8b 85 60 ff ff ff 	mov    r8,QWORD PTR [rbp-0xa0]
    368f:	48 8d 0d 1a d7 ff ff 	lea    rcx,[rip+0xffffffffffffd71a]        # db0 <free@plt+0x300>
    3696:	48 8b 95 40 ff ff ff 	mov    rdx,QWORD PTR [rbp-0xc0]
    369d:	48 8b b5 38 ff ff ff 	mov    rsi,QWORD PTR [rbp-0xc8]
    36a4:	4c 89 ff             	mov    rdi,r15
    36a7:	48 8b 1d ba 38 22 00 	mov    rbx,QWORD PTR [rip+0x2238ba]        # 226f68 <_rtld_global@@GLIBC_PRIVATE+0xf28>
    36ae:	48 c7 45 a8 00 00 00 	mov    QWORD PTR [rbp-0x58],0x0
    36b5:	00 
    36b6:	48 89 45 a0          	mov    QWORD PTR [rbp-0x60],rax
    36ba:	48 c7 45 88 00 00 00 	mov    QWORD PTR [rbp-0x78],0x0
    36c1:	00 
    36c2:	e8 59 cc 00 00       	call   10320 <_dl_rtld_di_serinfo@@GLIBC_PRIVATE+0x6ea0>
    36c7:	48 8b 4d 88          	mov    rcx,QWORD PTR [rbp-0x78]
    36cb:	48 85 c9             	test   rcx,rcx
    36ce:	0f 85 71 ff ff ff    	jne    3645 <free@plt+0x2b95>
    36d4:	48 8d 05 82 bf 01 00 	lea    rax,[rip+0x1bf82]        # 1f65d <realloc@@GLIBC_2.2.5+0x572d>
    36db:	4c 8b 85 30 ff ff ff 	mov    r8,QWORD PTR [rbp-0xd0]
    36e2:	48 8b 95 40 ff ff ff 	mov    rdx,QWORD PTR [rbp-0xc0]
    36e9:	48 8b b5 38 ff ff ff 	mov    rsi,QWORD PTR [rbp-0xc8]
    36f0:	48 8d 0d 49 d6 ff ff 	lea    rcx,[rip+0xffffffffffffd649]        # d40 <free@plt+0x290>
    36f7:	4c 89 ff             	mov    rdi,r15
    36fa:	48 89 45 b0          	mov    QWORD PTR [rbp-0x50],rax
    36fe:	48 8b 45 a8          	mov    rax,QWORD PTR [rbp-0x58]
    3702:	48 89 45 b8          	mov    QWORD PTR [rbp-0x48],rax
    3706:	e8 15 cc 00 00       	call   10320 <_dl_rtld_di_serinfo@@GLIBC_PRIVATE+0x6ea0>
    370b:	48 83 7d 88 00       	cmp    QWORD PTR [rbp-0x78],0x0
    3710:	0f 85 ea fe ff ff    	jne    3600 <free@plt+0x2b50>
    3716:	48 8b 45 c0          	mov    rax,QWORD PTR [rbp-0x40]
    371a:	48 85 c0             	test   rax,rax
    371d:	0f 84 dd fe ff ff    	je     3600 <free@plt+0x2b50>
    3723:	bf 01 00 00 00       	mov    edi,0x1
    3728:	ff d0                	call   rax
    372a:	83 f8 01             	cmp    eax,0x1
    372d:	0f 85 cd fe ff ff    	jne    3600 <free@plt+0x2b50>
    3733:	bf 48 00 00 00       	mov    edi,0x48
    3738:	31 db                	xor    ebx,ebx
    373a:	e8 41 d3 ff ff       	call   a80 <malloc@plt>
    373f:	4c 8d 15 5a b3 01 00 	lea    r10,[rip+0x1b35a]        # 1eaa0 <realloc@@GLIBC_2.2.5+0x4b70>
    3746:	49 89 c5             	mov    r13,rax
    3749:	48 8b 95 40 ff ff ff 	mov    rdx,QWORD PTR [rbp-0xc0]
    3750:	4c 8b 85 30 ff ff ff 	mov    r8,QWORD PTR [rbp-0xd0]
    3757:	48 8d 0d e2 d5 ff ff 	lea    rcx,[rip+0xffffffffffffd5e2]        # d40 <free@plt+0x290>
    375e:	48 8b b5 38 ff ff ff 	mov    rsi,QWORD PTR [rbp-0xc8]
    3765:	4c 89 ff             	mov    rdi,r15
    3768:	4c 89 55 b0          	mov    QWORD PTR [rbp-0x50],r10
    376c:	4c 89 95 20 ff ff ff 	mov    QWORD PTR [rbp-0xe0],r10
    3773:	e8 a8 cb 00 00       	call   10320 <_dl_rtld_di_serinfo@@GLIBC_PRIVATE+0x6ea0>
    3778:	31 c9                	xor    ecx,ecx
    377a:	48 83 7d 88 00       	cmp    QWORD PTR [rbp-0x78],0x0
    377f:	89 da                	mov    edx,ebx
    3781:	4c 8b 95 20 ff ff ff 	mov    r10,QWORD PTR [rbp-0xe0]
    3788:	0f 84 26 01 00 00    	je     38b4 <free@plt+0x2e04>
    378e:	31 f6                	xor    esi,esi
    3790:	4c 89 d7             	mov    rdi,r10
    3793:	49 89 4c d5 00       	mov    QWORD PTR [r13+rdx*8+0x0],rcx
    3798:	e8 73 ac 01 00       	call   1e410 <realloc@@GLIBC_2.2.5+0x44e0>
    379d:	83 c3 01             	add    ebx,0x1
    37a0:	80 78 01 00          	cmp    BYTE PTR [rax+0x1],0x0
    37a4:	4c 8d 50 01          	lea    r10,[rax+0x1]
    37a8:	75 9f                	jne    3749 <free@plt+0x2c99>
    37aa:	83 fb 08             	cmp    ebx,0x8
    37ad:	0f 85 40 01 00 00    	jne    38f3 <free@plt+0x2e43>
    37b3:	48 83 bd 50 ff ff ff 	cmp    QWORD PTR [rbp-0xb0],0x0
    37ba:	00 
    37bb:	49 c7 45 40 00 00 00 	mov    QWORD PTR [r13+0x40],0x0
    37c2:	00 
    37c3:	0f 84 1e 01 00 00    	je     38e7 <free@plt+0x2e37>
    37c9:	48 8b 85 50 ff ff ff 	mov    rax,QWORD PTR [rbp-0xb0]
    37d0:	4c 89 68 40          	mov    QWORD PTR [rax+0x40],r13
    37d4:	48 8b 45 a8          	mov    rax,QWORD PTR [rbp-0x58]
    37d8:	83 05 29 26 22 00 01 	add    DWORD PTR [rip+0x222629],0x1        # 225e08 <_rtld_global_ro@@GLIBC_PRIVATE+0x168>
    37df:	80 88 15 03 00 00 08 	or     BYTE PTR [rax+0x315],0x8
    37e6:	4c 89 ad 50 ff ff ff 	mov    QWORD PTR [rbp-0xb0],r13
    37ed:	e9 7c fe ff ff       	jmp    366e <free@plt+0x2bbe>
    37f2:	8b 15 10 26 22 00    	mov    edx,DWORD PTR [rip+0x222610]        # 225e08 <_rtld_global_ro@@GLIBC_PRIVATE+0x168>
    37f8:	48 8b 9d 28 ff ff ff 	mov    rbx,QWORD PTR [rbp-0xd8]
    37ff:	85 d2                	test   edx,edx
    3801:	0f 84 2c fc ff ff    	je     3433 <free@plt+0x2983>
    3807:	48 8d 05 ca 31 22 00 	lea    rax,[rip+0x2231ca]        # 2269d8 <_rtld_global@@GLIBC_PRIVATE+0x998>
    380e:	48 89 5d b0          	mov    QWORD PTR [rbp-0x50],rbx
    3812:	45 31 e4             	xor    r12d,r12d
    3815:	48 89 9d 50 ff ff ff 	mov    QWORD PTR [rbp-0xb0],rbx
    381c:	4c 89 b5 40 ff ff ff 	mov    QWORD PTR [rbp-0xc0],r14
    3823:	48 89 45 b8          	mov    QWORD PTR [rbp-0x48],rax
    3827:	85 d2                	test   edx,edx
    3829:	4c 8b 35 d0 25 22 00 	mov    r14,QWORD PTR [rip+0x2225d0]        # 225e00 <_rtld_global_ro@@GLIBC_PRIVATE+0x160>
    3830:	74 65                	je     3897 <free@plt+0x2de7>
    3832:	45 31 ff             	xor    r15d,r15d
    3835:	49 8b 46 10          	mov    rax,QWORD PTR [r14+0x10]
    3839:	48 85 c0             	test   rax,rax
    383c:	74 4c                	je     388a <free@plt+0x2dda>
    383e:	4a 8b 5c 25 b0       	mov    rbx,QWORD PTR [rbp+r12*1-0x50]
    3843:	45 89 fd             	mov    r13d,r15d
    3846:	31 f6                	xor    esi,esi
    3848:	49 83 c5 47          	add    r13,0x47
    384c:	49 c1 e5 04          	shl    r13,0x4
    3850:	49 01 dd             	add    r13,rbx
    3853:	48 89 df             	mov    rdi,rbx
    3856:	4c 89 ea             	mov    rdx,r13
    3859:	ff d0                	call   rax
    385b:	41 89 45 08          	mov    DWORD PTR [r13+0x8],eax
    385f:	0f b6 93 15 03 00 00 	movzx  edx,BYTE PTR [rbx+0x315]
    3866:	89 d6                	mov    esi,edx
    3868:	40 c0 ee 04          	shr    sil,0x4
    386c:	83 e6 01             	and    esi,0x1
    386f:	85 c0                	test   eax,eax
    3871:	0f 95 c0             	setne  al
    3874:	83 e2 ef             	and    edx,0xffffffef
    3877:	09 f0                	or     eax,esi
    3879:	c1 e0 04             	shl    eax,0x4
    387c:	09 d0                	or     eax,edx
    387e:	88 83 15 03 00 00    	mov    BYTE PTR [rbx+0x315],al
    3884:	8b 15 7e 25 22 00    	mov    edx,DWORD PTR [rip+0x22257e]        # 225e08 <_rtld_global_ro@@GLIBC_PRIVATE+0x168>
    388a:	41 83 c7 01          	add    r15d,0x1
    388e:	4d 8b 76 40          	mov    r14,QWORD PTR [r14+0x40]
    3892:	41 39 d7             	cmp    r15d,edx
    3895:	72 9e                	jb     3835 <free@plt+0x2d85>
    3897:	49 83 c4 08          	add    r12,0x8
    389b:	49 83 fc 10          	cmp    r12,0x10
    389f:	75 86                	jne    3827 <free@plt+0x2d77>
    38a1:	48 8b 9d 50 ff ff ff 	mov    rbx,QWORD PTR [rbp-0xb0]
    38a8:	4c 8b b5 40 ff ff ff 	mov    r14,QWORD PTR [rbp-0xc0]
    38af:	e9 7f fb ff ff       	jmp    3433 <free@plt+0x2983>
    38b4:	48 8b 45 c0          	mov    rax,QWORD PTR [rbp-0x40]
    38b8:	48 85 c0             	test   rax,rax
    38bb:	0f 84 cd fe ff ff    	je     378e <free@plt+0x2cde>
    38c1:	48 89 c1             	mov    rcx,rax
    38c4:	48 8d 82 e0 00 00 00 	lea    rax,[rdx+0xe0]
    38cb:	48 8d 35 6e 27 22 00 	lea    rsi,[rip+0x22276e]        # 226040 <_rtld_global@@GLIBC_PRIVATE>
    38d2:	48 8d 3d ff 30 22 00 	lea    rdi,[rip+0x2230ff]        # 2269d8 <_rtld_global@@GLIBC_PRIVATE+0x998>
    38d9:	48 c1 e0 04          	shl    rax,0x4
    38dd:	48 89 7c 06 08       	mov    QWORD PTR [rsi+rax*1+0x8],rdi
    38e2:	e9 a7 fe ff ff       	jmp    378e <free@plt+0x2cde>
    38e7:	4c 89 2d 12 25 22 00 	mov    QWORD PTR [rip+0x222512],r13        # 225e00 <_rtld_global_ro@@GLIBC_PRIVATE+0x160>
    38ee:	e9 e1 fe ff ff       	jmp    37d4 <free@plt+0x2d24>
    38f3:	48 8d 0d 36 d6 01 00 	lea    rcx,[rip+0x1d636]        # 20f30 <realloc@@GLIBC_2.2.5+0x7000>
    38fa:	48 8d 35 f9 ba 01 00 	lea    rsi,[rip+0x1baf9]        # 1f3fa <realloc@@GLIBC_2.2.5+0x54ca>
    3901:	48 8d 3d 60 bd 01 00 	lea    rdi,[rip+0x1bd60]        # 1f668 <realloc@@GLIBC_2.2.5+0x5738>
    3908:	ba 5e 05 00 00       	mov    edx,0x55e
    390d:	e8 ce 65 01 00       	call   19ee0 <free@@GLIBC_2.2.5+0x160>
    3912:	48 8b 05 d7 30 22 00 	mov    rax,QWORD PTR [rip+0x2230d7]        # 2269f0 <_rtld_global@@GLIBC_PRIVATE+0x9b0>
    3919:	48 8b 15 d8 30 22 00 	mov    rdx,QWORD PTR [rip+0x2230d8]        # 2269f8 <_rtld_global@@GLIBC_PRIVATE+0x9b8>
    3920:	48 89 42 18          	mov    QWORD PTR [rdx+0x18],rax
    3924:	48 8b 05 c5 30 22 00 	mov    rax,QWORD PTR [rip+0x2230c5]        # 2269f0 <_rtld_global@@GLIBC_PRIVATE+0x9b0>
    392b:	48 85 c0             	test   rax,rax
    392e:	74 44                	je     3974 <free@plt+0x2ec4>
    3930:	48 89 50 20          	mov    QWORD PTR [rax+0x20],rdx
    3934:	83 f9 01             	cmp    ecx,0x1
    3937:	76 3b                	jbe    3974 <free@plt+0x2ec4>
    3939:	48 8b b3 b8 02 00 00 	mov    rsi,QWORD PTR [rbx+0x2b8]
    3940:	4c 8d 05 91 30 22 00 	lea    r8,[rip+0x223091]        # 2269d8 <_rtld_global@@GLIBC_PRIVATE+0x998>
    3947:	ba 01 00 00 00       	mov    edx,0x1
    394c:	4c 39 46 08          	cmp    QWORD PTR [rsi+0x8],r8
    3950:	48 8d 7e 10          	lea    rdi,[rsi+0x10]
    3954:	0f 84 48 0d 00 00    	je     46a2 <free@plt+0x3bf2>
    395a:	8d 42 01             	lea    eax,[rdx+0x1]
    395d:	39 c1                	cmp    ecx,eax
    395f:	74 13                	je     3974 <free@plt+0x2ec4>
    3961:	48 83 c7 08          	add    rdi,0x8
    3965:	4c 39 47 f8          	cmp    QWORD PTR [rdi-0x8],r8
    3969:	74 73                	je     39de <free@plt+0x2f2e>
    396b:	89 c2                	mov    edx,eax
    396d:	8d 42 01             	lea    eax,[rdx+0x1]
    3970:	39 c1                	cmp    ecx,eax
    3972:	75 ed                	jne    3961 <free@plt+0x2eb1>
    3974:	c6 85 60 ff ff ff 00 	mov    BYTE PTR [rbp-0xa0],0x0
    397b:	e9 f7 00 00 00       	jmp    3a77 <free@plt+0x2fc7>
    3980:	44 89 e0             	mov    eax,r12d
    3983:	48 8d 04 c5 1e 00 00 	lea    rax,[rax*8+0x1e]
    398a:	00 
    398b:	48 c1 e8 04          	shr    rax,0x4
    398f:	48 c1 e0 04          	shl    rax,0x4
    3993:	48 29 c4             	sub    rsp,rax
    3996:	31 c0                	xor    eax,eax
    3998:	48 8d 4c 24 0f       	lea    rcx,[rsp+0xf]
    399d:	48 83 e1 f0          	and    rcx,0xfffffffffffffff0
    39a1:	48 89 ce             	mov    rsi,rcx
    39a4:	89 c7                	mov    edi,eax
    39a6:	83 c0 01             	add    eax,0x1
    39a9:	48 89 14 f9          	mov    QWORD PTR [rcx+rdi*8],rdx
    39ad:	48 8b 52 18          	mov    rdx,QWORD PTR [rdx+0x18]
    39b1:	48 85 d2             	test   rdx,rdx
    39b4:	75 ee                	jne    39a4 <free@plt+0x2ef4>
    39b6:	41 39 c4             	cmp    r12d,eax
    39b9:	0f 84 0e fb ff ff    	je     34cd <free@plt+0x2a1d>
    39bf:	48 8d 0d 6a d5 01 00 	lea    rcx,[rip+0x1d56a]        # 20f30 <realloc@@GLIBC_2.2.5+0x7000>
    39c6:	48 8d 35 2d ba 01 00 	lea    rsi,[rip+0x1ba2d]        # 1f3fa <realloc@@GLIBC_2.2.5+0x54ca>
    39cd:	48 8d 3d d3 bc 01 00 	lea    rdi,[rip+0x1bcd3]        # 1f6a7 <realloc@@GLIBC_2.2.5+0x5777>
    39d4:	ba 43 06 00 00       	mov    edx,0x643
    39d9:	e8 02 65 01 00       	call   19ee0 <free@@GLIBC_2.2.5+0x160>
    39de:	48 c1 e2 03          	shl    rdx,0x3
    39e2:	48 8b 3c 16          	mov    rdi,QWORD PTR [rsi+rdx*1]
    39e6:	8b 95 68 ff ff ff    	mov    edx,DWORD PTR [rbp-0x98]
    39ec:	85 d2                	test   edx,edx
    39ee:	48 89 3d 03 30 22 00 	mov    QWORD PTR [rip+0x223003],rdi        # 2269f8 <_rtld_global@@GLIBC_PRIVATE+0x9b8>
    39f5:	0f 85 93 0c 00 00    	jne    468e <free@plt+0x3bde>
    39fb:	83 c0 01             	add    eax,0x1
    39fe:	31 d2                	xor    edx,edx
    3a00:	39 c1                	cmp    ecx,eax
    3a02:	76 04                	jbe    3a08 <free@plt+0x2f58>
    3a04:	48 8b 14 c6          	mov    rdx,QWORD PTR [rsi+rax*8]
    3a08:	48 8b 05 91 23 22 00 	mov    rax,QWORD PTR [rip+0x222391]        # 225da0 <_rtld_global_ro@@GLIBC_PRIVATE+0x100>
    3a0f:	48 89 15 da 2f 22 00 	mov    QWORD PTR [rip+0x222fda],rdx        # 2269f0 <_rtld_global@@GLIBC_PRIVATE+0x9b0>
    3a16:	48 8b 4f 18          	mov    rcx,QWORD PTR [rdi+0x18]
    3a1a:	48 85 c0             	test   rax,rax
    3a1d:	74 18                	je     3a37 <free@plt+0x2f87>
    3a1f:	48 39 c8             	cmp    rax,rcx
    3a22:	75 13                	jne    3a37 <free@plt+0x2f87>
    3a24:	48 39 c2             	cmp    rdx,rax
    3a27:	74 0e                	je     3a37 <free@plt+0x2f87>
    3a29:	48 8b 48 18          	mov    rcx,QWORD PTR [rax+0x18]
    3a2d:	48 89 05 c4 2f 22 00 	mov    QWORD PTR [rip+0x222fc4],rax        # 2269f8 <_rtld_global@@GLIBC_PRIVATE+0x9b8>
    3a34:	48 89 c7             	mov    rdi,rax
    3a37:	48 39 d1             	cmp    rcx,rdx
    3a3a:	0f 85 b8 0c 00 00    	jne    46f8 <free@plt+0x3c48>
    3a40:	48 8d 05 91 2f 22 00 	lea    rax,[rip+0x222f91]        # 2269d8 <_rtld_global@@GLIBC_PRIVATE+0x998>
    3a47:	48 89 47 18          	mov    QWORD PTR [rdi+0x18],rax
    3a4b:	48 8b 05 9e 2f 22 00 	mov    rax,QWORD PTR [rip+0x222f9e]        # 2269f0 <_rtld_global@@GLIBC_PRIVATE+0x9b0>
    3a52:	48 85 c0             	test   rax,rax
    3a55:	0f 84 91 0c 00 00    	je     46ec <free@plt+0x3c3c>
    3a5b:	48 39 78 20          	cmp    QWORD PTR [rax+0x20],rdi
    3a5f:	0f 85 b9 07 00 00    	jne    421e <free@plt+0x376e>
    3a65:	48 8d 0d 6c 2f 22 00 	lea    rcx,[rip+0x222f6c]        # 2269d8 <_rtld_global@@GLIBC_PRIVATE+0x998>
    3a6c:	c6 85 60 ff ff ff 01 	mov    BYTE PTR [rbp-0xa0],0x1
    3a73:	48 89 48 20          	mov    QWORD PTR [rax+0x20],rcx
    3a77:	44 8b 8d 68 ff ff ff 	mov    r9d,DWORD PTR [rbp-0x98]
    3a7e:	4c 8d 6d b0          	lea    r13,[rbp-0x50]
    3a82:	31 c0                	xor    eax,eax
    3a84:	48 8d 35 d5 de ff ff 	lea    rsi,[rip+0xffffffffffffded5]        # 1960 <free@plt+0xeb0>
    3a8b:	48 8d 3d ae d3 ff ff 	lea    rdi,[rip+0xffffffffffffd3ae]        # e40 <free@plt+0x390>
    3a92:	44 89 75 b4          	mov    DWORD PTR [rbp-0x4c],r14d
    3a96:	4c 89 ea             	mov    rdx,r13
    3a99:	45 85 c9             	test   r9d,r9d
    3a9c:	0f 94 c0             	sete   al
    3a9f:	89 45 b0             	mov    DWORD PTR [rbp-0x50],eax
    3aa2:	e8 49 c9 00 00       	call   103f0 <_dl_rtld_di_serinfo@@GLIBC_PRIVATE+0x6f70>
    3aa7:	0f b6 05 3a 35 22 00 	movzx  eax,BYTE PTR [rip+0x22353a]        # 226fe8 <_rtld_global@@GLIBC_PRIVATE+0xfa8>
    3aae:	48 83 bd 58 ff ff ff 	cmp    QWORD PTR [rbp-0xa8],0x0
    3ab5:	00 
    3ab6:	88 85 38 ff ff ff    	mov    BYTE PTR [rbp-0xc8],al
    3abc:	75 0c                	jne    3aca <free@plt+0x301a>
    3abe:	e8 87 d0 ff ff       	call   b4a <free@plt+0x9a>
    3ac3:	48 89 85 58 ff ff ff 	mov    QWORD PTR [rbp-0xa8],rax
    3aca:	48 83 3d 66 35 22 00 	cmp    QWORD PTR [rip+0x223566],0x0        # 227038 <_rtld_global@@GLIBC_PRIVATE+0xff8>
    3ad1:	00 
    3ad2:	75 34                	jne    3b08 <free@plt+0x3058>
    3ad4:	48 8b 15 7d 23 22 00 	mov    rdx,QWORD PTR [rip+0x22237d]        # 225e58 <_rtld_global_ro@@GLIBC_PRIVATE+0x1b8>
    3adb:	48 8b 02             	mov    rax,QWORD PTR [rdx]
    3ade:	30 c0                	xor    al,al
    3ae0:	64 48 89 04 25 28 00 	mov    QWORD PTR fs:0x28,rax
    3ae7:	00 00 
    3ae9:	48 8b 42 08          	mov    rax,QWORD PTR [rdx+0x8]
    3aed:	64 48 89 04 25 30 00 	mov    QWORD PTR fs:0x30,rax
    3af4:	00 00 
    3af6:	48 c7 05 57 23 22 00 	mov    QWORD PTR [rip+0x222357],0x0        # 225e58 <_rtld_global_ro@@GLIBC_PRIVATE+0x1b8>
    3afd:	00 00 00 00 
    3b01:	48 89 05 68 21 22 00 	mov    QWORD PTR [rip+0x222168],rax        # 225c70 <realloc@@GLIBC_2.2.5+0x20bd40>
    3b08:	44 8b 85 68 ff ff ff 	mov    r8d,DWORD PTR [rbp-0x98]
    3b0f:	45 85 c0             	test   r8d,r8d
    3b12:	0f 85 0a 06 00 00    	jne    4122 <free@plt+0x3672>
    3b18:	48 8b 93 78 02 00 00 	mov    rdx,QWORD PTR [rbx+0x278]
    3b1f:	48 85 d2             	test   rdx,rdx
    3b22:	0f 84 91 05 00 00    	je     40b9 <free@plt+0x3609>
    3b28:	48 83 3d 40 22 22 00 	cmp    QWORD PTR [rip+0x222240],0x0        # 225d70 <_rtld_global_ro@@GLIBC_PRIVATE+0xd0>
    3b2f:	00 
    3b30:	0f 85 83 05 00 00    	jne    40b9 <free@plt+0x3609>
    3b36:	8b 35 b0 21 22 00    	mov    esi,DWORD PTR [rip+0x2221b0]        # 225cec <_rtld_global_ro@@GLIBC_PRIVATE+0x4c>
    3b3c:	85 f6                	test   esi,esi
    3b3e:	0f 85 75 05 00 00    	jne    40b9 <free@plt+0x3609>
    3b44:	48 8b 43 68          	mov    rax,QWORD PTR [rbx+0x68]
    3b48:	48 8b 40 08          	mov    rax,QWORD PTR [rax+0x8]
    3b4c:	48 89 85 68 ff ff ff 	mov    QWORD PTR [rbp-0x98],rax
    3b53:	48 8b 83 28 02 00 00 	mov    rax,QWORD PTR [rbx+0x228]
    3b5a:	48 85 c0             	test   rax,rax
    3b5d:	0f 84 a0 05 00 00    	je     4103 <free@plt+0x3653>
    3b63:	4c 8b 62 08          	mov    r12,QWORD PTR [rdx+0x8]
    3b67:	4c 8b ab b8 02 00 00 	mov    r13,QWORD PTR [rbx+0x2b8]
    3b6e:	4d 89 e6             	mov    r14,r12
    3b71:	4c 03 70 08          	add    r14,QWORD PTR [rax+0x8]
    3b75:	8b 83 c0 02 00 00    	mov    eax,DWORD PTR [rbx+0x2c0]
    3b7b:	4d 39 f4             	cmp    r12,r14
    3b7e:	4d 8d 7c c5 00       	lea    r15,[r13+rax*8+0x0]
    3b83:	73 6e                	jae    3bf3 <free@plt+0x3143>
    3b85:	4d 39 fd             	cmp    r13,r15
    3b88:	72 5a                	jb     3be4 <free@plt+0x3134>
    3b8a:	eb 67                	jmp    3bf3 <free@plt+0x3143>
    3b8c:	0f 1f 40 00          	nop    DWORD PTR [rax+0x0]
    3b90:	48 8b 86 20 02 00 00 	mov    rax,QWORD PTR [rsi+0x220]
    3b97:	48 85 c0             	test   rax,rax
    3b9a:	74 57                	je     3bf3 <free@plt+0x3143>
    3b9c:	41 8b 54 24 08       	mov    edx,DWORD PTR [r12+0x8]
    3ba1:	48 39 50 08          	cmp    QWORD PTR [rax+0x8],rdx
    3ba5:	75 4c                	jne    3bf3 <free@plt+0x3143>
    3ba7:	48 8b 86 38 02 00 00 	mov    rax,QWORD PTR [rsi+0x238]
    3bae:	48 85 c0             	test   rax,rax
    3bb1:	74 40                	je     3bf3 <free@plt+0x3143>
    3bb3:	41 8b 54 24 04       	mov    edx,DWORD PTR [r12+0x4]
    3bb8:	48 39 50 08          	cmp    QWORD PTR [rax+0x8],rdx
    3bbc:	75 35                	jne    3bf3 <free@plt+0x3143>
    3bbe:	41 8b 3c 24          	mov    edi,DWORD PTR [r12]
    3bc2:	48 03 bd 68 ff ff ff 	add    rdi,QWORD PTR [rbp-0x98]
    3bc9:	e8 e2 db 00 00       	call   117b0 <_dl_debug_state@@GLIBC_PRIVATE+0x920>
    3bce:	85 c0                	test   eax,eax
    3bd0:	74 21                	je     3bf3 <free@plt+0x3143>
    3bd2:	49 83 c4 14          	add    r12,0x14
    3bd6:	49 83 c5 08          	add    r13,0x8
    3bda:	4d 39 ef             	cmp    r15,r13
    3bdd:	76 14                	jbe    3bf3 <free@plt+0x3143>
    3bdf:	4d 39 f4             	cmp    r12,r14
    3be2:	73 0f                	jae    3bf3 <free@plt+0x3143>
    3be4:	49 8b 75 00          	mov    rsi,QWORD PTR [r13+0x0]
    3be8:	48 39 f3             	cmp    rbx,rsi
    3beb:	74 e9                	je     3bd6 <free@plt+0x3126>
    3bed:	48 83 3e 00          	cmp    QWORD PTR [rsi],0x0
    3bf1:	74 9d                	je     3b90 <free@plt+0x30e0>
    3bf3:	4d 39 ef             	cmp    r15,r13
    3bf6:	0f 85 36 04 00 00    	jne    4032 <free@plt+0x3582>
    3bfc:	4d 39 e6             	cmp    r14,r12
    3bff:	0f 85 2d 04 00 00    	jne    4032 <free@plt+0x3582>
    3c05:	8b 05 95 20 22 00    	mov    eax,DWORD PTR [rip+0x222095]        # 225ca0 <_rtld_global_ro@@GLIBC_PRIVATE>
    3c0b:	a8 01                	test   al,0x1
    3c0d:	0f 85 32 02 00 00    	jne    3e45 <free@plt+0x3395>
    3c13:	48 8d 93 b8 02 00 00 	lea    rdx,[rbx+0x2b8]
    3c1a:	48 8b b3 b8 02 00 00 	mov    rsi,QWORD PTR [rbx+0x2b8]
    3c21:	48 8b bb c0 02 00 00 	mov    rdi,QWORD PTR [rbx+0x2c0]
    3c28:	f6 c4 02             	test   ah,0x2
    3c2b:	48 89 15 1e 24 22 00 	mov    QWORD PTR [rip+0x22241e],rdx        # 226050 <_rtld_global@@GLIBC_PRIVATE+0x10>
    3c32:	48 8b 15 8f 2d 22 00 	mov    rdx,QWORD PTR [rip+0x222d8f]        # 2269c8 <_rtld_global@@GLIBC_PRIVATE+0x988>
    3c39:	48 89 35 88 20 22 00 	mov    QWORD PTR [rip+0x222088],rsi        # 225cc8 <_rtld_global_ro@@GLIBC_PRIVATE+0x28>
    3c40:	48 89 3d 89 20 22 00 	mov    QWORD PTR [rip+0x222089],rdi        # 225cd0 <_rtld_global_ro@@GLIBC_PRIVATE+0x30>
    3c47:	48 89 15 42 21 22 00 	mov    QWORD PTR [rip+0x222142],rdx        # 225d90 <_rtld_global_ro@@GLIBC_PRIVATE+0xf0>
    3c4e:	0f 85 4b 02 00 00    	jne    3e9f <free@plt+0x33ef>
    3c54:	48 8b 8b 80 02 00 00 	mov    rcx,QWORD PTR [rbx+0x280]
    3c5b:	48 85 c9             	test   rcx,rcx
    3c5e:	74 46                	je     3ca6 <free@plt+0x31f6>
    3c60:	0f 31                	rdtsc
    3c62:	48 c1 e2 20          	shl    rdx,0x20
    3c66:	89 c0                	mov    eax,eax
    3c68:	48 09 c2             	or     rdx,rax
    3c6b:	48 8b 83 30 02 00 00 	mov    rax,QWORD PTR [rbx+0x230]
    3c72:	49 89 d4             	mov    r12,rdx
    3c75:	48 85 c0             	test   rax,rax
    3c78:	0f 84 07 04 00 00    	je     4085 <free@plt+0x35d5>
    3c7e:	48 8b 71 08          	mov    rsi,QWORD PTR [rcx+0x8]
    3c82:	48 89 df             	mov    rdi,rbx
    3c85:	48 89 f2             	mov    rdx,rsi
    3c88:	48 03 50 08          	add    rdx,QWORD PTR [rax+0x8]
    3c8c:	e8 1f ef 00 00       	call   12bb0 <_dl_mcount@@GLIBC_2.2.5+0x260>
    3c91:	0f 31                	rdtsc
    3c93:	48 c1 e2 20          	shl    rdx,0x20
    3c97:	89 c0                	mov    eax,eax
    3c99:	48 09 d0             	or     rax,rdx
    3c9c:	4c 29 e0             	sub    rax,r12
    3c9f:	48 89 05 4a 33 22 00 	mov    QWORD PTR [rip+0x22334a],rax        # 226ff0 <_rtld_global@@GLIBC_PRIVATE+0xfb0>
    3ca6:	49 89 dc             	mov    r12,rbx
    3ca9:	eb 0f                	jmp    3cba <free@plt+0x320a>
    3cab:	0f 1f 44 00 00       	nop    DWORD PTR [rax+rax*1+0x0]
    3cb0:	4d 8b 64 24 18       	mov    r12,QWORD PTR [r12+0x18]
    3cb5:	4d 85 e4             	test   r12,r12
    3cb8:	74 42                	je     3cfc <free@plt+0x324c>
    3cba:	41 80 8c 24 14 03 00 	or     BYTE PTR [r12+0x314],0x4
    3cc1:	00 04 
    3cc3:	49 83 bc 24 60 04 00 	cmp    QWORD PTR [r12+0x460],0x0
    3cca:	00 00 
    3ccc:	74 08                	je     3cd6 <free@plt+0x3226>
    3cce:	4c 89 e7             	mov    rdi,r12
    3cd1:	e8 9a 82 00 00       	call   bf70 <_dl_rtld_di_serinfo@@GLIBC_PRIVATE+0x2af0>
    3cd6:	49 83 bc 24 28 04 00 	cmp    QWORD PTR [r12+0x428],0x0
    3cdd:	00 00 
    3cdf:	74 cf                	je     3cb0 <free@plt+0x3200>
    3ce1:	80 3d 00 33 22 00 00 	cmp    BYTE PTR [rip+0x223300],0x0        # 226fe8 <_rtld_global@@GLIBC_PRIVATE+0xfa8>
    3ce8:	74 c6                	je     3cb0 <free@plt+0x3200>
    3cea:	4c 89 e7             	mov    rdi,r12
    3ced:	e8 ae fe 00 00       	call   13ba0 <__tls_get_addr@@GLIBC_2.3+0xc0>
    3cf2:	4d 8b 64 24 18       	mov    r12,QWORD PTR [r12+0x18]
    3cf7:	4d 85 e4             	test   r12,r12
    3cfa:	75 be                	jne    3cba <free@plt+0x320a>
    3cfc:	41 bc 01 00 00 00    	mov    r12d,0x1
    3d02:	80 bd 38 ff ff ff 00 	cmp    BYTE PTR [rbp-0xc8],0x0
    3d09:	0f 85 bd 02 00 00    	jne    3fcc <free@plt+0x351c>
    3d0f:	48 83 3d 51 32 22 00 	cmp    QWORD PTR [rip+0x223251],0x0        # 226f68 <_rtld_global@@GLIBC_PRIVATE+0xf28>
    3d16:	00 
    3d17:	0f 84 af 02 00 00    	je     3fcc <free@plt+0x351c>
    3d1d:	48 83 05 7b 32 22 00 	add    QWORD PTR [rip+0x22327b],0x1        # 226fa0 <_rtld_global@@GLIBC_PRIVATE+0xf60>
    3d24:	01 
    3d25:	4c 8b b5 58 ff ff ff 	mov    r14,QWORD PTR [rbp-0xa8]
    3d2c:	4c 89 f7             	mov    rdi,r14
    3d2f:	e8 0c f7 00 00       	call   13440 <_dl_allocate_tls_init@@GLIBC_PRIVATE>
    3d34:	80 3d ad 32 22 00 00 	cmp    BYTE PTR [rip+0x2232ad],0x0        # 226fe8 <_rtld_global@@GLIBC_PRIVATE+0xfa8>
    3d3b:	75 1e                	jne    3d5b <free@plt+0x32ab>
    3d3d:	4c 89 f6             	mov    rsi,r14
    3d40:	bf 02 10 00 00       	mov    edi,0x1002
    3d45:	b8 9e 00 00 00       	mov    eax,0x9e
    3d4a:	4c 89 36             	mov    QWORD PTR [rsi],r14
    3d4d:	4c 89 76 10          	mov    QWORD PTR [rsi+0x10],r14
    3d51:	0f 05                	syscall
    3d53:	85 c0                	test   eax,eax
    3d55:	0f 85 a5 00 00 00    	jne    3e00 <free@plt+0x3350>
    3d5b:	48 8b 05 66 2c 22 00 	mov    rax,QWORD PTR [rip+0x222c66]        # 2269c8 <_rtld_global@@GLIBC_PRIVATE+0x988>
    3d62:	48 39 05 27 20 22 00 	cmp    QWORD PTR [rip+0x222027],rax        # 225d90 <_rtld_global_ro@@GLIBC_PRIVATE+0xf0>
    3d69:	0f 85 b7 00 00 00    	jne    3e26 <free@plt+0x3376>
    3d6f:	44 38 a5 60 ff ff ff 	cmp    BYTE PTR [rbp-0xa0],r12b
    3d76:	76 48                	jbe    3dc0 <free@plt+0x3310>
    3d78:	0f 31                	rdtsc
    3d7a:	80 25 6b 2f 22 00 fb 	and    BYTE PTR [rip+0x222f6b],0xfb        # 226cec <_rtld_global@@GLIBC_PRIVATE+0xcac>
    3d81:	89 c0                	mov    eax,eax
    3d83:	48 c1 e2 20          	shl    rdx,0x20
    3d87:	48 8b b3 80 03 00 00 	mov    rsi,QWORD PTR [rbx+0x380]
    3d8e:	48 09 c2             	or     rdx,rax
    3d91:	48 8d 3d 40 2c 22 00 	lea    rdi,[rip+0x222c40]        # 2269d8 <_rtld_global@@GLIBC_PRIVATE+0x998>
    3d98:	49 89 d4             	mov    r12,rdx
    3d9b:	31 c9                	xor    ecx,ecx
    3d9d:	31 d2                	xor    edx,edx
    3d9f:	e8 fc 82 00 00       	call   c0a0 <_dl_rtld_di_serinfo@@GLIBC_PRIVATE+0x2c20>
    3da4:	0f 31                	rdtsc
    3da6:	48 c1 e2 20          	shl    rdx,0x20
    3daa:	89 c0                	mov    eax,eax
    3dac:	48 09 d0             	or     rax,rdx
    3daf:	48 03 05 3a 32 22 00 	add    rax,QWORD PTR [rip+0x22323a]        # 226ff0 <_rtld_global@@GLIBC_PRIVATE+0xfb0>
    3db6:	4c 29 e0             	sub    rax,r12
    3db9:	48 89 05 30 32 22 00 	mov    QWORD PTR [rip+0x223230],rax        # 226ff0 <_rtld_global@@GLIBC_PRIVATE+0xfb0>
    3dc0:	e8 1b 5a 01 00       	call   197e0 <__get_cpu_features@@GLIBC_PRIVATE+0x7b0>
    3dc5:	8b 05 3d 20 22 00    	mov    eax,DWORD PTR [rip+0x22203d]        # 225e08 <_rtld_global_ro@@GLIBC_PRIVATE+0x168>
    3dcb:	85 c0                	test   eax,eax
    3dcd:	0f 85 10 02 00 00    	jne    3fe3 <free@plt+0x3533>
    3dd3:	31 f6                	xor    esi,esi
    3dd5:	31 ff                	xor    edi,edi
    3dd7:	e8 c4 d0 00 00       	call   10ea0 <_dl_debug_state@@GLIBC_PRIVATE+0x10>
    3ddc:	c7 40 18 00 00 00 00 	mov    DWORD PTR [rax+0x18],0x0
    3de3:	48 89 c3             	mov    rbx,rax
    3de6:	e8 a5 d0 00 00       	call   10e90 <_dl_debug_state@@GLIBC_PRIVATE>
    3deb:	90                   	nop
    3dec:	e8 ff 4a 01 00       	call   188f0 <_dl_find_dso_for_object@@GLIBC_PRIVATE+0x3ed0>
    3df1:	48 8d 65 d8          	lea    rsp,[rbp-0x28]
    3df5:	5b                   	pop    rbx
    3df6:	41 5c                	pop    r12
    3df8:	41 5d                	pop    r13
    3dfa:	41 5e                	pop    r14
    3dfc:	41 5f                	pop    r15
    3dfe:	5d                   	pop    rbp
    3dff:	c3                   	ret
    3e00:	48 8d 15 a1 c6 01 00 	lea    rdx,[rip+0x1c6a1]        # 204a8 <realloc@@GLIBC_2.2.5+0x6578>
    3e07:	48 8d 35 d2 c6 01 00 	lea    rsi,[rip+0x1c6d2]        # 204e0 <realloc@@GLIBC_2.2.5+0x65b0>
    3e0e:	bf 02 00 00 00       	mov    edi,0x2
    3e13:	31 c0                	xor    eax,eax
    3e15:	e8 f6 d8 00 00       	call   11710 <_dl_debug_state@@GLIBC_PRIVATE+0x880>
    3e1a:	bf 7f 00 00 00       	mov    edi,0x7f
    3e1f:	e8 7c 75 01 00       	call   1b3a0 <realloc@@GLIBC_2.2.5+0x1470>
    3e24:	eb da                	jmp    3e00 <free@plt+0x3350>
    3e26:	48 8d 0d 03 d1 01 00 	lea    rcx,[rip+0x1d103]        # 20f30 <realloc@@GLIBC_2.2.5+0x7000>
    3e2d:	48 8d 35 c6 b5 01 00 	lea    rsi,[rip+0x1b5c6]        # 1f3fa <realloc@@GLIBC_2.2.5+0x54ca>
    3e34:	48 8d 3d 65 cf 01 00 	lea    rdi,[rip+0x1cf65]        # 20da0 <realloc@@GLIBC_2.2.5+0x6e70>
    3e3b:	ba 3f 08 00 00       	mov    edx,0x83f
    3e40:	e8 9b 60 01 00       	call   19ee0 <free@@GLIBC_2.2.5+0x160>
    3e45:	48 8d 35 70 b9 01 00 	lea    rsi,[rip+0x1b970]        # 1f7bc <realloc@@GLIBC_2.2.5+0x588c>
    3e4c:	48 8d 3d 52 b9 01 00 	lea    rdi,[rip+0x1b952]        # 1f7a5 <realloc@@GLIBC_2.2.5+0x5875>
    3e53:	31 c0                	xor    eax,eax
    3e55:	e8 56 d7 00 00       	call   115b0 <_dl_debug_state@@GLIBC_PRIVATE+0x720>
    3e5a:	48 8d 83 b8 02 00 00 	lea    rax,[rbx+0x2b8]
    3e61:	f6 05 39 1e 22 00 02 	test   BYTE PTR [rip+0x221e39],0x2        # 225ca1 <_rtld_global_ro@@GLIBC_PRIVATE+0x1>
    3e68:	48 8b 93 c0 02 00 00 	mov    rdx,QWORD PTR [rbx+0x2c0]
    3e6f:	48 89 05 da 21 22 00 	mov    QWORD PTR [rip+0x2221da],rax        # 226050 <_rtld_global@@GLIBC_PRIVATE+0x10>
    3e76:	48 8b 83 b8 02 00 00 	mov    rax,QWORD PTR [rbx+0x2b8]
    3e7d:	48 89 15 4c 1e 22 00 	mov    QWORD PTR [rip+0x221e4c],rdx        # 225cd0 <_rtld_global_ro@@GLIBC_PRIVATE+0x30>
    3e84:	48 89 05 3d 1e 22 00 	mov    QWORD PTR [rip+0x221e3d],rax        # 225cc8 <_rtld_global_ro@@GLIBC_PRIVATE+0x28>
    3e8b:	48 8b 05 36 2b 22 00 	mov    rax,QWORD PTR [rip+0x222b36]        # 2269c8 <_rtld_global@@GLIBC_PRIVATE+0x988>
    3e92:	48 89 05 f7 1e 22 00 	mov    QWORD PTR [rip+0x221ef7],rax        # 225d90 <_rtld_global_ro@@GLIBC_PRIVATE+0xf0>
    3e99:	0f 84 b5 fd ff ff    	je     3c54 <free@plt+0x31a4>
    3e9f:	41 bd 01 00 00 00    	mov    r13d,0x1
    3ea5:	48 8d 3d da b8 01 00 	lea    rdi,[rip+0x1b8da]        # 1f786 <realloc@@GLIBC_2.2.5+0x5856>
    3eac:	31 c0                	xor    eax,eax
    3eae:	49 89 dc             	mov    r12,rbx
    3eb1:	e8 fa d6 00 00       	call   115b0 <_dl_debug_state@@GLIBC_PRIVATE+0x720>
    3eb6:	31 f6                	xor    esi,esi
    3eb8:	4c 89 e7             	mov    rdi,r12
    3ebb:	e8 10 13 01 00       	call   151d0 <_dl_find_dso_for_object@@GLIBC_PRIVATE+0x7b0>
    3ec0:	4d 8b 64 24 18       	mov    r12,QWORD PTR [r12+0x18]
    3ec5:	4d 85 e4             	test   r12,r12
    3ec8:	75 ec                	jne    3eb6 <free@plt+0x3406>
    3eca:	45 84 ed             	test   r13b,r13b
    3ecd:	0f 85 81 fd ff ff    	jne    3c54 <free@plt+0x31a4>
    3ed3:	45 31 e4             	xor    r12d,r12d
    3ed6:	48 83 3d 92 1e 22 00 	cmp    QWORD PTR [rip+0x221e92],0x0        # 225d70 <_rtld_global_ro@@GLIBC_PRIVATE+0xd0>
    3edd:	00 
    3ede:	41 0f 95 c4          	setne  r12b
    3ee2:	44 09 25 fb 1d 22 00 	or     DWORD PTR [rip+0x221dfb],r12d        # 225ce4 <_rtld_global_ro@@GLIBC_PRIVATE+0x44>
    3ee9:	0f 31                	rdtsc
    3eeb:	89 c0                	mov    eax,eax
    3eed:	48 c1 e2 20          	shl    rdx,0x20
    3ef1:	4c 8d 2d e0 2a 22 00 	lea    r13,[rip+0x222ae0]        # 2269d8 <_rtld_global@@GLIBC_PRIVATE+0x998>
    3ef8:	48 09 c2             	or     rdx,rax
    3efb:	8b 83 c0 02 00 00    	mov    eax,DWORD PTR [rbx+0x2c0]
    3f01:	48 89 95 68 ff ff ff 	mov    QWORD PTR [rbp-0x98],rdx
    3f08:	44 8d 78 ff          	lea    r15d,[rax-0x1]
    3f0c:	eb 64                	jmp    3f72 <free@plt+0x34c2>
    3f0e:	66 90                	xchg   ax,ax
    3f10:	48 8b 93 b8 03 00 00 	mov    rdx,QWORD PTR [rbx+0x3b8]
    3f17:	44 89 f8             	mov    eax,r15d
    3f1a:	4c 8b 34 c2          	mov    r14,QWORD PTR [rdx+rax*8]
    3f1e:	49 8b 46 38          	mov    rax,QWORD PTR [r14+0x38]
    3f22:	48 8b 40 08          	mov    rax,QWORD PTR [rax+0x8]
    3f26:	48 85 c0             	test   rax,rax
    3f29:	0f 85 87 00 00 00    	jne    3fb6 <free@plt+0x3506>
    3f2f:	41 80 a6 16 03 00 00 	and    BYTE PTR [r14+0x316],0xfe
    3f36:	fe 
    3f37:	4d 39 ee             	cmp    r14,r13
    3f3a:	74 1f                	je     3f5b <free@plt+0x34ab>
    3f3c:	8b 0d a2 1d 22 00    	mov    ecx,DWORD PTR [rip+0x221da2]        # 225ce4 <_rtld_global_ro@@GLIBC_PRIVATE+0x44>
    3f42:	49 8b b6 80 03 00 00 	mov    rsi,QWORD PTR [r14+0x380]
    3f49:	31 d2                	xor    edx,edx
    3f4b:	4c 89 f7             	mov    rdi,r14
    3f4e:	85 c9                	test   ecx,ecx
    3f50:	44 89 e1             	mov    ecx,r12d
    3f53:	0f 95 c2             	setne  dl
    3f56:	e8 45 81 00 00       	call   c0a0 <_dl_rtld_di_serinfo@@GLIBC_PRIVATE+0x2c20>
    3f5b:	49 83 be 28 04 00 00 	cmp    QWORD PTR [r14+0x428],0x0
    3f62:	00 
    3f63:	74 09                	je     3f6e <free@plt+0x34be>
    3f65:	80 3d 7c 30 22 00 00 	cmp    BYTE PTR [rip+0x22307c],0x0        # 226fe8 <_rtld_global@@GLIBC_PRIVATE+0xfa8>
    3f6c:	75 3e                	jne    3fac <free@plt+0x34fc>
    3f6e:	41 83 ef 01          	sub    r15d,0x1
    3f72:	41 83 ff ff          	cmp    r15d,0xffffffff
    3f76:	75 98                	jne    3f10 <free@plt+0x3460>
    3f78:	0f 31                	rdtsc
    3f7a:	48 c1 e2 20          	shl    rdx,0x20
    3f7e:	89 c0                	mov    eax,eax
    3f80:	45 31 e4             	xor    r12d,r12d
    3f83:	48 09 d0             	or     rax,rdx
    3f86:	48 2b 85 68 ff ff ff 	sub    rax,QWORD PTR [rbp-0x98]
    3f8d:	48 83 3d 1b 2a 22 00 	cmp    QWORD PTR [rip+0x222a1b],0x0        # 2269b0 <_rtld_global@@GLIBC_PRIVATE+0x970>
    3f94:	00 
    3f95:	48 89 05 54 30 22 00 	mov    QWORD PTR [rip+0x223054],rax        # 226ff0 <_rtld_global@@GLIBC_PRIVATE+0xfb0>
    3f9c:	0f 84 60 fd ff ff    	je     3d02 <free@plt+0x3252>
    3fa2:	e8 c9 e1 00 00       	call   12170 <_dl_debug_state@@GLIBC_PRIVATE+0x12e0>
    3fa7:	e9 56 fd ff ff       	jmp    3d02 <free@plt+0x3252>
    3fac:	4c 89 f7             	mov    rdi,r14
    3faf:	e8 ec fb 00 00       	call   13ba0 <__tls_get_addr@@GLIBC_2.3+0xc0>
    3fb4:	eb b8                	jmp    3f6e <free@plt+0x34be>
    3fb6:	c7 40 10 01 00 00 00 	mov    DWORD PTR [rax+0x10],0x1
    3fbd:	48 8b 40 08          	mov    rax,QWORD PTR [rax+0x8]
    3fc1:	48 85 c0             	test   rax,rax
    3fc4:	0f 84 65 ff ff ff    	je     3f2f <free@plt+0x347f>
    3fca:	eb ea                	jmp    3fb6 <free@plt+0x3506>
    3fcc:	e8 bf f0 00 00       	call   13090 <_dl_mcount@@GLIBC_2.2.5+0x740>
    3fd1:	48 39 85 40 ff ff ff 	cmp    QWORD PTR [rbp-0xc0],rax
    3fd8:	0f 85 3f fd ff ff    	jne    3d1d <free@plt+0x326d>
    3fde:	e9 42 fd ff ff       	jmp    3d25 <free@plt+0x3275>
    3fe3:	4c 8b 2d 56 20 22 00 	mov    r13,QWORD PTR [rip+0x222056]        # 226040 <_rtld_global@@GLIBC_PRIVATE>
    3fea:	41 f6 85 15 03 00 00 	test   BYTE PTR [r13+0x315],0x8
    3ff1:	08 
    3ff2:	0f 85 db fd ff ff    	jne    3dd3 <free@plt+0x3323>
    3ff8:	4c 8b 25 01 1e 22 00 	mov    r12,QWORD PTR [rip+0x221e01]        # 225e00 <_rtld_global_ro@@GLIBC_PRIVATE+0x160>
    3fff:	31 db                	xor    ebx,ebx
    4001:	49 8b 14 24          	mov    rdx,QWORD PTR [r12]
    4005:	48 85 d2             	test   rdx,rdx
    4008:	74 17                	je     4021 <free@plt+0x3571>
    400a:	89 df                	mov    edi,ebx
    400c:	31 f6                	xor    esi,esi
    400e:	48 83 c7 47          	add    rdi,0x47
    4012:	48 c1 e7 04          	shl    rdi,0x4
    4016:	4c 01 ef             	add    rdi,r13
    4019:	ff d2                	call   rdx
    401b:	8b 05 e7 1d 22 00    	mov    eax,DWORD PTR [rip+0x221de7]        # 225e08 <_rtld_global_ro@@GLIBC_PRIVATE+0x168>
    4021:	83 c3 01             	add    ebx,0x1
    4024:	4d 8b 64 24 40       	mov    r12,QWORD PTR [r12+0x40]
    4029:	39 c3                	cmp    ebx,eax
    402b:	72 d4                	jb     4001 <free@plt+0x3551>
    402d:	e9 a1 fd ff ff       	jmp    3dd3 <free@plt+0x3323>
    4032:	8b 05 68 1c 22 00    	mov    eax,DWORD PTR [rip+0x221c68]        # 225ca0 <_rtld_global_ro@@GLIBC_PRIVATE>
    4038:	a8 01                	test   al,0x1
    403a:	75 68                	jne    40a4 <free@plt+0x35f4>
    403c:	48 8d 93 b8 02 00 00 	lea    rdx,[rbx+0x2b8]
    4043:	48 8b b3 b8 02 00 00 	mov    rsi,QWORD PTR [rbx+0x2b8]
    404a:	48 8b bb c0 02 00 00 	mov    rdi,QWORD PTR [rbx+0x2c0]
    4051:	f6 c4 02             	test   ah,0x2
    4054:	48 89 15 f5 1f 22 00 	mov    QWORD PTR [rip+0x221ff5],rdx        # 226050 <_rtld_global@@GLIBC_PRIVATE+0x10>
    405b:	48 8b 15 66 29 22 00 	mov    rdx,QWORD PTR [rip+0x222966]        # 2269c8 <_rtld_global@@GLIBC_PRIVATE+0x988>
    4062:	48 89 35 5f 1c 22 00 	mov    QWORD PTR [rip+0x221c5f],rsi        # 225cc8 <_rtld_global_ro@@GLIBC_PRIVATE+0x28>
    4069:	48 89 3d 60 1c 22 00 	mov    QWORD PTR [rip+0x221c60],rdi        # 225cd0 <_rtld_global_ro@@GLIBC_PRIVATE+0x30>
    4070:	48 89 15 19 1d 22 00 	mov    QWORD PTR [rip+0x221d19],rdx        # 225d90 <_rtld_global_ro@@GLIBC_PRIVATE+0xf0>
    4077:	0f 84 56 fe ff ff    	je     3ed3 <free@plt+0x3423>
    407d:	45 31 ed             	xor    r13d,r13d
    4080:	e9 20 fe ff ff       	jmp    3ea5 <free@plt+0x33f5>
    4085:	48 8d 0d a4 ce 01 00 	lea    rcx,[rip+0x1cea4]        # 20f30 <realloc@@GLIBC_2.2.5+0x7000>
    408c:	48 8d 35 67 b3 01 00 	lea    rsi,[rip+0x1b367]        # 1f3fa <realloc@@GLIBC_2.2.5+0x54ca>
    4093:	48 8d 3d ce cc 01 00 	lea    rdi,[rip+0x1ccce]        # 20d68 <realloc@@GLIBC_2.2.5+0x6e38>
    409a:	ba d8 07 00 00       	mov    edx,0x7d8
    409f:	e8 3c 5e 01 00       	call   19ee0 <free@@GLIBC_2.2.5+0x160>
    40a4:	48 8d 35 f3 b6 01 00 	lea    rsi,[rip+0x1b6f3]        # 1f79e <realloc@@GLIBC_2.2.5+0x586e>
    40ab:	48 8d 3d f3 b6 01 00 	lea    rdi,[rip+0x1b6f3]        # 1f7a5 <realloc@@GLIBC_2.2.5+0x5875>
    40b2:	31 c0                	xor    eax,eax
    40b4:	e8 f7 d4 00 00       	call   115b0 <_dl_debug_state@@GLIBC_PRIVATE+0x720>
    40b9:	48 8d 83 b8 02 00 00 	lea    rax,[rbx+0x2b8]
    40c0:	f6 05 da 1b 22 00 02 	test   BYTE PTR [rip+0x221bda],0x2        # 225ca1 <_rtld_global_ro@@GLIBC_PRIVATE+0x1>
    40c7:	48 8b 93 c0 02 00 00 	mov    rdx,QWORD PTR [rbx+0x2c0]
    40ce:	48 89 05 7b 1f 22 00 	mov    QWORD PTR [rip+0x221f7b],rax        # 226050 <_rtld_global@@GLIBC_PRIVATE+0x10>
    40d5:	48 8b 83 b8 02 00 00 	mov    rax,QWORD PTR [rbx+0x2b8]
    40dc:	48 89 15 ed 1b 22 00 	mov    QWORD PTR [rip+0x221bed],rdx        # 225cd0 <_rtld_global_ro@@GLIBC_PRIVATE+0x30>
    40e3:	48 89 05 de 1b 22 00 	mov    QWORD PTR [rip+0x221bde],rax        # 225cc8 <_rtld_global_ro@@GLIBC_PRIVATE+0x28>
    40ea:	48 8b 05 d7 28 22 00 	mov    rax,QWORD PTR [rip+0x2228d7]        # 2269c8 <_rtld_global@@GLIBC_PRIVATE+0x988>
    40f1:	48 89 05 98 1c 22 00 	mov    QWORD PTR [rip+0x221c98],rax        # 225d90 <_rtld_global_ro@@GLIBC_PRIVATE+0xf0>
    40f8:	0f 84 d5 fd ff ff    	je     3ed3 <free@plt+0x3423>
    40fe:	e9 7a ff ff ff       	jmp    407d <free@plt+0x35cd>
    4103:	48 8d 0d 26 ce 01 00 	lea    rcx,[rip+0x1ce26]        # 20f30 <realloc@@GLIBC_2.2.5+0x7000>
    410a:	48 8d 35 e9 b2 01 00 	lea    rsi,[rip+0x1b2e9]        # 1f3fa <realloc@@GLIBC_2.2.5+0x54ca>
    4111:	48 8d 3d 18 cc 01 00 	lea    rdi,[rip+0x1cc18]        # 20d30 <realloc@@GLIBC_2.2.5+0x6e00>
    4118:	ba 8a 07 00 00       	mov    edx,0x78a
    411d:	e8 be 5d 01 00       	call   19ee0 <free@@GLIBC_2.2.5+0x160>
    4122:	8b 05 78 1b 22 00    	mov    eax,DWORD PTR [rip+0x221b78]        # 225ca0 <_rtld_global_ro@@GLIBC_PRIVATE>
    4128:	41 89 c4             	mov    r12d,eax
    412b:	41 81 e4 00 08 00 00 	and    r12d,0x800
    4132:	0f 84 df 05 00 00    	je     4717 <free@plt+0x3c67>
    4138:	8b bb c0 02 00 00    	mov    edi,DWORD PTR [rbx+0x2c0]
    413e:	45 31 e4             	xor    r12d,r12d
    4141:	4c 8d 35 d5 b2 01 00 	lea    r14,[rip+0x1b2d5]        # 1f41d <realloc@@GLIBC_2.2.5+0x54ed>
    4148:	85 ff                	test   edi,edi
    414a:	74 43                	je     418f <free@plt+0x36df>
    414c:	48 8b 93 b8 02 00 00 	mov    rdx,QWORD PTR [rbx+0x2b8]
    4153:	44 89 e0             	mov    eax,r12d
    4156:	4c 8b 3c c2          	mov    r15,QWORD PTR [rdx+rax*8]
    415a:	41 f6 87 15 03 00 00 	test   BYTE PTR [r15+0x315],0x2
    4161:	02 
    4162:	0f 84 d5 00 00 00    	je     423d <free@plt+0x378d>
    4168:	49 8b 47 38          	mov    rax,QWORD PTR [r15+0x38]
    416c:	48 8d 35 43 b5 01 00 	lea    rsi,[rip+0x1b543]        # 1f6b6 <realloc@@GLIBC_2.2.5+0x5786>
    4173:	bf 01 00 00 00       	mov    edi,0x1
    4178:	48 8b 10             	mov    rdx,QWORD PTR [rax]
    417b:	31 c0                	xor    eax,eax
    417d:	e8 8e d5 00 00       	call   11710 <_dl_debug_state@@GLIBC_PRIVATE+0x880>
    4182:	41 83 c4 01          	add    r12d,0x1
    4186:	44 39 a3 c0 02 00 00 	cmp    DWORD PTR [rbx+0x2c0],r12d
    418d:	77 bd                	ja     414c <free@plt+0x369c>
    418f:	83 bd 68 ff ff ff 03 	cmp    DWORD PTR [rbp-0x98],0x3
    4196:	0f 85 fd 06 00 00    	jne    4899 <free@plt+0x3de9>
    419c:	8b 05 42 1b 22 00    	mov    eax,DWORD PTR [rip+0x221b42]        # 225ce4 <_rtld_global_ro@@GLIBC_PRIVATE+0x44>
    41a2:	85 c0                	test   eax,eax
    41a4:	0f 88 73 01 00 00    	js     431d <free@plt+0x386d>
    41aa:	44 8b 05 2b 1b 22 00 	mov    r8d,DWORD PTR [rip+0x221b2b]        # 225cdc <_rtld_global_ro@@GLIBC_PRIVATE+0x3c>
    41b1:	45 85 c0             	test   r8d,r8d
    41b4:	0f 84 63 01 00 00    	je     431d <free@plt+0x386d>
    41ba:	83 f8 01             	cmp    eax,0x1
    41bd:	4c 8d 35 14 28 22 00 	lea    r14,[rip+0x222814]        # 2269d8 <_rtld_global@@GLIBC_PRIVATE+0x998>
    41c4:	19 c0                	sbb    eax,eax
    41c6:	05 01 00 00 02       	add    eax,0x2000001
    41cb:	89 45 b8             	mov    DWORD PTR [rbp-0x48],eax
    41ce:	8b 83 c0 02 00 00    	mov    eax,DWORD PTR [rbx+0x2c0]
    41d4:	44 8d 60 ff          	lea    r12d,[rax-0x1]
    41d8:	41 83 fc ff          	cmp    r12d,0xffffffff
    41dc:	0f 84 08 01 00 00    	je     42ea <free@plt+0x383a>
    41e2:	48 8b 93 b8 03 00 00 	mov    rdx,QWORD PTR [rbx+0x3b8]
    41e9:	44 89 e0             	mov    eax,r12d
    41ec:	48 8b 04 c2          	mov    rax,QWORD PTR [rdx+rax*8]
    41f0:	4c 39 f0             	cmp    rax,r14
    41f3:	74 23                	je     4218 <free@plt+0x3768>
    41f5:	f6 80 15 03 00 00 02 	test   BYTE PTR [rax+0x315],0x2
    41fc:	75 1a                	jne    4218 <free@plt+0x3768>
    41fe:	48 8d 35 6b d3 ff ff 	lea    rsi,[rip+0xffffffffffffd36b]        # 1570 <free@plt+0xac0>
    4205:	48 8d 3d f4 cb ff ff 	lea    rdi,[rip+0xffffffffffffcbf4]        # e00 <free@plt+0x350>
    420c:	4c 89 ea             	mov    rdx,r13
    420f:	48 89 45 b0          	mov    QWORD PTR [rbp-0x50],rax
    4213:	e8 d8 c1 00 00       	call   103f0 <_dl_rtld_di_serinfo@@GLIBC_PRIVATE+0x6f70>
    4218:	41 83 ec 01          	sub    r12d,0x1
    421c:	eb ba                	jmp    41d8 <free@plt+0x3728>
    421e:	48 8d 0d 0b cd 01 00 	lea    rcx,[rip+0x1cd0b]        # 20f30 <realloc@@GLIBC_2.2.5+0x7000>
    4225:	48 8d 35 ce b1 01 00 	lea    rsi,[rip+0x1b1ce]        # 1f3fa <realloc@@GLIBC_2.2.5+0x54ca>
    422c:	48 8d 3d 8d ca 01 00 	lea    rdi,[rip+0x1ca8d]        # 20cc0 <realloc@@GLIBC_2.2.5+0x6d90>
    4233:	ba 7e 06 00 00       	mov    edx,0x67e
    4238:	e8 a3 5c 01 00       	call   19ee0 <free@@GLIBC_2.2.5+0x160>
    423d:	48 8b 3d 3c 1b 22 00 	mov    rdi,QWORD PTR [rip+0x221b3c]        # 225d80 <_rtld_global_ro@@GLIBC_PRIVATE+0xe0>
    4244:	4c 89 fe             	mov    rsi,r15
    4247:	e8 64 d5 00 00       	call   117b0 <_dl_debug_state@@GLIBC_PRIVATE+0x920>
    424c:	85 c0                	test   eax,eax
    424e:	74 07                	je     4257 <free@plt+0x37a7>
    4250:	4c 89 3d 31 1b 22 00 	mov    QWORD PTR [rip+0x221b31],r15        # 225d88 <_rtld_global_ro@@GLIBC_PRIVATE+0xe8>
    4257:	49 8b 4f 08          	mov    rcx,QWORD PTR [r15+0x8]
    425b:	49 8b 07             	mov    rax,QWORD PTR [r15]
    425e:	4d 8b 8f 40 03 00 00 	mov    r9,QWORD PTR [r15+0x340]
    4265:	80 39 00             	cmp    BYTE PTR [rcx],0x0
    4268:	75 11                	jne    427b <free@plt+0x37cb>
    426a:	48 8b 15 0f 1a 22 00 	mov    rdx,QWORD PTR [rip+0x221a0f]        # 225c80 <_dl_argv@@GLIBC_PRIVATE>
    4271:	48 8b 0a             	mov    rcx,QWORD PTR [rdx]
    4274:	48 85 c9             	test   rcx,rcx
    4277:	49 0f 44 ce          	cmove  rcx,r14
    427b:	49 8b 57 38          	mov    rdx,QWORD PTR [r15+0x38]
    427f:	48 8b 12             	mov    rdx,QWORD PTR [rdx]
    4282:	80 3a 00             	cmp    BYTE PTR [rdx],0x0
    4285:	75 11                	jne    4298 <free@plt+0x37e8>
    4287:	48 8b 15 f2 19 22 00 	mov    rdx,QWORD PTR [rip+0x2219f2]        # 225c80 <_dl_argv@@GLIBC_PRIVATE>
    428e:	48 8b 12             	mov    rdx,QWORD PTR [rdx]
    4291:	48 85 d2             	test   rdx,rdx
    4294:	49 0f 44 d6          	cmove  rdx,r14
    4298:	50                   	push   rax
    4299:	48 8d 35 28 b4 01 00 	lea    rsi,[rip+0x1b428]        # 1f6c8 <realloc@@GLIBC_2.2.5+0x5798>
    42a0:	6a 10                	push   0x10
    42a2:	31 c0                	xor    eax,eax
    42a4:	41 b8 10 00 00 00    	mov    r8d,0x10
    42aa:	bf 01 00 00 00       	mov    edi,0x1
    42af:	e8 5c d4 00 00       	call   11710 <_dl_debug_state@@GLIBC_PRIVATE+0x880>
    42b4:	49 8b 97 48 04 00 00 	mov    rdx,QWORD PTR [r15+0x448]
    42bb:	59                   	pop    rcx
    42bc:	5e                   	pop    rsi
    42bd:	48 85 d2             	test   rdx,rdx
    42c0:	0f 84 bf 04 00 00    	je     4785 <free@plt+0x3cd5>
    42c6:	4d 8b 87 40 04 00 00 	mov    r8,QWORD PTR [r15+0x440]
    42cd:	48 8d 35 11 b4 01 00 	lea    rsi,[rip+0x1b411]        # 1f6e5 <realloc@@GLIBC_2.2.5+0x57b5>
    42d4:	b9 10 00 00 00       	mov    ecx,0x10
    42d9:	bf 01 00 00 00       	mov    edi,0x1
    42de:	31 c0                	xor    eax,eax
    42e0:	e8 2b d4 00 00       	call   11710 <_dl_debug_state@@GLIBC_PRIVATE+0x880>
    42e5:	e9 98 fe ff ff       	jmp    4182 <free@plt+0x36d2>
    42ea:	f6 05 b0 19 22 00 08 	test   BYTE PTR [rip+0x2219b0],0x8        # 225ca1 <_rtld_global_ro@@GLIBC_PRIVATE+0x1>
    42f1:	74 2a                	je     431d <free@plt+0x386d>
    42f3:	80 bd 60 ff ff ff 00 	cmp    BYTE PTR [rbp-0xa0],0x0
    42fa:	74 21                	je     431d <free@plt+0x386d>
    42fc:	80 25 e9 29 22 00 fb 	and    BYTE PTR [rip+0x2229e9],0xfb        # 226cec <_rtld_global@@GLIBC_PRIVATE+0xcac>
    4303:	48 8d 3d ce 26 22 00 	lea    rdi,[rip+0x2226ce]        # 2269d8 <_rtld_global@@GLIBC_PRIVATE+0x998>
    430a:	31 c9                	xor    ecx,ecx
    430c:	48 8b b3 80 03 00 00 	mov    rsi,QWORD PTR [rbx+0x380]
    4313:	ba 00 00 00 02       	mov    edx,0x2000000
    4318:	e8 83 7d 00 00       	call   c0a0 <_dl_rtld_di_serinfo@@GLIBC_PRIVATE+0x2c20>
    431d:	8b 3d a1 18 22 00    	mov    edi,DWORD PTR [rip+0x2218a1]        # 225bc4 <realloc@@GLIBC_2.2.5+0x20bc94>
    4323:	85 ff                	test   edi,edi
    4325:	0f 84 62 05 00 00    	je     488d <free@plt+0x3ddd>
    432b:	48 89 9d 50 ff ff ff 	mov    QWORD PTR [rbp-0xb0],rbx
    4332:	b8 01 00 00 00       	mov    eax,0x1
    4337:	48 89 9d 30 ff ff ff 	mov    QWORD PTR [rbp-0xd0],rbx
    433e:	48 8b 9d 50 ff ff ff 	mov    rbx,QWORD PTR [rbp-0xb0]
    4345:	48 8b 93 58 01 00 00 	mov    rdx,QWORD PTR [rbx+0x158]
    434c:	48 85 d2             	test   rdx,rdx
    434f:	0f 84 16 05 00 00    	je     486b <free@plt+0x3dbb>
    4355:	48 8b 4b 68          	mov    rcx,QWORD PTR [rbx+0x68]
    4359:	4c 8b 6a 08          	mov    r13,QWORD PTR [rdx+0x8]
    435d:	4c 03 2b             	add    r13,QWORD PTR [rbx]
    4360:	85 c0                	test   eax,eax
    4362:	48 8b 49 08          	mov    rcx,QWORD PTR [rcx+0x8]
    4366:	48 89 8d 68 ff ff ff 	mov    QWORD PTR [rbp-0x98],rcx
    436d:	74 13                	je     4382 <free@plt+0x38d2>
    436f:	48 8d 35 df b3 01 00 	lea    rsi,[rip+0x1b3df]        # 1f755 <realloc@@GLIBC_2.2.5+0x5825>
    4376:	bf 01 00 00 00       	mov    edi,0x1
    437b:	31 c0                	xor    eax,eax
    437d:	e8 8e d3 00 00       	call   11710 <_dl_debug_state@@GLIBC_PRIVATE+0x880>
    4382:	48 8b 85 50 ff ff ff 	mov    rax,QWORD PTR [rbp-0xb0]
    4389:	48 8b 50 08          	mov    rdx,QWORD PTR [rax+0x8]
    438d:	80 3a 00             	cmp    BYTE PTR [rdx],0x0
    4390:	75 18                	jne    43aa <free@plt+0x38fa>
    4392:	48 8b 05 e7 18 22 00 	mov    rax,QWORD PTR [rip+0x2218e7]        # 225c80 <_dl_argv@@GLIBC_PRIVATE>
    4399:	48 8b 10             	mov    rdx,QWORD PTR [rax]
    439c:	48 8d 05 7a b0 01 00 	lea    rax,[rip+0x1b07a]        # 1f41d <realloc@@GLIBC_2.2.5+0x54ed>
    43a3:	48 85 d2             	test   rdx,rdx
    43a6:	48 0f 44 d0          	cmove  rdx,rax
    43aa:	48 8d 35 bc b3 01 00 	lea    rsi,[rip+0x1b3bc]        # 1f76d <realloc@@GLIBC_2.2.5+0x583d>
    43b1:	bf 01 00 00 00       	mov    edi,0x1
    43b6:	31 c0                	xor    eax,eax
    43b8:	e8 53 d3 00 00       	call   11710 <_dl_debug_state@@GLIBC_PRIVATE+0x880>
    43bd:	4c 8b 25 7c 1c 22 00 	mov    r12,QWORD PTR [rip+0x221c7c]        # 226040 <_rtld_global@@GLIBC_PRIVATE>
    43c4:	45 8b 75 04          	mov    r14d,DWORD PTR [r13+0x4]
    43c8:	4c 03 b5 68 ff ff ff 	add    r14,QWORD PTR [rbp-0x98]
    43cf:	41 8b 84 24 c0 02 00 	mov    eax,DWORD PTR [r12+0x2c0]
    43d6:	00 
    43d7:	8d 58 ff             	lea    ebx,[rax-0x1]
    43da:	eb 29                	jmp    4405 <free@plt+0x3955>
    43dc:	49 8b 94 24 b8 02 00 	mov    rdx,QWORD PTR [r12+0x2b8]
    43e3:	00 
    43e4:	89 d8                	mov    eax,ebx
    43e6:	4c 89 f7             	mov    rdi,r14
    43e9:	4c 8d 3c c5 00 00 00 	lea    r15,[rax*8+0x0]
    43f0:	00 
    43f1:	83 eb 01             	sub    ebx,0x1
    43f4:	48 8b 34 c2          	mov    rsi,QWORD PTR [rdx+rax*8]
    43f8:	e8 b3 d3 00 00       	call   117b0 <_dl_debug_state@@GLIBC_PRIVATE+0x920>
    43fd:	85 c0                	test   eax,eax
    43ff:	0f 85 0c 01 00 00    	jne    4511 <free@plt+0x3a61>
    4405:	83 fb ff             	cmp    ebx,0xffffffff
    4408:	75 d2                	jne    43dc <free@plt+0x392c>
    440a:	45 31 ff             	xor    r15d,r15d
    440d:	45 8b 75 08          	mov    r14d,DWORD PTR [r13+0x8]
    4411:	4c 89 ad 48 ff ff ff 	mov    QWORD PTR [rbp-0xb8],r13
    4418:	4b 8d 44 35 00       	lea    rax,[r13+r14*1+0x0]
    441d:	49 89 c6             	mov    r14,rax
    4420:	41 8b 5e 08          	mov    ebx,DWORD PTR [r14+0x8]
    4424:	48 03 9d 68 ff ff ff 	add    rbx,QWORD PTR [rbp-0x98]
    442b:	4d 85 ff             	test   r15,r15
    442e:	0f 84 b9 00 00 00    	je     44ed <free@plt+0x3a3d>
    4434:	49 8b 47 68          	mov    rax,QWORD PTR [r15+0x68]
    4438:	4c 8b 60 08          	mov    r12,QWORD PTR [rax+0x8]
    443c:	49 8b 87 68 01 00 00 	mov    rax,QWORD PTR [r15+0x168]
    4443:	48 85 c0             	test   rax,rax
    4446:	0f 84 a1 00 00 00    	je     44ed <free@plt+0x3a3d>
    444c:	49 8b 17             	mov    rdx,QWORD PTR [r15]
    444f:	48 03 50 08          	add    rdx,QWORD PTR [rax+0x8]
    4453:	49 89 d5             	mov    r13,rdx
    4456:	eb 17                	jmp    446f <free@plt+0x39bf>
    4458:	0f 1f 84 00 00 00 00 	nop    DWORD PTR [rax+rax*1+0x0]
    445f:	00 
    4460:	41 8b 45 10          	mov    eax,DWORD PTR [r13+0x10]
    4464:	85 c0                	test   eax,eax
    4466:	0f 84 81 00 00 00    	je     44ed <free@plt+0x3a3d>
    446c:	49 01 c5             	add    r13,rax
    446f:	41 8b 45 0c          	mov    eax,DWORD PTR [r13+0xc]
    4473:	48 89 df             	mov    rdi,rbx
    4476:	41 8b 74 05 00       	mov    esi,DWORD PTR [r13+rax*1+0x0]
    447b:	4c 01 e6             	add    rsi,r12
    447e:	e8 ad 74 01 00       	call   1b930 <realloc@@GLIBC_2.2.5+0x1a00>
    4483:	85 c0                	test   eax,eax
    4485:	75 d9                	jne    4460 <free@plt+0x39b0>
    4487:	4d 8b 4f 08          	mov    r9,QWORD PTR [r15+0x8]
    448b:	4d 85 c9             	test   r9,r9
    448e:	74 5d                	je     44ed <free@plt+0x3a3d>
    4490:	41 f6 46 04 02       	test   BYTE PTR [r14+0x4],0x2
    4495:	48 8d 05 0a b2 01 00 	lea    rax,[rip+0x1b20a]        # 1f6a6 <realloc@@GLIBC_2.2.5+0x5776>
    449c:	4c 8d 05 93 af 01 00 	lea    r8,[rip+0x1af93]        # 1f436 <realloc@@GLIBC_2.2.5+0x5506>
    44a3:	48 8d 35 c9 b2 01 00 	lea    rsi,[rip+0x1b2c9]        # 1f773 <realloc@@GLIBC_2.2.5+0x5843>
    44aa:	48 89 d9             	mov    rcx,rbx
    44ad:	bf 01 00 00 00       	mov    edi,0x1
    44b2:	4c 0f 44 c0          	cmove  r8,rax
    44b6:	48 8b 85 48 ff ff ff 	mov    rax,QWORD PTR [rbp-0xb8]
    44bd:	8b 50 04             	mov    edx,DWORD PTR [rax+0x4]
    44c0:	31 c0                	xor    eax,eax
    44c2:	48 03 95 68 ff ff ff 	add    rdx,QWORD PTR [rbp-0x98]
    44c9:	e8 42 d2 00 00       	call   11710 <_dl_debug_state@@GLIBC_PRIVATE+0x880>
    44ce:	41 8b 46 0c          	mov    eax,DWORD PTR [r14+0xc]
    44d2:	85 c0                	test   eax,eax
    44d4:	74 20                	je     44f6 <free@plt+0x3a46>
    44d6:	49 01 c6             	add    r14,rax
    44d9:	41 8b 5e 08          	mov    ebx,DWORD PTR [r14+0x8]
    44dd:	48 03 9d 68 ff ff ff 	add    rbx,QWORD PTR [rbp-0x98]
    44e4:	4d 85 ff             	test   r15,r15
    44e7:	0f 85 47 ff ff ff    	jne    4434 <free@plt+0x3984>
    44ed:	4c 8d 0d 38 af 01 00 	lea    r9,[rip+0x1af38]        # 1f42c <realloc@@GLIBC_2.2.5+0x54fc>
    44f4:	eb 9a                	jmp    4490 <free@plt+0x39e0>
    44f6:	4c 8b ad 48 ff ff ff 	mov    r13,QWORD PTR [rbp-0xb8]
    44fd:	41 8b 45 0c          	mov    eax,DWORD PTR [r13+0xc]
    4501:	85 c0                	test   eax,eax
    4503:	0f 84 60 03 00 00    	je     4869 <free@plt+0x3db9>
    4509:	49 01 c5             	add    r13,rax
    450c:	e9 ac fe ff ff       	jmp    43bd <free@plt+0x390d>
    4511:	49 8b 84 24 b8 02 00 	mov    rax,QWORD PTR [r12+0x2b8]
    4518:	00 
    4519:	4e 8b 3c 38          	mov    r15,QWORD PTR [rax+r15*1]
    451d:	e9 eb fe ff ff       	jmp    440d <free@plt+0x395d>
    4522:	48 8b b5 60 ff ff ff 	mov    rsi,QWORD PTR [rbp-0xa0]
    4529:	48 8d 3d 10 de 01 00 	lea    rdi,[rip+0x1de10]        # 22340 <realloc@@GLIBC_2.2.5+0x8410>
    4530:	ba 03 00 00 00       	mov    edx,0x3
    4535:	e8 e6 cf 00 00       	call   11520 <_dl_debug_state@@GLIBC_PRIVATE+0x690>
    453a:	48 83 f8 ff          	cmp    rax,0xffffffffffffffff
    453e:	49 89 c6             	mov    r14,rax
    4541:	0f 84 71 ef ff ff    	je     34b8 <free@plt+0x2a08>
    4547:	4c 8b 6d a0          	mov    r13,QWORD PTR [rbp-0x60]
    454b:	48 89 45 b0          	mov    QWORD PTR [rbp-0x50],rax
    454f:	4d 85 ed             	test   r13,r13
    4552:	0f 84 17 06 00 00    	je     4b6f <free@plt+0x40bf>
    4558:	49 89 c7             	mov    r15,rax
    455b:	4c 89 ea             	mov    rdx,r13
    455e:	be 23 00 00 00       	mov    esi,0x23
    4563:	4c 89 ff             	mov    rdi,r15
    4566:	e8 15 8c 01 00       	call   1d180 <realloc@@GLIBC_2.2.5+0x3250>
    456b:	48 85 c0             	test   rax,rax
    456e:	0f 84 3f 05 00 00    	je     4ab3 <free@plt+0x4003>
    4574:	48 89 c2             	mov    rdx,rax
    4577:	4c 29 fa             	sub    rdx,r15
    457a:	49 29 d5             	sub    r13,rdx
    457d:	49 83 ed 01          	sub    r13,0x1
    4581:	c6 00 20             	mov    BYTE PTR [rax],0x20
    4584:	0f 84 29 05 00 00    	je     4ab3 <free@plt+0x4003>
    458a:	48 83 c0 01          	add    rax,0x1
    458e:	80 38 0a             	cmp    BYTE PTR [rax],0xa
    4591:	75 ea                	jne    457d <free@plt+0x3acd>
    4593:	4c 8b 7d b0          	mov    r15,QWORD PTR [rbp-0x50]
    4597:	eb c2                	jmp    455b <free@plt+0x3aab>
    4599:	4c 89 ef             	mov    rdi,r13
    459c:	e8 1f 88 01 00       	call   1cdc0 <realloc@@GLIBC_2.2.5+0x2e90>
    45a1:	48 8d 50 01          	lea    rdx,[rax+0x1]
    45a5:	48 83 c0 1f          	add    rax,0x1f
    45a9:	4c 89 ee             	mov    rsi,r13
    45ac:	48 83 e0 f0          	and    rax,0xfffffffffffffff0
    45b0:	48 29 c4             	sub    rsp,rax
    45b3:	48 8d 7c 24 0f       	lea    rdi,[rsp+0xf]
    45b8:	48 83 e7 f0          	and    rdi,0xfffffffffffffff0
    45bc:	e8 8f 97 01 00       	call   1dd50 <realloc@@GLIBC_2.2.5+0x3e20>
    45c1:	48 89 45 b0          	mov    QWORD PTR [rbp-0x50],rax
    45c5:	0f 31                	rdtsc
    45c7:	48 c1 e2 20          	shl    rdx,0x20
    45cb:	89 c0                	mov    eax,eax
    45cd:	4c 8d 6d b0          	lea    r13,[rbp-0x50]
    45d1:	48 09 c2             	or     rdx,rax
    45d4:	49 89 d6             	mov    r14,rdx
    45d7:	48 8d 35 c1 b0 01 00 	lea    rsi,[rip+0x1b0c1]        # 1f69f <realloc@@GLIBC_2.2.5+0x576f>
    45de:	4c 89 ef             	mov    rdi,r13
    45e1:	e8 7a 5c 01 00       	call   1a260 <realloc@@GLIBC_2.2.5+0x330>
    45e6:	48 85 c0             	test   rax,rax
    45e9:	49 89 c7             	mov    r15,rax
    45ec:	0f 84 a7 04 00 00    	je     4a99 <free@plt+0x3fe9>
    45f2:	41 80 3f 00          	cmp    BYTE PTR [r15],0x0
    45f6:	74 df                	je     45d7 <free@plt+0x3b27>
    45f8:	44 8b 15 69 18 22 00 	mov    r10d,DWORD PTR [rip+0x221869]        # 225e68 <__libc_enable_secure@@GLIBC_PRIVATE>
    45ff:	45 85 d2             	test   r10d,r10d
    4602:	75 17                	jne    461b <free@plt+0x3b6b>
    4604:	48 8d 15 89 b0 01 00 	lea    rdx,[rip+0x1b089]        # 1f694 <realloc@@GLIBC_2.2.5+0x5764>
    460b:	48 89 de             	mov    rsi,rbx
    460e:	4c 89 ff             	mov    rdi,r15
    4611:	e8 aa c4 ff ff       	call   ac0 <free@plt+0x10>
    4616:	41 01 c4             	add    r12d,eax
    4619:	eb bc                	jmp    45d7 <free@plt+0x3b27>
    461b:	be 2f 00 00 00       	mov    esi,0x2f
    4620:	4c 89 ff             	mov    rdi,r15
    4623:	e8 e8 70 01 00       	call   1b710 <realloc@@GLIBC_2.2.5+0x17e0>
    4628:	48 85 c0             	test   rax,rax
    462b:	75 aa                	jne    45d7 <free@plt+0x3b27>
    462d:	eb d5                	jmp    4604 <free@plt+0x3b54>
    462f:	48 8d 0d fa c8 01 00 	lea    rcx,[rip+0x1c8fa]        # 20f30 <realloc@@GLIBC_2.2.5+0x7000>
    4636:	48 8d 35 bd ad 01 00 	lea    rsi,[rip+0x1adbd]        # 1f3fa <realloc@@GLIBC_2.2.5+0x54ca>
    463d:	48 8d 3d 39 b0 01 00 	lea    rdi,[rip+0x1b039]        # 1f67d <realloc@@GLIBC_2.2.5+0x574d>
    4644:	ba c8 05 00 00       	mov    edx,0x5c8
    4649:	e8 92 58 01 00       	call   19ee0 <free@@GLIBC_2.2.5+0x160>
    464e:	4c 8b 2d ab 17 22 00 	mov    r13,QWORD PTR [rip+0x2217ab]        # 225e00 <_rtld_global_ro@@GLIBC_PRIVATE+0x160>
    4655:	45 31 e4             	xor    r12d,r12d
    4658:	49 8b 45 00          	mov    rax,QWORD PTR [r13+0x0]
    465c:	48 85 c0             	test   rax,rax
    465f:	74 1b                	je     467c <free@plt+0x3bcc>
    4661:	44 89 e7             	mov    edi,r12d
    4664:	be 01 00 00 00       	mov    esi,0x1
    4669:	48 83 c7 47          	add    rdi,0x47
    466d:	48 c1 e7 04          	shl    rdi,0x4
    4671:	48 01 df             	add    rdi,rbx
    4674:	ff d0                	call   rax
    4676:	8b 15 8c 17 22 00    	mov    edx,DWORD PTR [rip+0x22178c]        # 225e08 <_rtld_global_ro@@GLIBC_PRIVATE+0x168>
    467c:	41 83 c4 01          	add    r12d,0x1
    4680:	4d 8b 6d 40          	mov    r13,QWORD PTR [r13+0x40]
    4684:	41 39 d4             	cmp    r12d,edx
    4687:	72 cf                	jb     4658 <free@plt+0x3ba8>
    4689:	e9 ed ed ff ff       	jmp    347b <free@plt+0x29cb>
    468e:	48 8b 57 18          	mov    rdx,QWORD PTR [rdi+0x18]
    4692:	48 89 15 57 23 22 00 	mov    QWORD PTR [rip+0x222357],rdx        # 2269f0 <_rtld_global@@GLIBC_PRIVATE+0x9b0>
    4699:	48 8b 4f 18          	mov    rcx,QWORD PTR [rdi+0x18]
    469d:	e9 95 f3 ff ff       	jmp    3a37 <free@plt+0x2f87>
    46a2:	31 d2                	xor    edx,edx
    46a4:	b8 01 00 00 00       	mov    eax,0x1
    46a9:	e9 34 f3 ff ff       	jmp    39e2 <free@plt+0x2f32>
    46ae:	48 8d 0d 7b c8 01 00 	lea    rcx,[rip+0x1c87b]        # 20f30 <realloc@@GLIBC_2.2.5+0x7000>
    46b5:	48 8d 35 3e ad 01 00 	lea    rsi,[rip+0x1ad3e]        # 1f3fa <realloc@@GLIBC_2.2.5+0x54ca>
    46bc:	48 8d 3d 75 c5 01 00 	lea    rdi,[rip+0x1c575]        # 20c38 <realloc@@GLIBC_2.2.5+0x6d08>
    46c3:	ba 76 05 00 00       	mov    edx,0x576
    46c8:	e8 13 58 01 00       	call   19ee0 <free@@GLIBC_2.2.5+0x160>
    46cd:	48 8d 0d 5c c8 01 00 	lea    rcx,[rip+0x1c85c]        # 20f30 <realloc@@GLIBC_2.2.5+0x7000>
    46d4:	48 8d 35 1f ad 01 00 	lea    rsi,[rip+0x1ad1f]        # 1f3fa <realloc@@GLIBC_2.2.5+0x54ca>
    46db:	48 8d 3d 7e c5 01 00 	lea    rdi,[rip+0x1c57e]        # 20c60 <realloc@@GLIBC_2.2.5+0x6d30>
    46e2:	ba 77 05 00 00       	mov    edx,0x577
    46e7:	e8 f4 57 01 00       	call   19ee0 <free@@GLIBC_2.2.5+0x160>
    46ec:	c6 85 60 ff ff ff 01 	mov    BYTE PTR [rbp-0xa0],0x1
    46f3:	e9 7f f3 ff ff       	jmp    3a77 <free@plt+0x2fc7>
    46f8:	48 8d 0d 31 c8 01 00 	lea    rcx,[rip+0x1c831]        # 20f30 <realloc@@GLIBC_2.2.5+0x7000>
    46ff:	48 8d 35 f4 ac 01 00 	lea    rsi,[rip+0x1acf4]        # 1f3fa <realloc@@GLIBC_2.2.5+0x54ca>
    4706:	48 8d 3d 73 c5 01 00 	lea    rdi,[rip+0x1c573]        # 20c80 <realloc@@GLIBC_2.2.5+0x6d50>
    470d:	ba 7a 06 00 00       	mov    edx,0x67a
    4712:	e8 c9 57 01 00       	call   19ee0 <free@@GLIBC_2.2.5+0x160>
    4717:	f6 c4 01             	test   ah,0x1
    471a:	0f 84 d2 00 00 00    	je     47f2 <free@plt+0x3d42>
    4720:	83 3d bd 15 22 00 01 	cmp    DWORD PTR [rip+0x2215bd],0x1        # 225ce4 <_rtld_global_ro@@GLIBC_PRIVATE+0x44>
    4727:	48 8d 35 42 ce ff ff 	lea    rsi,[rip+0xffffffffffffce42]        # 1570 <free@plt+0xac0>
    472e:	48 8d 3d cb c6 ff ff 	lea    rdi,[rip+0xffffffffffffc6cb]        # e00 <free@plt+0x350>
    4735:	4c 89 ea             	mov    rdx,r13
    4738:	48 89 5d b0          	mov    QWORD PTR [rbp-0x50],rbx
    473c:	19 c0                	sbb    eax,eax
    473e:	05 01 00 00 02       	add    eax,0x2000001
    4743:	89 45 b8             	mov    DWORD PTR [rbp-0x48],eax
    4746:	e8 a5 bc 00 00       	call   103f0 <_dl_rtld_di_serinfo@@GLIBC_PRIVATE+0x6f70>
    474b:	4c 8b 73 10          	mov    r14,QWORD PTR [rbx+0x10]
    474f:	49 8b 16             	mov    rdx,QWORD PTR [r14]
    4752:	48 85 d2             	test   rdx,rdx
    4755:	74 21                	je     4778 <free@plt+0x3cc8>
    4757:	49 89 dc             	mov    r12,rbx
    475a:	b8 01 00 00 00       	mov    eax,0x1
    475f:	48 83 fa 01          	cmp    rdx,0x1
    4763:	74 38                	je     479d <free@plt+0x3ced>
    4765:	49 83 c6 10          	add    r14,0x10
    4769:	49 8b 16             	mov    rdx,QWORD PTR [r14]
    476c:	48 85 d2             	test   rdx,rdx
    476f:	75 ee                	jne    475f <free@plt+0x3caf>
    4771:	83 f0 01             	xor    eax,0x1
    4774:	44 0f b6 e0          	movzx  r12d,al
    4778:	44 89 e7             	mov    edi,r12d
    477b:	e8 20 6c 01 00       	call   1b3a0 <realloc@@GLIBC_2.2.5+0x1470>
    4780:	e9 0a fa ff ff       	jmp    418f <free@plt+0x36df>
    4785:	48 8d 35 19 af 01 00 	lea    rsi,[rip+0x1af19]        # 1f6a5 <realloc@@GLIBC_2.2.5+0x5775>
    478c:	bf 01 00 00 00       	mov    edi,0x1
    4791:	31 c0                	xor    eax,eax
    4793:	e8 78 cf 00 00       	call   11710 <_dl_debug_state@@GLIBC_PRIVATE+0x880>
    4798:	e9 e5 f9 ff ff       	jmp    4182 <free@plt+0x36d2>
    479d:	4d 8b 64 24 18       	mov    r12,QWORD PTR [r12+0x18]
    47a2:	4c 3b 25 f7 15 22 00 	cmp    r12,QWORD PTR [rip+0x2215f7]        # 225da0 <_rtld_global_ro@@GLIBC_PRIVATE+0x100>
    47a9:	75 05                	jne    47b0 <free@plt+0x3d00>
    47ab:	4d 8b 64 24 18       	mov    r12,QWORD PTR [r12+0x18]
    47b0:	41 8b 94 24 cc 03 00 	mov    edx,DWORD PTR [r12+0x3cc]
    47b7:	00 
    47b8:	85 d2                	test   edx,edx
    47ba:	75 a9                	jne    4765 <free@plt+0x3cb5>
    47bc:	84 c0                	test   al,al
    47be:	74 13                	je     47d3 <free@plt+0x3d23>
    47c0:	48 8d 35 34 af 01 00 	lea    rsi,[rip+0x1af34]        # 1f6fb <realloc@@GLIBC_2.2.5+0x57cb>
    47c7:	bf 01 00 00 00       	mov    edi,0x1
    47cc:	31 c0                	xor    eax,eax
    47ce:	e8 3d cf 00 00       	call   11710 <_dl_debug_state@@GLIBC_PRIVATE+0x880>
    47d3:	49 8b 54 24 08       	mov    rdx,QWORD PTR [r12+0x8]
    47d8:	48 8d 35 39 af 01 00 	lea    rsi,[rip+0x1af39]        # 1f718 <realloc@@GLIBC_2.2.5+0x57e8>
    47df:	31 c0                	xor    eax,eax
    47e1:	bf 01 00 00 00       	mov    edi,0x1
    47e6:	e8 25 cf 00 00       	call   11710 <_dl_debug_state@@GLIBC_PRIVATE+0x880>
    47eb:	31 c0                	xor    eax,eax
    47ed:	e9 73 ff ff ff       	jmp    4765 <free@plt+0x3cb5>
    47f2:	48 83 7b 48 00       	cmp    QWORD PTR [rbx+0x48],0x0
    47f7:	0f 84 8c 01 00 00    	je     4989 <free@plt+0x3ed9>
    47fd:	4c 8b 63 18          	mov    r12,QWORD PTR [rbx+0x18]
    4801:	4d 85 e4             	test   r12,r12
    4804:	0f 84 85 f9 ff ff    	je     418f <free@plt+0x36df>
    480a:	41 f6 84 24 15 03 00 	test   BYTE PTR [r12+0x315],0x2
    4811:	00 02 
    4813:	0f 85 50 01 00 00    	jne    4969 <free@plt+0x3eb9>
    4819:	49 8b 44 24 38       	mov    rax,QWORD PTR [r12+0x38]
    481e:	4d 8b 7c 24 08       	mov    r15,QWORD PTR [r12+0x8]
    4823:	4c 8b 30             	mov    r14,QWORD PTR [rax]
    4826:	4c 89 fe             	mov    rsi,r15
    4829:	4c 89 f7             	mov    rdi,r14
    482c:	e8 ff 70 01 00       	call   1b930 <realloc@@GLIBC_2.2.5+0x1a00>
    4831:	85 c0                	test   eax,eax
    4833:	0f 85 00 01 00 00    	jne    4939 <free@plt+0x3e89>
    4839:	4d 8b 84 24 40 03 00 	mov    r8,QWORD PTR [r12+0x340]
    4840:	00 
    4841:	48 8d 35 e9 ae 01 00 	lea    rsi,[rip+0x1aee9]        # 1f731 <realloc@@GLIBC_2.2.5+0x5801>
    4848:	b9 10 00 00 00       	mov    ecx,0x10
    484d:	4c 89 f2             	mov    rdx,r14
    4850:	bf 01 00 00 00       	mov    edi,0x1
    4855:	e8 b6 ce 00 00       	call   11710 <_dl_debug_state@@GLIBC_PRIVATE+0x880>
    485a:	4d 8b 64 24 18       	mov    r12,QWORD PTR [r12+0x18]
    485f:	4d 85 e4             	test   r12,r12
    4862:	75 a6                	jne    480a <free@plt+0x3d5a>
    4864:	e9 26 f9 ff ff       	jmp    418f <free@plt+0x36df>
    4869:	31 c0                	xor    eax,eax
    486b:	48 8b 8d 50 ff ff ff 	mov    rcx,QWORD PTR [rbp-0xb0]
    4872:	48 8b 49 18          	mov    rcx,QWORD PTR [rcx+0x18]
    4876:	48 85 c9             	test   rcx,rcx
    4879:	48 89 8d 50 ff ff ff 	mov    QWORD PTR [rbp-0xb0],rcx
    4880:	0f 85 b8 fa ff ff    	jne    433e <free@plt+0x388e>
    4886:	48 8b 9d 30 ff ff ff 	mov    rbx,QWORD PTR [rbp-0xd0]
    488d:	31 ff                	xor    edi,edi
    488f:	e8 0c 6b 01 00       	call   1b3a0 <realloc@@GLIBC_2.2.5+0x1470>
    4894:	e9 7f f2 ff ff       	jmp    3b18 <free@plt+0x3068>
    4899:	83 3d e8 13 22 00 01 	cmp    DWORD PTR [rip+0x2213e8],0x1        # 225c88 <_dl_argv@@GLIBC_PRIVATE+0x8>
    48a0:	41 be 01 00 00 00    	mov    r14d,0x1
    48a6:	76 e5                	jbe    488d <free@plt+0x3ddd>
    48a8:	48 8b 05 d1 13 22 00 	mov    rax,QWORD PTR [rip+0x2213d1]        # 225c80 <_dl_argv@@GLIBC_PRIVATE>
    48af:	45 89 f4             	mov    r12d,r14d
    48b2:	48 c7 45 b0 00 00 00 	mov    QWORD PTR [rbp-0x50],0x0
    48b9:	00 
    48ba:	48 8b 8b 80 03 00 00 	mov    rcx,QWORD PTR [rbx+0x380]
    48c1:	45 31 c0             	xor    r8d,r8d
    48c4:	41 b9 01 00 00 00    	mov    r9d,0x1
    48ca:	4c 89 ea             	mov    rdx,r13
    48cd:	48 89 de             	mov    rsi,rbx
    48d0:	4a 8b 3c e0          	mov    rdi,QWORD PTR [rax+r12*8]
    48d4:	6a 00                	push   0x0
    48d6:	6a 01                	push   0x1
    48d8:	e8 23 5f 00 00       	call   a800 <_dl_rtld_di_serinfo@@GLIBC_PRIVATE+0x1380>
    48dd:	48 85 c0             	test   rax,rax
    48e0:	41 5b                	pop    r11
    48e2:	41 5f                	pop    r15
    48e4:	74 7f                	je     4965 <free@plt+0x3eb5>
    48e6:	48 8b 00             	mov    rax,QWORD PTR [rax]
    48e9:	48 8b 4d b0          	mov    rcx,QWORD PTR [rbp-0x50]
    48ed:	48 8b 15 8c 13 22 00 	mov    rdx,QWORD PTR [rip+0x22138c]        # 225c80 <_dl_argv@@GLIBC_PRIVATE>
    48f4:	48 83 ec 08          	sub    rsp,0x8
    48f8:	48 8d 35 01 c4 01 00 	lea    rsi,[rip+0x1c401]        # 20d00 <realloc@@GLIBC_2.2.5+0x6dd0>
    48ff:	41 b9 10 00 00 00    	mov    r9d,0x10
    4905:	bf 01 00 00 00       	mov    edi,0x1
    490a:	41 83 c6 01          	add    r14d,0x1
    490e:	4a 8b 14 e2          	mov    rdx,QWORD PTR [rdx+r12*8]
    4912:	50                   	push   rax
    4913:	31 c0                	xor    eax,eax
    4915:	4c 8b 41 08          	mov    r8,QWORD PTR [rcx+0x8]
    4919:	b9 10 00 00 00       	mov    ecx,0x10
    491e:	e8 ed cd 00 00       	call   11710 <_dl_debug_state@@GLIBC_PRIVATE+0x880>
    4923:	44 39 35 5e 13 22 00 	cmp    DWORD PTR [rip+0x22135e],r14d        # 225c88 <_dl_argv@@GLIBC_PRIVATE+0x8>
    492a:	41 59                	pop    r9
    492c:	41 5a                	pop    r10
    492e:	0f 87 74 ff ff ff    	ja     48a8 <free@plt+0x3df8>
    4934:	e9 54 ff ff ff       	jmp    488d <free@plt+0x3ddd>
    4939:	4d 8b 8c 24 40 03 00 	mov    r9,QWORD PTR [r12+0x340]
    4940:	00 
    4941:	48 8d 35 f8 ad 01 00 	lea    rsi,[rip+0x1adf8]        # 1f740 <realloc@@GLIBC_2.2.5+0x5810>
    4948:	41 b8 10 00 00 00    	mov    r8d,0x10
    494e:	4c 89 f9             	mov    rcx,r15
    4951:	4c 89 f2             	mov    rdx,r14
    4954:	bf 01 00 00 00       	mov    edi,0x1
    4959:	31 c0                	xor    eax,eax
    495b:	e8 b0 cd 00 00       	call   11710 <_dl_debug_state@@GLIBC_PRIVATE+0x880>
    4960:	e9 f5 fe ff ff       	jmp    485a <free@plt+0x3daa>
    4965:	31 c0                	xor    eax,eax
    4967:	eb 80                	jmp    48e9 <free@plt+0x3e39>
    4969:	49 8b 44 24 38       	mov    rax,QWORD PTR [r12+0x38]
    496e:	48 8d 35 41 ad 01 00 	lea    rsi,[rip+0x1ad41]        # 1f6b6 <realloc@@GLIBC_2.2.5+0x5786>
    4975:	bf 01 00 00 00       	mov    edi,0x1
    497a:	48 8b 10             	mov    rdx,QWORD PTR [rax]
    497d:	31 c0                	xor    eax,eax
    497f:	e8 8c cd 00 00       	call   11710 <_dl_debug_state@@GLIBC_PRIVATE+0x880>
    4984:	e9 d1 fe ff ff       	jmp    485a <free@plt+0x3daa>
    4989:	48 8d 35 8d ad 01 00 	lea    rsi,[rip+0x1ad8d]        # 1f71d <realloc@@GLIBC_2.2.5+0x57ed>
    4990:	bf 01 00 00 00       	mov    edi,0x1
    4995:	31 c0                	xor    eax,eax
    4997:	e8 74 cd 00 00       	call   11710 <_dl_debug_state@@GLIBC_PRIVATE+0x880>
    499c:	e9 ee f7 ff ff       	jmp    418f <free@plt+0x36df>
    49a1:	49 8d 7f 06          	lea    rdi,[r15+0x6]
    49a5:	e8 e6 cb ff ff       	call   1590 <free@plt+0xae0>
    49aa:	e9 b5 d0 ff ff       	jmp    1a64 <free@plt+0xfb4>
    49af:	89 c6                	mov    esi,eax
    49b1:	81 e6 16 f7 ff ff    	and    esi,0xfffff716
    49b7:	0f 84 2d d8 ff ff    	je     21ea <free@plt+0x173a>
    49bd:	48 8d 3d 5c c1 01 00 	lea    rdi,[rip+0x1c15c]        # 20b20 <realloc@@GLIBC_2.2.5+0x6bf0>
    49c4:	31 c0                	xor    eax,eax
    49c6:	e8 e5 cb 00 00       	call   115b0 <_dl_debug_state@@GLIBC_PRIVATE+0x720>
    49cb:	8b 93 d4 03 00 00    	mov    edx,DWORD PTR [rbx+0x3d4]
    49d1:	e9 14 d8 ff ff       	jmp    21ea <free@plt+0x173a>
    49d6:	48 8d 35 7a aa 01 00 	lea    rsi,[rip+0x1aa7a]        # 1f457 <realloc@@GLIBC_2.2.5+0x5527>
    49dd:	ba 07 00 00 00       	mov    edx,0x7
    49e2:	4c 89 ff             	mov    rdi,r15
    49e5:	e8 e6 8a 01 00       	call   1d4d0 <realloc@@GLIBC_2.2.5+0x35a0>
    49ea:	85 c0                	test   eax,eax
    49ec:	0f 85 72 d0 ff ff    	jne    1a64 <free@plt+0xfb4>
    49f2:	41 80 7f 08 00       	cmp    BYTE PTR [r15+0x8],0x0
    49f7:	0f 84 67 d0 ff ff    	je     1a64 <free@plt+0xfb4>
    49fd:	49 83 c7 08          	add    r15,0x8
    4a01:	4c 89 3d 68 13 22 00 	mov    QWORD PTR [rip+0x221368],r15        # 225d70 <_rtld_global_ro@@GLIBC_PRIVATE+0xd0>
    4a08:	e9 57 d0 ff ff       	jmp    1a64 <free@plt+0xfb4>
    4a0d:	48 89 40 08          	mov    QWORD PTR [rax+0x8],rax
    4a11:	48 89 05 20 26 22 00 	mov    QWORD PTR [rip+0x222620],rax        # 227038 <_rtld_global@@GLIBC_PRIVATE+0xff8>
    4a18:	e9 2b e2 ff ff       	jmp    2c48 <free@plt+0x2198>
    4a1d:	48 8d 0d 0c c5 01 00 	lea    rcx,[rip+0x1c50c]        # 20f30 <realloc@@GLIBC_2.2.5+0x7000>
    4a24:	48 8d 35 cf a9 01 00 	lea    rsi,[rip+0x1a9cf]        # 1f3fa <realloc@@GLIBC_2.2.5+0x54ca>
    4a2b:	48 8d 3d 86 c1 01 00 	lea    rdi,[rip+0x1c186]        # 20bb8 <realloc@@GLIBC_2.2.5+0x6c88>
    4a32:	ba d6 04 00 00       	mov    edx,0x4d6
    4a37:	e8 a4 54 01 00       	call   19ee0 <free@@GLIBC_2.2.5+0x160>
    4a3c:	48 8d 0d ed c4 01 00 	lea    rcx,[rip+0x1c4ed]        # 20f30 <realloc@@GLIBC_2.2.5+0x7000>
    4a43:	48 8d 35 b0 a9 01 00 	lea    rsi,[rip+0x1a9b0]        # 1f3fa <realloc@@GLIBC_2.2.5+0x54ca>
    4a4a:	48 8d 3d 37 c1 01 00 	lea    rdi,[rip+0x1c137]        # 20b88 <realloc@@GLIBC_2.2.5+0x6c58>
    4a51:	ba d5 04 00 00       	mov    edx,0x4d5
    4a56:	e8 85 54 01 00       	call   19ee0 <free@@GLIBC_2.2.5+0x160>
    4a5b:	48 8d 0d be c4 01 00 	lea    rcx,[rip+0x1c4be]        # 20f20 <realloc@@GLIBC_2.2.5+0x6ff0>
    4a62:	48 8d 35 84 ab 01 00 	lea    rsi,[rip+0x1ab84]        # 1f5ed <realloc@@GLIBC_2.2.5+0x56bd>
    4a69:	48 8d 3d c0 ab 01 00 	lea    rdi,[rip+0x1abc0]        # 1f630 <realloc@@GLIBC_2.2.5+0x5700>
    4a70:	ba 6b 00 00 00       	mov    edx,0x6b
    4a75:	e8 66 54 01 00       	call   19ee0 <free@@GLIBC_2.2.5+0x160>
    4a7a:	48 8d 0d 9f c4 01 00 	lea    rcx,[rip+0x1c49f]        # 20f20 <realloc@@GLIBC_2.2.5+0x6ff0>
    4a81:	48 8d 35 65 ab 01 00 	lea    rsi,[rip+0x1ab65]        # 1f5ed <realloc@@GLIBC_2.2.5+0x56bd>
    4a88:	48 8d 3d 8f ab 01 00 	lea    rdi,[rip+0x1ab8f]        # 1f61e <realloc@@GLIBC_2.2.5+0x56ee>
    4a8f:	ba 6a 00 00 00       	mov    edx,0x6a
    4a94:	e8 47 54 01 00       	call   19ee0 <free@@GLIBC_2.2.5+0x160>
    4a99:	0f 31                	rdtsc
    4a9b:	48 c1 e2 20          	shl    rdx,0x20
    4a9f:	89 c0                	mov    eax,eax
    4aa1:	48 09 d0             	or     rax,rdx
    4aa4:	4c 29 f0             	sub    rax,r14
    4aa7:	48 01 05 ba 11 22 00 	add    QWORD PTR [rip+0x2211ba],rax        # 225c68 <realloc@@GLIBC_2.2.5+0x20bd38>
    4aae:	e9 ec e9 ff ff       	jmp    349f <free@plt+0x29ef>
    4ab3:	4c 8b 7d a0          	mov    r15,QWORD PTR [rbp-0x60]
    4ab7:	4b 8d 44 3e ff       	lea    rax,[r14+r15*1-0x1]
    4abc:	0f b6 10             	movzx  edx,BYTE PTR [rax]
    4abf:	80 fa 3a             	cmp    dl,0x3a
    4ac2:	77 14                	ja     4ad8 <free@plt+0x4028>
    4ac4:	48 be 00 06 00 00 01 	movabs rsi,0x400000100000600
    4acb:	00 00 04 
    4ace:	48 0f a3 d6          	bt     rsi,rdx
    4ad2:	0f 82 9f 00 00 00    	jb     4b77 <free@plt+0x40c7>
    4ad8:	4d 01 f7             	add    r15,r14
    4adb:	4d 39 fe             	cmp    r14,r15
    4ade:	73 40                	jae    4b20 <free@plt+0x4070>
    4ae0:	41 0f b6 47 ff       	movzx  eax,BYTE PTR [r15-0x1]
    4ae5:	3c 3a                	cmp    al,0x3a
    4ae7:	77 10                	ja     4af9 <free@plt+0x4049>
    4ae9:	48 ba 00 06 00 00 01 	movabs rdx,0x400000100000600
    4af0:	00 00 04 
    4af3:	48 0f a3 c2          	bt     rdx,rax
    4af7:	72 22                	jb     4b1b <free@plt+0x406b>
    4af9:	48 ba 00 06 00 00 01 	movabs rdx,0x400000100000600
    4b00:	00 00 04 
    4b03:	49 83 ef 01          	sub    r15,0x1
    4b07:	4d 39 fe             	cmp    r14,r15
    4b0a:	74 73                	je     4b7f <free@plt+0x40cf>
    4b0c:	41 0f b6 47 ff       	movzx  eax,BYTE PTR [r15-0x1]
    4b11:	3c 3a                	cmp    al,0x3a
    4b13:	77 ee                	ja     4b03 <free@plt+0x4053>
    4b15:	48 0f a3 c2          	bt     rdx,rax
    4b19:	73 e8                	jae    4b03 <free@plt+0x4053>
    4b1b:	41 c6 47 ff 00       	mov    BYTE PTR [r15-0x1],0x0
    4b20:	0f 31                	rdtsc
    4b22:	48 c1 e2 20          	shl    rdx,0x20
    4b26:	89 c0                	mov    eax,eax
    4b28:	48 09 c2             	or     rdx,rax
    4b2b:	4d 39 f7             	cmp    r15,r14
    4b2e:	48 89 95 60 ff ff ff 	mov    QWORD PTR [rbp-0xa0],rdx
    4b35:	74 4d                	je     4b84 <free@plt+0x40d4>
    4b37:	4c 8d 6d b0          	lea    r13,[rbp-0x50]
    4b3b:	4c 89 75 b0          	mov    QWORD PTR [rbp-0x50],r14
    4b3f:	48 8d 35 5c ab 01 00 	lea    rsi,[rip+0x1ab5c]        # 1f6a2 <realloc@@GLIBC_2.2.5+0x5772>
    4b46:	4c 89 ef             	mov    rdi,r13
    4b49:	e8 12 57 01 00       	call   1a260 <realloc@@GLIBC_2.2.5+0x330>
    4b4e:	48 85 c0             	test   rax,rax
    4b51:	74 31                	je     4b84 <free@plt+0x40d4>
    4b53:	80 38 00             	cmp    BYTE PTR [rax],0x0
    4b56:	74 e7                	je     4b3f <free@plt+0x408f>
    4b58:	48 8d 15 e1 d7 01 00 	lea    rdx,[rip+0x1d7e1]        # 22340 <realloc@@GLIBC_2.2.5+0x8410>
    4b5f:	48 89 de             	mov    rsi,rbx
    4b62:	48 89 c7             	mov    rdi,rax
    4b65:	e8 56 bf ff ff       	call   ac0 <free@plt+0x10>
    4b6a:	41 01 c4             	add    r12d,eax
    4b6d:	eb d0                	jmp    4b3f <free@plt+0x408f>
    4b6f:	45 31 ff             	xor    r15d,r15d
    4b72:	e9 40 ff ff ff       	jmp    4ab7 <free@plt+0x4007>
    4b77:	c6 00 00             	mov    BYTE PTR [rax],0x0
    4b7a:	45 31 ff             	xor    r15d,r15d
    4b7d:	eb a1                	jmp    4b20 <free@plt+0x4070>
    4b7f:	4d 89 f7             	mov    r15,r14
    4b82:	eb 9c                	jmp    4b20 <free@plt+0x4070>
    4b84:	4d 85 ff             	test   r15,r15
    4b87:	74 4a                	je     4bd3 <free@plt+0x4123>
    4b89:	4c 89 f6             	mov    rsi,r14
    4b8c:	4c 89 ff             	mov    rdi,r15
    4b8f:	4c 29 fe             	sub    rsi,r15
    4b92:	48 03 75 a0          	add    rsi,QWORD PTR [rbp-0x60]
    4b96:	e8 c5 83 01 00       	call   1cf60 <realloc@@GLIBC_2.2.5+0x3030>
    4b9b:	48 8d 50 1f          	lea    rdx,[rax+0x1f]
    4b9f:	4c 89 fe             	mov    rsi,r15
    4ba2:	48 83 e2 f0          	and    rdx,0xfffffffffffffff0
    4ba6:	48 29 d4             	sub    rsp,rdx
    4ba9:	48 89 c2             	mov    rdx,rax
    4bac:	48 8d 7c 24 0f       	lea    rdi,[rsp+0xf]
    4bb1:	48 83 e7 f0          	and    rdi,0xfffffffffffffff0
    4bb5:	c6 04 07 00          	mov    BYTE PTR [rdi+rax*1],0x0
    4bb9:	e8 92 91 01 00       	call   1dd50 <realloc@@GLIBC_2.2.5+0x3e20>
    4bbe:	48 8d 15 7b d7 01 00 	lea    rdx,[rip+0x1d77b]        # 22340 <realloc@@GLIBC_2.2.5+0x8410>
    4bc5:	48 89 de             	mov    rsi,rbx
    4bc8:	48 89 c7             	mov    rdi,rax
    4bcb:	e8 f0 be ff ff       	call   ac0 <free@plt+0x10>
    4bd0:	41 01 c4             	add    r12d,eax
    4bd3:	0f 31                	rdtsc
    4bd5:	48 8b 75 a0          	mov    rsi,QWORD PTR [rbp-0x60]
    4bd9:	48 c1 e2 20          	shl    rdx,0x20
    4bdd:	89 c0                	mov    eax,eax
    4bdf:	48 09 d0             	or     rax,rdx
    4be2:	4c 89 f7             	mov    rdi,r14
    4be5:	48 2b 85 60 ff ff ff 	sub    rax,QWORD PTR [rbp-0xa0]
    4bec:	48 01 05 75 10 22 00 	add    QWORD PTR [rip+0x221075],rax        # 225c68 <realloc@@GLIBC_2.2.5+0x20bd38>
    4bf3:	e8 28 67 01 00       	call   1b320 <realloc@@GLIBC_2.2.5+0x13f0>
    4bf8:	e9 bb e8 ff ff       	jmp    34b8 <free@plt+0x2a08>
    4bfd:	0f 1f 00             	nop    DWORD PTR [rax]
    4c00:	55                   	push   rbp
    4c01:	48 89 e5             	mov    rbp,rsp
    4c04:	41 57                	push   r15
    4c06:	41 56                	push   r14
    4c08:	41 55                	push   r13
    4c0a:	41 54                	push   r12
    4c0c:	49 89 fc             	mov    r12,rdi
    4c0f:	53                   	push   rbx
    4c10:	48 83 ec 38          	sub    rsp,0x38
    4c14:	0f 31                	rdtsc
    4c16:	48 c1 e2 20          	shl    rdx,0x20
    4c1a:	89 c0                	mov    eax,eax
    4c1c:	48 09 d0             	or     rax,rdx
    4c1f:	48 8d 15 4a 12 22 00 	lea    rdx,[rip+0x22124a]        # 225e70 <__libc_enable_secure@@GLIBC_PRIVATE+0x8>
    4c26:	48 89 05 33 10 22 00 	mov    QWORD PTR [rip+0x221033],rax        # 225c60 <realloc@@GLIBC_2.2.5+0x20bd30>
    4c2d:	48 8b 05 3c 12 22 00 	mov    rax,QWORD PTR [rip+0x22123c]        # 225e70 <__libc_enable_secure@@GLIBC_PRIVATE+0x8>
    4c34:	49 89 d6             	mov    r14,rdx
    4c37:	4c 2b 35 c2 13 22 00 	sub    r14,QWORD PTR [rip+0x2213c2]        # 226000 <__libc_enable_secure@@GLIBC_PRIVATE+0x198>
    4c3e:	48 89 15 a3 1d 22 00 	mov    QWORD PTR [rip+0x221da3],rdx        # 2269e8 <_rtld_global@@GLIBC_PRIVATE+0x9a8>
    4c45:	48 85 c0             	test   rax,rax
    4c48:	4c 89 35 89 1d 22 00 	mov    QWORD PTR [rip+0x221d89],r14        # 2269d8 <_rtld_global@@GLIBC_PRIVATE+0x998>
    4c4f:	0f 84 8d 00 00 00    	je     4ce2 <free@plt+0x4232>
    4c55:	48 8d 0d e4 13 22 00 	lea    rcx,[rip+0x2213e4]        # 226040 <_rtld_global@@GLIBC_PRIVATE>
    4c5c:	49 b9 d8 03 00 80 03 	movabs r9,0x3800003d8
    4c63:	00 00 00 
    4c66:	49 b8 78 fb ff 7f 03 	movabs r8,0x37ffffb78
    4c6d:	00 00 00 
    4c70:	be ff ff ff 6f       	mov    esi,0x6fffffff
    4c75:	41 bb ff fd ff 6f    	mov    r11d,0x6ffffdff
    4c7b:	bb ff fe ff 6f       	mov    ebx,0x6ffffeff
    4c80:	49 01 c9             	add    r9,rcx
    4c83:	49 01 c8             	add    r8,rcx
    4c86:	41 ba 31 00 00 00    	mov    r10d,0x31
    4c8c:	bf 21 00 00 70       	mov    edi,0x70000021
    4c91:	eb 1c                	jmp    4caf <free@plt+0x41ff>
    4c93:	0f 1f 44 00 00       	nop    DWORD PTR [rax+rax*1+0x0]
    4c98:	48 8d 0d 79 1d 22 00 	lea    rcx,[rip+0x221d79]        # 226a18 <_rtld_global@@GLIBC_PRIVATE+0x9d8>
    4c9f:	48 89 14 c1          	mov    QWORD PTR [rcx+rax*8],rdx
    4ca3:	48 83 c2 10          	add    rdx,0x10
    4ca7:	48 8b 02             	mov    rax,QWORD PTR [rdx]
    4caa:	48 85 c0             	test   rax,rax
    4cad:	74 33                	je     4ce2 <free@plt+0x4232>
    4caf:	48 83 f8 21          	cmp    rax,0x21
    4cb3:	76 e3                	jbe    4c98 <free@plt+0x41e8>
    4cb5:	48 89 f1             	mov    rcx,rsi
    4cb8:	48 29 c1             	sub    rcx,rax
    4cbb:	48 83 f9 0f          	cmp    rcx,0xf
    4cbf:	0f 87 f3 01 00 00    	ja     4eb8 <free@plt+0x4408>
    4cc5:	48 89 f9             	mov    rcx,rdi
    4cc8:	48 29 c1             	sub    rcx,rax
    4ccb:	48 8d 05 46 1d 22 00 	lea    rax,[rip+0x221d46]        # 226a18 <_rtld_global@@GLIBC_PRIVATE+0x9d8>
    4cd2:	48 89 14 c8          	mov    QWORD PTR [rax+rcx*8],rdx
    4cd6:	48 83 c2 10          	add    rdx,0x10
    4cda:	48 8b 02             	mov    rax,QWORD PTR [rdx]
    4cdd:	48 85 c0             	test   rax,rax
    4ce0:	75 cd                	jne    4caf <free@plt+0x41ff>
    4ce2:	4d 85 f6             	test   r14,r14
    4ce5:	0f 84 80 00 00 00    	je     4d6b <free@plt+0x42bb>
    4ceb:	48 8b 05 46 1d 22 00 	mov    rax,QWORD PTR [rip+0x221d46]        # 226a38 <_rtld_global@@GLIBC_PRIVATE+0x9f8>
    4cf2:	48 85 c0             	test   rax,rax
    4cf5:	74 04                	je     4cfb <free@plt+0x424b>
    4cf7:	4c 01 70 08          	add    QWORD PTR [rax+0x8],r14
    4cfb:	48 8b 05 2e 1d 22 00 	mov    rax,QWORD PTR [rip+0x221d2e]        # 226a30 <_rtld_global@@GLIBC_PRIVATE+0x9f0>
    4d02:	48 85 c0             	test   rax,rax
    4d05:	74 04                	je     4d0b <free@plt+0x425b>
    4d07:	4c 01 70 08          	add    QWORD PTR [rax+0x8],r14
    4d0b:	48 8b 05 2e 1d 22 00 	mov    rax,QWORD PTR [rip+0x221d2e]        # 226a40 <_rtld_global@@GLIBC_PRIVATE+0xa00>
    4d12:	48 85 c0             	test   rax,rax
    4d15:	74 04                	je     4d1b <free@plt+0x426b>
    4d17:	4c 01 70 08          	add    QWORD PTR [rax+0x8],r14
    4d1b:	48 8b 05 26 1d 22 00 	mov    rax,QWORD PTR [rip+0x221d26]        # 226a48 <_rtld_global@@GLIBC_PRIVATE+0xa08>
    4d22:	48 85 c0             	test   rax,rax
    4d25:	74 04                	je     4d2b <free@plt+0x427b>
    4d27:	4c 01 70 08          	add    QWORD PTR [rax+0x8],r14
    4d2b:	48 8b 05 1e 1d 22 00 	mov    rax,QWORD PTR [rip+0x221d1e]        # 226a50 <_rtld_global@@GLIBC_PRIVATE+0xa10>
    4d32:	48 85 c0             	test   rax,rax
    4d35:	74 04                	je     4d3b <free@plt+0x428b>
    4d37:	4c 01 70 08          	add    QWORD PTR [rax+0x8],r14
    4d3b:	48 8b 05 8e 1d 22 00 	mov    rax,QWORD PTR [rip+0x221d8e]        # 226ad0 <_rtld_global@@GLIBC_PRIVATE+0xa90>
    4d42:	48 85 c0             	test   rax,rax
    4d45:	74 04                	je     4d4b <free@plt+0x429b>
    4d47:	4c 01 70 08          	add    QWORD PTR [rax+0x8],r14
    4d4b:	48 8b 05 4e 1e 22 00 	mov    rax,QWORD PTR [rip+0x221e4e]        # 226ba0 <_rtld_global@@GLIBC_PRIVATE+0xb60>
    4d52:	48 85 c0             	test   rax,rax
    4d55:	74 04                	je     4d5b <free@plt+0x42ab>
    4d57:	4c 01 70 08          	add    QWORD PTR [rax+0x8],r14
    4d5b:	48 8b 05 0e 1f 22 00 	mov    rax,QWORD PTR [rip+0x221f0e]        # 226c70 <_rtld_global@@GLIBC_PRIVATE+0xc30>
    4d62:	48 85 c0             	test   rax,rax
    4d65:	74 04                	je     4d6b <free@plt+0x42bb>
    4d67:	4c 01 70 08          	add    QWORD PTR [rax+0x8],r14
    4d6b:	48 8b 15 46 1d 22 00 	mov    rdx,QWORD PTR [rip+0x221d46]        # 226ab8 <_rtld_global@@GLIBC_PRIVATE+0xa78>
    4d72:	48 85 d2             	test   rdx,rdx
    4d75:	74 0b                	je     4d82 <free@plt+0x42d2>
    4d77:	48 83 7a 08 07       	cmp    QWORD PTR [rdx+0x8],0x7
    4d7c:	0f 85 25 04 00 00    	jne    51a7 <free@plt+0x46f7>
    4d82:	48 8b 05 c7 1c 22 00 	mov    rax,QWORD PTR [rip+0x221cc7]        # 226a50 <_rtld_global@@GLIBC_PRIVATE+0xa10>
    4d89:	48 85 c0             	test   rax,rax
    4d8c:	74 12                	je     4da0 <free@plt+0x42f0>
    4d8e:	48 8b 0d cb 1c 22 00 	mov    rcx,QWORD PTR [rip+0x221ccb]        # 226a60 <_rtld_global@@GLIBC_PRIVATE+0xa20>
    4d95:	48 83 79 08 18       	cmp    QWORD PTR [rcx+0x8],0x18
    4d9a:	0f 85 e8 03 00 00    	jne    5188 <free@plt+0x46d8>
    4da0:	48 8b 0d a1 1d 22 00 	mov    rcx,QWORD PTR [rip+0x221da1]        # 226b48 <_rtld_global@@GLIBC_PRIVATE+0xb08>
    4da7:	48 85 c9             	test   rcx,rcx
    4daa:	74 0e                	je     4dba <free@plt+0x430a>
    4dac:	48 f7 41 08 fe ff ff 	test   QWORD PTR [rcx+0x8],0xfffffffffffffffe
    4db3:	ff 
    4db4:	0f 85 af 03 00 00    	jne    5169 <free@plt+0x46b9>
    4dba:	48 8b 0d 47 1d 22 00 	mov    rcx,QWORD PTR [rip+0x221d47]        # 226b08 <_rtld_global@@GLIBC_PRIVATE+0xac8>
    4dc1:	48 85 c9             	test   rcx,rcx
    4dc4:	74 0e                	je     4dd4 <free@plt+0x4324>
    4dc6:	48 f7 41 08 f7 ff ff 	test   QWORD PTR [rcx+0x8],0xfffffffffffffff7
    4dcd:	ff 
    4dce:	0f 85 76 03 00 00    	jne    514a <free@plt+0x469a>
    4dd4:	48 83 3d 24 1d 22 00 	cmp    QWORD PTR [rip+0x221d24],0x0        # 226b00 <_rtld_global@@GLIBC_PRIVATE+0xac0>
    4ddb:	00 
    4ddc:	0f 85 49 03 00 00    	jne    512b <free@plt+0x467b>
    4de2:	48 83 3d a6 1c 22 00 	cmp    QWORD PTR [rip+0x221ca6],0x0        # 226a90 <_rtld_global@@GLIBC_PRIVATE+0xa50>
    4de9:	00 
    4dea:	0f 85 d6 03 00 00    	jne    51c6 <free@plt+0x4716>
    4df0:	4d 85 f6             	test   r14,r14
    4df3:	0f 85 07 01 00 00    	jne    4f00 <free@plt+0x4450>
    4df9:	48 83 3d 0f 1e 22 00 	cmp    QWORD PTR [rip+0x221e0f],0x0        # 226c10 <_rtld_global@@GLIBC_PRIVATE+0xbd0>
    4e00:	00 
    4e01:	0f 84 f9 00 00 00    	je     4f00 <free@plt+0x4450>
    4e07:	48 8d 3d ca 1b 22 00 	lea    rdi,[rip+0x221bca]        # 2269d8 <_rtld_global@@GLIBC_PRIVATE+0x998>
    4e0e:	80 0d d7 1e 22 00 04 	or     BYTE PTR [rip+0x221ed7],0x4        # 226cec <_rtld_global@@GLIBC_PRIVATE+0xcac>
    4e15:	e8 66 6a 00 00       	call   b880 <_dl_rtld_di_serinfo@@GLIBC_PRIVATE+0x2400>
    4e1a:	48 8d 05 b7 1b 22 00 	lea    rax,[rip+0x221bb7]        # 2269d8 <_rtld_global@@GLIBC_PRIVATE+0x998>
    4e21:	48 89 05 d8 1b 22 00 	mov    QWORD PTR [rip+0x221bd8],rax        # 226a00 <_rtld_global@@GLIBC_PRIVATE+0x9c0>
    4e28:	48 8d 05 d1 b1 ff ff 	lea    rax,[rip+0xffffffffffffb1d1]        # 0 <GLIBC_2.2.5@@GLIBC_2.2.5>
    4e2f:	48 89 05 e2 1e 22 00 	mov    QWORD PTR [rip+0x221ee2],rax        # 226d18 <_rtld_global@@GLIBC_PRIVATE+0xcd8>
    4e36:	48 8d 05 2b 23 22 00 	lea    rax,[rip+0x22232b]        # 227168 <_r_debug@@GLIBC_2.2.5+0x28>
    4e3d:	48 89 05 dc 1e 22 00 	mov    QWORD PTR [rip+0x221edc],rax        # 226d20 <_rtld_global@@GLIBC_PRIVATE+0xce0>
    4e44:	48 8d 05 f5 97 01 00 	lea    rax,[rip+0x197f5]        # 1e640 <realloc@@GLIBC_2.2.5+0x4710>
    4e4b:	48 89 05 d6 1e 22 00 	mov    QWORD PTR [rip+0x221ed6],rax        # 226d28 <_rtld_global@@GLIBC_PRIVATE+0xce8>
    4e52:	0f 31                	rdtsc
    4e54:	48 8d 35 45 cb ff ff 	lea    rsi,[rip+0xffffffffffffcb45]        # 19a0 <free@plt+0xef0>
    4e5b:	48 c1 e2 20          	shl    rdx,0x20
    4e5f:	89 c0                	mov    eax,eax
    4e61:	48 09 d0             	or     rax,rdx
    4e64:	4c 89 e7             	mov    rdi,r12
    4e67:	48 89 2d f2 0f 22 00 	mov    QWORD PTR [rip+0x220ff2],rbp        # 225e60 <__libc_stack_end@@GLIBC_2.2.5>
    4e6e:	48 89 05 33 1b 22 00 	mov    QWORD PTR [rip+0x221b33],rax        # 2269a8 <_rtld_global@@GLIBC_PRIVATE+0x968>
    4e75:	e8 c6 41 01 00       	call   19040 <__get_cpu_features@@GLIBC_PRIVATE+0x10>
    4e7a:	48 89 c3             	mov    rbx,rax
    4e7d:	0f 31                	rdtsc
    4e7f:	48 c1 e2 20          	shl    rdx,0x20
    4e83:	89 c0                	mov    eax,eax
    4e85:	48 09 d0             	or     rax,rdx
    4e88:	48 2b 05 d1 0d 22 00 	sub    rax,QWORD PTR [rip+0x220dd1]        # 225c60 <realloc@@GLIBC_2.2.5+0x20bd30>
    4e8f:	f6 05 0a 0e 22 00 80 	test   BYTE PTR [rip+0x220e0a],0x80        # 225ca0 <_rtld_global_ro@@GLIBC_PRIVATE>
    4e96:	48 89 45 c8          	mov    QWORD PTR [rbp-0x38],rax
    4e9a:	0f 85 53 02 00 00    	jne    50f3 <free@plt+0x4643>
    4ea0:	48 83 c4 38          	add    rsp,0x38
    4ea4:	48 89 d8             	mov    rax,rbx
    4ea7:	5b                   	pop    rbx
    4ea8:	41 5c                	pop    r12
    4eaa:	41 5d                	pop    r13
    4eac:	41 5e                	pop    r14
    4eae:	41 5f                	pop    r15
    4eb0:	5d                   	pop    rbp
    4eb1:	c3                   	ret
    4eb2:	66 0f 1f 44 00 00    	nop    WORD PTR [rax+rax*1+0x0]
    4eb8:	8d 0c 00             	lea    ecx,[rax+rax*1]
    4ebb:	d1 f9                	sar    ecx,1
    4ebd:	83 f9 fc             	cmp    ecx,0xfffffffc
    4ec0:	76 1e                	jbe    4ee0 <free@plt+0x4430>
    4ec2:	44 89 d0             	mov    eax,r10d
    4ec5:	29 c8                	sub    eax,ecx
    4ec7:	48 89 c1             	mov    rcx,rax
    4eca:	48 8d 05 47 1b 22 00 	lea    rax,[rip+0x221b47]        # 226a18 <_rtld_global@@GLIBC_PRIVATE+0x9d8>
    4ed1:	48 89 14 c8          	mov    QWORD PTR [rax+rcx*8],rdx
    4ed5:	e9 c9 fd ff ff       	jmp    4ca3 <free@plt+0x41f3>
    4eda:	66 0f 1f 44 00 00    	nop    WORD PTR [rax+rax*1+0x0]
    4ee0:	4c 89 d9             	mov    rcx,r11
    4ee3:	48 29 c1             	sub    rcx,rax
    4ee6:	48 83 f9 0b          	cmp    rcx,0xb
    4eea:	0f 87 38 01 00 00    	ja     5028 <free@plt+0x4578>
    4ef0:	48 f7 d8             	neg    rax
    4ef3:	49 89 14 c0          	mov    QWORD PTR [r8+rax*8],rdx
    4ef7:	e9 a7 fd ff ff       	jmp    4ca3 <free@plt+0x41f3>
    4efc:	0f 1f 40 00          	nop    DWORD PTR [rax+0x0]
    4f00:	48 85 c0             	test   rax,rax
    4f03:	0f 84 da 01 00 00    	je     50e3 <free@plt+0x4633>
    4f09:	48 8b 48 08          	mov    rcx,QWORD PTR [rax+0x8]
    4f0d:	48 8b 05 44 1b 22 00 	mov    rax,QWORD PTR [rip+0x221b44]        # 226a58 <_rtld_global@@GLIBC_PRIVATE+0xa18>
    4f14:	48 8b 78 08          	mov    rdi,QWORD PTR [rax+0x8]
    4f18:	48 8b 05 39 1c 22 00 	mov    rax,QWORD PTR [rip+0x221c39]        # 226b58 <_rtld_global@@GLIBC_PRIVATE+0xb18>
    4f1f:	48 85 c0             	test   rax,rax
    4f22:	48 8d 34 39          	lea    rsi,[rcx+rdi*1]
    4f26:	0f 84 d5 01 00 00    	je     5101 <free@plt+0x4651>
    4f2c:	48 8b 40 08          	mov    rax,QWORD PTR [rax+0x8]
    4f30:	48 8d 04 40          	lea    rax,[rax+rax*2]
    4f34:	4c 8d 2c c1          	lea    r13,[rcx+rax*8]
    4f38:	48 89 c8             	mov    rax,rcx
    4f3b:	48 85 d2             	test   rdx,rdx
    4f3e:	74 2d                	je     4f6d <free@plt+0x44bd>
    4f40:	48 8b 15 e1 1a 22 00 	mov    rdx,QWORD PTR [rip+0x221ae1]        # 226a28 <_rtld_global@@GLIBC_PRIVATE+0x9e8>
    4f47:	4c 8b 05 82 1b 22 00 	mov    r8,QWORD PTR [rip+0x221b82]        # 226ad0 <_rtld_global@@GLIBC_PRIVATE+0xa90>
    4f4e:	48 8b 52 08          	mov    rdx,QWORD PTR [rdx+0x8]
    4f52:	49 89 d1             	mov    r9,rdx
    4f55:	4d 03 48 08          	add    r9,QWORD PTR [r8+0x8]
    4f59:	49 89 f8             	mov    r8,rdi
    4f5c:	49 29 d0             	sub    r8,rdx
    4f5f:	49 39 f1             	cmp    r9,rsi
    4f62:	48 8d 34 0a          	lea    rsi,[rdx+rcx*1]
    4f66:	49 0f 44 f8          	cmove  rdi,r8
    4f6a:	48 01 fe             	add    rsi,rdi
    4f6d:	48 8b 15 d4 1a 22 00 	mov    rdx,QWORD PTR [rip+0x221ad4]        # 226a48 <_rtld_global@@GLIBC_PRIVATE+0xa08>
    4f74:	4c 39 e8             	cmp    rax,r13
    4f77:	48 8b 7a 08          	mov    rdi,QWORD PTR [rdx+0x8]
    4f7b:	73 26                	jae    4fa3 <free@plt+0x44f3>
    4f7d:	0f 1f 00             	nop    DWORD PTR [rax]
    4f80:	4c 89 f2             	mov    rdx,r14
    4f83:	48 03 10             	add    rdx,QWORD PTR [rax]
    4f86:	83 78 08 08          	cmp    DWORD PTR [rax+0x8],0x8
    4f8a:	0f 85 7c 01 00 00    	jne    510c <free@plt+0x465c>
    4f90:	4c 89 f1             	mov    rcx,r14
    4f93:	48 03 48 10          	add    rcx,QWORD PTR [rax+0x10]
    4f97:	48 83 c0 18          	add    rax,0x18
    4f9b:	4c 39 e8             	cmp    rax,r13
    4f9e:	48 89 0a             	mov    QWORD PTR [rdx],rcx
    4fa1:	72 dd                	jb     4f80 <free@plt+0x44d0>
    4fa3:	48 83 3d f5 1b 22 00 	cmp    QWORD PTR [rip+0x221bf5],0x0        # 226ba0 <_rtld_global@@GLIBC_PRIVATE+0xb60>
    4faa:	00 
    4fab:	0f 84 34 02 00 00    	je     51e5 <free@plt+0x4735>
    4fb1:	4c 39 ee             	cmp    rsi,r13
    4fb4:	4c 8d 05 e5 96 01 00 	lea    r8,[rip+0x196e5]        # 1e6a0 <realloc@@GLIBC_2.2.5+0x4770>
    4fbb:	0f 86 46 fe ff ff    	jbe    4e07 <free@plt+0x4357>
    4fc1:	0f 1f 80 00 00 00 00 	nop    DWORD PTR [rax+0x0]
    4fc8:	49 8b 45 08          	mov    rax,QWORD PTR [r13+0x8]
    4fcc:	4c 89 f1             	mov    rcx,r14
    4fcf:	49 03 4d 00          	add    rcx,QWORD PTR [r13+0x0]
    4fd3:	48 89 c2             	mov    rdx,rax
    4fd6:	89 c3                	mov    ebx,eax
    4fd8:	48 c1 ea 20          	shr    rdx,0x20
    4fdc:	48 85 db             	test   rbx,rbx
    4fdf:	48 8d 14 52          	lea    rdx,[rdx+rdx*2]
    4fe3:	4c 8d 3c d7          	lea    r15,[rdi+rdx*8]
    4fe7:	74 71                	je     505a <free@plt+0x45aa>
    4fe9:	4d 85 ff             	test   r15,r15
    4fec:	0f 84 ae 00 00 00    	je     50a0 <free@plt+0x45f0>
    4ff2:	41 0f b6 57 04       	movzx  edx,BYTE PTR [r15+0x4]
    4ff7:	49 8b 47 08          	mov    rax,QWORD PTR [r15+0x8]
    4ffb:	48 03 05 d6 19 22 00 	add    rax,QWORD PTR [rip+0x2219d6]        # 2269d8 <_rtld_global@@GLIBC_PRIVATE+0x998>
    5002:	83 e2 0f             	and    edx,0xf
    5005:	80 fa 0a             	cmp    dl,0xa
    5008:	0f 84 a2 00 00 00    	je     50b0 <free@plt+0x4600>
    500e:	48 83 eb 06          	sub    rbx,0x6
    5012:	48 83 fb 1e          	cmp    rbx,0x1e
    5016:	77 42                	ja     505a <free@plt+0x45aa>
    5018:	49 63 14 98          	movsxd rdx,DWORD PTR [r8+rbx*4]
    501c:	4c 01 c2             	add    rdx,r8
    501f:	ff e2                	jmp    rdx
    5021:	0f 1f 80 00 00 00 00 	nop    DWORD PTR [rax+0x0]
    5028:	48 89 d9             	mov    rcx,rbx
    502b:	48 29 c1             	sub    rcx,rax
    502e:	48 83 f9 0a          	cmp    rcx,0xa
    5032:	0f 87 6b fc ff ff    	ja     4ca3 <free@plt+0x41f3>
    5038:	48 f7 d8             	neg    rax
    503b:	49 89 14 c1          	mov    QWORD PTR [r9+rax*8],rdx
    503f:	e9 5f fc ff ff       	jmp    4ca3 <free@plt+0x41f3>
    5044:	0f 1f 40 00          	nop    DWORD PTR [rax+0x0]
    5048:	49 8b 47 08          	mov    rax,QWORD PTR [r15+0x8]
    504c:	48 2b 05 c5 1d 22 00 	sub    rax,QWORD PTR [rip+0x221dc5]        # 226e18 <_rtld_global@@GLIBC_PRIVATE+0xdd8>
    5053:	49 03 45 10          	add    rax,QWORD PTR [r13+0x10]
    5057:	48 89 01             	mov    QWORD PTR [rcx],rax
    505a:	49 83 c5 18          	add    r13,0x18
    505e:	4c 39 ee             	cmp    rsi,r13
    5061:	0f 87 61 ff ff ff    	ja     4fc8 <free@plt+0x4518>
    5067:	e9 9b fd ff ff       	jmp    4e07 <free@plt+0x4357>
    506c:	0f 1f 40 00          	nop    DWORD PTR [rax+0x0]
    5070:	49 8b 47 08          	mov    rax,QWORD PTR [r15+0x8]
    5074:	48 2b 05 9d 1d 22 00 	sub    rax,QWORD PTR [rip+0x221d9d]        # 226e18 <_rtld_global@@GLIBC_PRIVATE+0xdd8>
    507b:	49 03 45 10          	add    rax,QWORD PTR [r13+0x10]
    507f:	48 89 41 08          	mov    QWORD PTR [rcx+0x8],rax
    5083:	48 8d 05 f6 3d 01 00 	lea    rax,[rip+0x13df6]        # 18e80 <_dl_find_dso_for_object@@GLIBC_PRIVATE+0x4460>
    508a:	48 89 01             	mov    QWORD PTR [rcx],rax
    508d:	eb cb                	jmp    505a <free@plt+0x45aa>
    508f:	90                   	nop
    5090:	48 c7 01 01 00 00 00 	mov    QWORD PTR [rcx],0x1
    5097:	eb c1                	jmp    505a <free@plt+0x45aa>
    5099:	0f 1f 80 00 00 00 00 	nop    DWORD PTR [rax+0x0]
    50a0:	31 c0                	xor    eax,eax
    50a2:	e9 67 ff ff ff       	jmp    500e <free@plt+0x455e>
    50a7:	66 0f 1f 84 00 00 00 	nop    WORD PTR [rax+rax*1+0x0]
    50ae:	00 00 
    50b0:	66 41 83 7f 06 00    	cmp    WORD PTR [r15+0x6],0x0
    50b6:	0f 84 52 ff ff ff    	je     500e <free@plt+0x455e>
    50bc:	4c 89 45 a0          	mov    QWORD PTR [rbp-0x60],r8
    50c0:	48 89 75 a8          	mov    QWORD PTR [rbp-0x58],rsi
    50c4:	48 89 4d b0          	mov    QWORD PTR [rbp-0x50],rcx
    50c8:	48 89 7d b8          	mov    QWORD PTR [rbp-0x48],rdi
    50cc:	ff d0                	call   rax
    50ce:	48 8b 7d b8          	mov    rdi,QWORD PTR [rbp-0x48]
    50d2:	48 8b 4d b0          	mov    rcx,QWORD PTR [rbp-0x50]
    50d6:	48 8b 75 a8          	mov    rsi,QWORD PTR [rbp-0x58]
    50da:	4c 8b 45 a0          	mov    r8,QWORD PTR [rbp-0x60]
    50de:	e9 2b ff ff ff       	jmp    500e <free@plt+0x455e>
    50e3:	45 31 ed             	xor    r13d,r13d
    50e6:	31 f6                	xor    esi,esi
    50e8:	31 c0                	xor    eax,eax
    50ea:	31 ff                	xor    edi,edi
    50ec:	31 c9                	xor    ecx,ecx
    50ee:	e9 48 fe ff ff       	jmp    4f3b <free@plt+0x448b>
    50f3:	48 8d 7d c8          	lea    rdi,[rbp-0x38]
    50f7:	e8 b4 bd ff ff       	call   eb0 <free@plt+0x400>
    50fc:	e9 9f fd ff ff       	jmp    4ea0 <free@plt+0x43f0>
    5101:	49 89 cd             	mov    r13,rcx
    5104:	48 89 c8             	mov    rax,rcx
    5107:	e9 2f fe ff ff       	jmp    4f3b <free@plt+0x448b>
    510c:	48 8d 0d 4d d2 01 00 	lea    rcx,[rip+0x1d24d]        # 22360 <realloc@@GLIBC_2.2.5+0x8430>
    5113:	48 8d 35 6e bd 01 00 	lea    rsi,[rip+0x1bd6e]        # 20e88 <realloc@@GLIBC_2.2.5+0x6f58>
    511a:	48 8d 3d 87 bd 01 00 	lea    rdi,[rip+0x1bd87]        # 20ea8 <realloc@@GLIBC_2.2.5+0x6f78>
    5121:	ba 05 02 00 00       	mov    edx,0x205
    5126:	e8 b5 4d 01 00       	call   19ee0 <free@@GLIBC_2.2.5+0x160>
    512b:	48 8d 0d ee d1 01 00 	lea    rcx,[rip+0x1d1ee]        # 22320 <realloc@@GLIBC_2.2.5+0x83f0>
    5132:	48 8d 35 a1 a4 01 00 	lea    rsi,[rip+0x1a4a1]        # 1f5da <realloc@@GLIBC_2.2.5+0x56aa>
    5139:	48 8d 3d 7f a6 01 00 	lea    rdi,[rip+0x1a67f]        # 1f7bf <realloc@@GLIBC_2.2.5+0x588f>
    5140:	ba 8e 00 00 00       	mov    edx,0x8e
    5145:	e8 96 4d 01 00       	call   19ee0 <free@@GLIBC_2.2.5+0x160>
    514a:	48 8d 0d cf d1 01 00 	lea    rcx,[rip+0x1d1cf]        # 22320 <realloc@@GLIBC_2.2.5+0x83f0>
    5151:	48 8d 35 82 a4 01 00 	lea    rsi,[rip+0x1a482]        # 1f5da <realloc@@GLIBC_2.2.5+0x56aa>
    5158:	48 8d 3d d9 bc 01 00 	lea    rdi,[rip+0x1bcd9]        # 20e38 <realloc@@GLIBC_2.2.5+0x6f08>
    515f:	ba 8c 00 00 00       	mov    edx,0x8c
    5164:	e8 77 4d 01 00       	call   19ee0 <free@@GLIBC_2.2.5+0x160>
    5169:	48 8d 0d b0 d1 01 00 	lea    rcx,[rip+0x1d1b0]        # 22320 <realloc@@GLIBC_2.2.5+0x83f0>
    5170:	48 8d 35 63 a4 01 00 	lea    rsi,[rip+0x1a463]        # 1f5da <realloc@@GLIBC_2.2.5+0x56aa>
    5177:	48 8d 3d 52 bc 01 00 	lea    rdi,[rip+0x1bc52]        # 20dd0 <realloc@@GLIBC_2.2.5+0x6ea0>
    517e:	ba 8a 00 00 00       	mov    edx,0x8a
    5183:	e8 58 4d 01 00       	call   19ee0 <free@@GLIBC_2.2.5+0x160>
    5188:	48 8d 0d 91 d1 01 00 	lea    rcx,[rip+0x1d191]        # 22320 <realloc@@GLIBC_2.2.5+0x83f0>
    518f:	48 8d 35 44 a4 01 00 	lea    rsi,[rip+0x1a444]        # 1f5da <realloc@@GLIBC_2.2.5+0x56aa>
    5196:	48 8d 3d 4b b9 01 00 	lea    rdi,[rip+0x1b94b]        # 20ae8 <realloc@@GLIBC_2.2.5+0x6bb8>
    519d:	ba 81 00 00 00       	mov    edx,0x81
    51a2:	e8 39 4d 01 00       	call   19ee0 <free@@GLIBC_2.2.5+0x160>
    51a7:	48 8d 0d 72 d1 01 00 	lea    rcx,[rip+0x1d172]        # 22320 <realloc@@GLIBC_2.2.5+0x83f0>
    51ae:	48 8d 35 25 a4 01 00 	lea    rsi,[rip+0x1a425]        # 1f5da <realloc@@GLIBC_2.2.5+0x56aa>
    51b5:	48 8d 3d 04 b9 01 00 	lea    rdi,[rip+0x1b904]        # 20ac0 <realloc@@GLIBC_2.2.5+0x6b90>
    51bc:	ba 79 00 00 00       	mov    edx,0x79
    51c1:	e8 1a 4d 01 00       	call   19ee0 <free@@GLIBC_2.2.5+0x160>
    51c6:	48 8d 0d 53 d1 01 00 	lea    rcx,[rip+0x1d153]        # 22320 <realloc@@GLIBC_2.2.5+0x83f0>
    51cd:	48 8d 35 06 a4 01 00 	lea    rsi,[rip+0x1a406]        # 1f5da <realloc@@GLIBC_2.2.5+0x56aa>
    51d4:	48 8d 3d fd a5 01 00 	lea    rdi,[rip+0x1a5fd]        # 1f7d8 <realloc@@GLIBC_2.2.5+0x58a8>
    51db:	ba 8f 00 00 00       	mov    edx,0x8f
    51e0:	e8 fb 4c 01 00       	call   19ee0 <free@@GLIBC_2.2.5+0x160>
    51e5:	48 8d 0d 94 d1 01 00 	lea    rcx,[rip+0x1d194]        # 22380 <realloc@@GLIBC_2.2.5+0x8450>
    51ec:	48 8d 35 fc a5 01 00 	lea    rsi,[rip+0x1a5fc]        # 1f7ef <realloc@@GLIBC_2.2.5+0x58bf>
    51f3:	48 8d 3d e6 bc 01 00 	lea    rdi,[rip+0x1bce6]        # 20ee0 <realloc@@GLIBC_2.2.5+0x6fb0>
    51fa:	ba 74 00 00 00       	mov    edx,0x74
    51ff:	e8 dc 4c 01 00       	call   19ee0 <free@@GLIBC_2.2.5+0x160>
    5204:	66 2e 0f 1f 84 00 00 	cs nop WORD PTR [rax+rax*1+0x0]
    520b:	00 00 00 
    520e:	66 90                	xchg   ax,ax
    5210:	44 0f b6 16          	movzx  r10d,BYTE PTR [rsi]
    5214:	41 80 fa 7b          	cmp    r10b,0x7b
    5218:	74 66                	je     5280 <free@plt+0x47d0>
    521a:	45 31 c9             	xor    r9d,r9d
    521d:	44 3a 12             	cmp    r10b,BYTE PTR [rdx]
    5220:	75 7e                	jne    52a0 <free@plt+0x47f0>
    5222:	45 31 db             	xor    r11d,r11d
    5225:	45 31 c9             	xor    r9d,r9d
    5228:	45 84 d2             	test   r10b,r10b
    522b:	74 34                	je     5261 <free@plt+0x47b1>
    522d:	45 31 c9             	xor    r9d,r9d
    5230:	eb 0b                	jmp    523d <free@plt+0x478d>
    5232:	66 0f 1f 44 00 00    	nop    WORD PTR [rax+rax*1+0x0]
    5238:	45 84 d2             	test   r10b,r10b
    523b:	74 33                	je     5270 <free@plt+0x47c0>
    523d:	49 83 c1 01          	add    r9,0x1
    5241:	46 0f b6 14 0e       	movzx  r10d,BYTE PTR [rsi+r9*1]
    5246:	46 3a 14 0a          	cmp    r10b,BYTE PTR [rdx+r9*1]
    524a:	74 ec                	je     5238 <free@plt+0x4788>
    524c:	45 84 db             	test   r11b,r11b
    524f:	74 4f                	je     52a0 <free@plt+0x47f0>
    5251:	31 c0                	xor    eax,eax
    5253:	41 80 fa 7d          	cmp    r10b,0x7d
    5257:	75 10                	jne    5269 <free@plt+0x47b9>
    5259:	48 83 ee 01          	sub    rsi,0x1
    525d:	49 83 c1 02          	add    r9,0x2
    5261:	45 85 c0             	test   r8d,r8d
    5264:	4c 89 c8             	mov    rax,r9
    5267:	75 4f                	jne    52b8 <free@plt+0x4808>
    5269:	f3 c3                	repz ret
    526b:	0f 1f 44 00 00       	nop    DWORD PTR [rax+rax*1+0x0]
    5270:	31 c0                	xor    eax,eax
    5272:	45 84 db             	test   r11b,r11b
    5275:	74 ea                	je     5261 <free@plt+0x47b1>
    5277:	f3 c3                	repz ret
    5279:	0f 1f 80 00 00 00 00 	nop    DWORD PTR [rax+0x0]
    5280:	44 0f b6 56 01       	movzx  r10d,BYTE PTR [rsi+0x1]
    5285:	48 8d 46 01          	lea    rax,[rsi+0x1]
    5289:	44 3a 12             	cmp    r10b,BYTE PTR [rdx]
    528c:	75 5b                	jne    52e9 <free@plt+0x4839>
    528e:	45 84 d2             	test   r10b,r10b
    5291:	74 22                	je     52b5 <free@plt+0x4805>
    5293:	48 89 c6             	mov    rsi,rax
    5296:	41 bb 01 00 00 00    	mov    r11d,0x1
    529c:	eb 8f                	jmp    522d <free@plt+0x477d>
    529e:	66 90                	xchg   ax,ax
    52a0:	45 84 d2             	test   r10b,r10b
    52a3:	74 bc                	je     5261 <free@plt+0x47b1>
    52a5:	41 80 fa 2f          	cmp    r10b,0x2f
    52a9:	74 b6                	je     5261 <free@plt+0x47b1>
    52ab:	41 80 fa 3a          	cmp    r10b,0x3a
    52af:	75 04                	jne    52b5 <free@plt+0x4805>
    52b1:	85 c9                	test   ecx,ecx
    52b3:	75 ac                	jne    5261 <free@plt+0x47b1>
    52b5:	31 c0                	xor    eax,eax
    52b7:	c3                   	ret
    52b8:	42 0f b6 04 0e       	movzx  eax,BYTE PTR [rsi+r9*1]
    52bd:	84 c0                	test   al,al
    52bf:	74 0c                	je     52cd <free@plt+0x481d>
    52c1:	3c 2f                	cmp    al,0x2f
    52c3:	74 08                	je     52cd <free@plt+0x481d>
    52c5:	3c 3a                	cmp    al,0x3a
    52c7:	75 ec                	jne    52b5 <free@plt+0x4805>
    52c9:	85 c9                	test   ecx,ecx
    52cb:	74 e8                	je     52b5 <free@plt+0x4805>
    52cd:	48 83 c7 01          	add    rdi,0x1
    52d1:	48 39 fe             	cmp    rsi,rdi
    52d4:	74 0f                	je     52e5 <free@plt+0x4835>
    52d6:	31 c0                	xor    eax,eax
    52d8:	85 c9                	test   ecx,ecx
    52da:	74 8d                	je     5269 <free@plt+0x47b9>
    52dc:	80 7e fe 3a          	cmp    BYTE PTR [rsi-0x2],0x3a
    52e0:	49 0f 44 c1          	cmove  rax,r9
    52e4:	c3                   	ret
    52e5:	4c 89 c8             	mov    rax,r9
    52e8:	c3                   	ret
    52e9:	48 89 c6             	mov    rsi,rax
    52ec:	45 31 c9             	xor    r9d,r9d
    52ef:	e9 5d ff ff ff       	jmp    5251 <free@plt+0x47a1>
    52f4:	66 90                	xchg   ax,ax
    52f6:	66 2e 0f 1f 84 00 00 	cs nop WORD PTR [rax+rax*1+0x0]
    52fd:	00 00 00 
    5300:	48 85 f6             	test   rsi,rsi
    5303:	0f 84 3f 01 00 00    	je     5448 <free@plt+0x4998>
    5309:	55                   	push   rbp
    530a:	48 89 e5             	mov    rbp,rsp
    530d:	41 54                	push   r12
    530f:	53                   	push   rbx
    5310:	0f b6 07             	movzx  eax,BYTE PTR [rdi]
    5313:	3c 3a                	cmp    al,0x3a
    5315:	0f 84 35 01 00 00    	je     5450 <free@plt+0x49a0>
    531b:	48 83 c6 20          	add    rsi,0x20
    531f:	48 83 e6 f0          	and    rsi,0xfffffffffffffff0
    5323:	48 29 f4             	sub    rsp,rsi
    5326:	48 8d 5c 24 0f       	lea    rbx,[rsp+0xf]
    532b:	48 83 e3 f0          	and    rbx,0xfffffffffffffff0
    532f:	48 89 da             	mov    rdx,rbx
    5332:	eb 10                	jmp    5344 <free@plt+0x4894>
    5334:	0f 1f 40 00          	nop    DWORD PTR [rax+0x0]
    5338:	88 02                	mov    BYTE PTR [rdx],al
    533a:	48 83 c7 01          	add    rdi,0x1
    533e:	89 c8                	mov    eax,ecx
    5340:	48 83 c2 01          	add    rdx,0x1
    5344:	84 c0                	test   al,al
    5346:	74 28                	je     5370 <free@plt+0x48c0>
    5348:	3c 2f                	cmp    al,0x2f
    534a:	0f b6 4f 01          	movzx  ecx,BYTE PTR [rdi+0x1]
    534e:	75 e8                	jne    5338 <free@plt+0x4888>
    5350:	80 f9 2e             	cmp    cl,0x2e
    5353:	0f 84 c7 00 00 00    	je     5420 <free@plt+0x4970>
    5359:	48 39 da             	cmp    rdx,rbx
    535c:	76 da                	jbe    5338 <free@plt+0x4888>
    535e:	80 7a ff 2f          	cmp    BYTE PTR [rdx-0x1],0x2f
    5362:	75 d4                	jne    5338 <free@plt+0x4888>
    5364:	89 c8                	mov    eax,ecx
    5366:	48 83 c7 01          	add    rdi,0x1
    536a:	84 c0                	test   al,al
    536c:	75 da                	jne    5348 <free@plt+0x4898>
    536e:	66 90                	xchg   ax,ax
    5370:	48 39 da             	cmp    rdx,rbx
    5373:	74 09                	je     537e <free@plt+0x48ce>
    5375:	80 7a ff 2f          	cmp    BYTE PTR [rdx-0x1],0x2f
    5379:	49 89 d4             	mov    r12,rdx
    537c:	74 07                	je     5385 <free@plt+0x48d5>
    537e:	4c 8d 62 01          	lea    r12,[rdx+0x1]
    5382:	c6 02 2f             	mov    BYTE PTR [rdx],0x2f
    5385:	49 29 dc             	sub    r12,rbx
    5388:	49 83 fc 15          	cmp    r12,0x15
    538c:	0f 86 86 00 00 00    	jbe    5418 <free@plt+0x4968>
    5392:	48 8d 3d c7 97 01 00 	lea    rdi,[rip+0x197c7]        # 1eb60 <realloc@@GLIBC_2.2.5+0x4c30>
    5399:	ba 16 00 00 00       	mov    edx,0x16
    539e:	48 89 de             	mov    rsi,rbx
    53a1:	e8 2a 81 01 00       	call   1d4d0 <realloc@@GLIBC_2.2.5+0x35a0>
    53a6:	85 c0                	test   eax,eax
    53a8:	0f 84 b3 00 00 00    	je     5461 <free@plt+0x49b1>
    53ae:	49 83 fc 19          	cmp    r12,0x19
    53b2:	76 64                	jbe    5418 <free@plt+0x4968>
    53b4:	48 8d 3d bc 97 01 00 	lea    rdi,[rip+0x197bc]        # 1eb77 <realloc@@GLIBC_2.2.5+0x4c47>
    53bb:	ba 1a 00 00 00       	mov    edx,0x1a
    53c0:	48 89 de             	mov    rsi,rbx
    53c3:	e8 08 81 01 00       	call   1d4d0 <realloc@@GLIBC_2.2.5+0x35a0>
    53c8:	85 c0                	test   eax,eax
    53ca:	0f 84 91 00 00 00    	je     5461 <free@plt+0x49b1>
    53d0:	48 8d 3d bb 97 01 00 	lea    rdi,[rip+0x197bb]        # 1eb92 <realloc@@GLIBC_2.2.5+0x4c62>
    53d7:	ba 05 00 00 00       	mov    edx,0x5
    53dc:	48 89 de             	mov    rsi,rbx
    53df:	e8 ec 80 01 00       	call   1d4d0 <realloc@@GLIBC_2.2.5+0x35a0>
    53e4:	85 c0                	test   eax,eax
    53e6:	74 79                	je     5461 <free@plt+0x49b1>
    53e8:	49 83 fc 08          	cmp    r12,0x8
    53ec:	76 18                	jbe    5406 <free@plt+0x4956>
    53ee:	48 8d 3d a3 97 01 00 	lea    rdi,[rip+0x197a3]        # 1eb98 <realloc@@GLIBC_2.2.5+0x4c68>
    53f5:	ba 09 00 00 00       	mov    edx,0x9
    53fa:	48 89 de             	mov    rsi,rbx
    53fd:	e8 ce 80 01 00       	call   1d4d0 <realloc@@GLIBC_2.2.5+0x35a0>
    5402:	85 c0                	test   eax,eax
    5404:	74 5b                	je     5461 <free@plt+0x49b1>
    5406:	31 c0                	xor    eax,eax
    5408:	48 8d 65 f0          	lea    rsp,[rbp-0x10]
    540c:	5b                   	pop    rbx
    540d:	41 5c                	pop    r12
    540f:	5d                   	pop    rbp
    5410:	c3                   	ret
    5411:	0f 1f 80 00 00 00 00 	nop    DWORD PTR [rax+0x0]
    5418:	49 83 fc 04          	cmp    r12,0x4
    541c:	76 e8                	jbe    5406 <free@plt+0x4956>
    541e:	eb b0                	jmp    53d0 <free@plt+0x4920>
    5420:	0f b6 77 02          	movzx  esi,BYTE PTR [rdi+0x2]
    5424:	40 80 fe 2e          	cmp    sil,0x2e
    5428:	74 46                	je     5470 <free@plt+0x49c0>
    542a:	40 80 fe 2f          	cmp    sil,0x2f
    542e:	74 09                	je     5439 <free@plt+0x4989>
    5430:	40 84 f6             	test   sil,sil
    5433:	0f 85 20 ff ff ff    	jne    5359 <free@plt+0x48a9>
    5439:	48 83 c7 02          	add    rdi,0x2
    543d:	89 f0                	mov    eax,esi
    543f:	e9 00 ff ff ff       	jmp    5344 <free@plt+0x4894>
    5444:	0f 1f 40 00          	nop    DWORD PTR [rax+0x0]
    5448:	31 c0                	xor    eax,eax
    544a:	c3                   	ret
    544b:	0f 1f 44 00 00       	nop    DWORD PTR [rax+rax*1+0x0]
    5450:	0f b6 47 01          	movzx  eax,BYTE PTR [rdi+0x1]
    5454:	48 83 ee 01          	sub    rsi,0x1
    5458:	48 83 c7 01          	add    rdi,0x1
    545c:	e9 ba fe ff ff       	jmp    531b <free@plt+0x486b>
    5461:	b8 01 00 00 00       	mov    eax,0x1
    5466:	eb a0                	jmp    5408 <free@plt+0x4958>
    5468:	0f 1f 84 00 00 00 00 	nop    DWORD PTR [rax+rax*1+0x0]
    546f:	00 
    5470:	0f b6 77 03          	movzx  esi,BYTE PTR [rdi+0x3]
    5474:	40 80 fe 2f          	cmp    sil,0x2f
    5478:	74 09                	je     5483 <free@plt+0x49d3>
    547a:	40 84 f6             	test   sil,sil
    547d:	0f 85 d6 fe ff ff    	jne    5359 <free@plt+0x48a9>
    5483:	48 39 da             	cmp    rdx,rbx
    5486:	76 21                	jbe    54a9 <free@plt+0x49f9>
    5488:	80 7a ff 2f          	cmp    BYTE PTR [rdx-0x1],0x2f
    548c:	48 8d 42 ff          	lea    rax,[rdx-0x1]
    5490:	75 0f                	jne    54a1 <free@plt+0x49f1>
    5492:	eb 20                	jmp    54b4 <free@plt+0x4a04>
    5494:	0f 1f 40 00          	nop    DWORD PTR [rax+0x0]
    5498:	48 83 e8 01          	sub    rax,0x1
    549c:	80 38 2f             	cmp    BYTE PTR [rax],0x2f
    549f:	74 13                	je     54b4 <free@plt+0x4a04>
    54a1:	48 39 d8             	cmp    rax,rbx
    54a4:	75 f2                	jne    5498 <free@plt+0x49e8>
    54a6:	48 89 da             	mov    rdx,rbx
    54a9:	48 83 c7 03          	add    rdi,0x3
    54ad:	89 f0                	mov    eax,esi
    54af:	e9 90 fe ff ff       	jmp    5344 <free@plt+0x4894>
    54b4:	48 89 c2             	mov    rdx,rax
    54b7:	eb f0                	jmp    54a9 <free@plt+0x49f9>
    54b9:	0f 1f 80 00 00 00 00 	nop    DWORD PTR [rax+0x0]
    54c0:	41 57                	push   r15
    54c2:	41 56                	push   r14
    54c4:	49 89 cf             	mov    r15,rcx
    54c7:	41 55                	push   r13
    54c9:	41 54                	push   r12
    54cb:	49 89 d5             	mov    r13,rdx
    54ce:	55                   	push   rbp
    54cf:	53                   	push   rbx
    54d0:	41 89 fc             	mov    r12d,edi
    54d3:	4c 89 c3             	mov    rbx,r8
    54d6:	4d 89 ce             	mov    r14,r9
    54d9:	48 83 ec 08          	sub    rsp,0x8
    54dd:	83 fe ff             	cmp    esi,0xffffffff
    54e0:	48 8b 6c 24 40       	mov    rbp,QWORD PTR [rsp+0x40]
    54e5:	74 07                	je     54ee <free@plt+0x4a3e>
    54e7:	89 f7                	mov    edi,esi
    54e9:	e8 62 5d 01 00       	call   1b250 <realloc@@GLIBC_2.2.5+0x1320>
    54ee:	48 85 db             	test   rbx,rbx
    54f1:	74 12                	je     5505 <free@plt+0x4a55>
    54f3:	48 8b bb 38 03 00 00 	mov    rdi,QWORD PTR [rbx+0x338]
    54fa:	48 83 ff ff          	cmp    rdi,0xffffffffffffffff
    54fe:	74 05                	je     5505 <free@plt+0x4a55>
    5500:	e8 ab b5 ff ff       	call   ab0 <free@plt>
    5505:	48 89 df             	mov    rdi,rbx
    5508:	e8 a3 b5 ff ff       	call   ab0 <free@plt>
    550d:	4c 89 ff             	mov    rdi,r15
    5510:	e8 9b b5 ff ff       	call   ab0 <free@plt>
    5515:	48 85 ed             	test   rbp,rbp
    5518:	74 0d                	je     5527 <free@plt+0x4a77>
    551a:	c7 45 18 00 00 00 00 	mov    DWORD PTR [rbp+0x18],0x0
    5521:	e8 6a b9 00 00       	call   10e90 <_dl_debug_state@@GLIBC_PRIVATE>
    5526:	90                   	nop
    5527:	4c 89 f1             	mov    rcx,r14
    552a:	31 d2                	xor    edx,edx
    552c:	4c 89 ee             	mov    rsi,r13
    552f:	44 89 e7             	mov    edi,r12d
    5532:	e8 b9 ab 00 00       	call   100f0 <_dl_rtld_di_serinfo@@GLIBC_PRIVATE+0x6c70>
    5537:	66 0f 1f 84 00 00 00 	nop    WORD PTR [rax+rax*1+0x0]
    553e:	00 00 
    5540:	55                   	push   rbp
    5541:	48 89 e5             	mov    rbp,rsp
    5544:	41 57                	push   r15
    5546:	41 56                	push   r14
    5548:	41 55                	push   r13
    554a:	41 54                	push   r12
    554c:	49 89 fe             	mov    r14,rdi
    554f:	53                   	push   rbx
    5550:	48 89 f3             	mov    rbx,rsi
    5553:	48 83 ec 28          	sub    rsp,0x28
    5557:	8b 45 10             	mov    eax,DWORD PTR [rbp+0x10]
    555a:	85 c9                	test   ecx,ecx
    555c:	44 89 45 b4          	mov    DWORD PTR [rbp-0x4c],r8d
    5560:	4c 89 4d c8          	mov    QWORD PTR [rbp-0x38],r9
    5564:	89 45 c0             	mov    DWORD PTR [rbp-0x40],eax
    5567:	8b 05 9b 08 22 00    	mov    eax,DWORD PTR [rip+0x22089b]        # 225e08 <_rtld_global_ro@@GLIBC_PRIVATE+0x168>
    556d:	74 19                	je     5588 <free@plt+0x4ad8>
    556f:	85 c0                	test   eax,eax
    5571:	74 15                	je     5588 <free@plt+0x4ad8>
    5573:	f6 82 15 03 00 00 08 	test   BYTE PTR [rdx+0x315],0x8
    557a:	49 89 d4             	mov    r12,rdx
    557d:	0f 84 9d 04 00 00    	je     5a20 <free@plt+0x4f70>
    5583:	0f 1f 44 00 00       	nop    DWORD PTR [rax+rax*1+0x0]
    5588:	31 c0                	xor    eax,eax
    558a:	be 00 00 08 00       	mov    esi,0x80000
    558f:	4c 89 f7             	mov    rdi,r14
    5592:	e8 b9 5b 01 00       	call   1b150 <realloc@@GLIBC_2.2.5+0x1220>
    5597:	83 f8 ff             	cmp    eax,0xffffffff
    559a:	89 45 c4             	mov    DWORD PTR [rbp-0x3c],eax
    559d:	0f 84 96 02 00 00    	je     5839 <free@plt+0x4d89>
    55a3:	48 8d 43 08          	lea    rax,[rbx+0x8]
    55a7:	c7 05 6f 1b 22 00 00 	mov    DWORD PTR [rip+0x221b6f],0x0        # 227120 <_rtld_global@@GLIBC_PRIVATE+0x10e0>
    55ae:	00 00 00 
    55b1:	45 31 ed             	xor    r13d,r13d
    55b4:	48 c7 03 00 00 00 00 	mov    QWORD PTR [rbx],0x0
    55bb:	41 bc 40 03 00 00    	mov    r12d,0x340
    55c1:	48 89 45 b8          	mov    QWORD PTR [rbp-0x48],rax
    55c5:	48 8b 45 b8          	mov    rax,QWORD PTR [rbp-0x48]
    55c9:	8b 7d c4             	mov    edi,DWORD PTR [rbp-0x3c]
    55cc:	4c 89 e2             	mov    rdx,r12
    55cf:	4c 29 ea             	sub    rdx,r13
    55d2:	4a 8d 34 28          	lea    rsi,[rax+r13*1]
    55d6:	e8 95 5b 01 00       	call   1b170 <realloc@@GLIBC_2.2.5+0x1240>
    55db:	48 85 c0             	test   rax,rax
    55de:	0f 8e 9c 04 00 00    	jle    5a80 <free@plt+0x4fd0>
    55e4:	48 03 03             	add    rax,QWORD PTR [rbx]
    55e7:	48 83 f8 3f          	cmp    rax,0x3f
    55eb:	49 89 c5             	mov    r13,rax
    55ee:	48 89 03             	mov    QWORD PTR [rbx],rax
    55f1:	76 d2                	jbe    55c5 <free@plt+0x4b15>
    55f3:	49 83 fd 3f          	cmp    r13,0x3f
    55f7:	0f 8e 83 03 00 00    	jle    5980 <free@plt+0x4ed0>
    55fd:	48 8b 7d b8          	mov    rdi,QWORD PTR [rbp-0x48]
    5601:	48 8d 35 68 d0 01 00 	lea    rsi,[rip+0x1d068]        # 22670 <realloc@@GLIBC_2.2.5+0x8740>
    5608:	ba 08 00 00 00       	mov    edx,0x8
    560d:	e8 be 7e 01 00       	call   1d4d0 <realloc@@GLIBC_2.2.5+0x35a0>
    5612:	85 c0                	test   eax,eax
    5614:	0f 85 8e 03 00 00    	jne    59a8 <free@plt+0x4ef8>
    561a:	0f b6 43 10          	movzx  eax,BYTE PTR [rbx+0x10]
    561e:	84 c0                	test   al,al
    5620:	0f 85 9a 01 00 00    	jne    57c0 <free@plt+0x4d10>
    5626:	48 8d 7b 11          	lea    rdi,[rbx+0x11]
    562a:	48 8d 35 48 d0 01 00 	lea    rsi,[rip+0x1d048]        # 22679 <realloc@@GLIBC_2.2.5+0x8749>
    5631:	ba 07 00 00 00       	mov    edx,0x7
    5636:	e8 95 7e 01 00       	call   1d4d0 <realloc@@GLIBC_2.2.5+0x35a0>
    563b:	85 c0                	test   eax,eax
    563d:	0f 85 8b 01 00 00    	jne    57ce <free@plt+0x4d1e>
    5643:	83 7b 1c 01          	cmp    DWORD PTR [rbx+0x1c],0x1
    5647:	0f 85 43 04 00 00    	jne    5a90 <free@plt+0x4fe0>
    564d:	66 83 7b 1a 3e       	cmp    WORD PTR [rbx+0x1a],0x3e
    5652:	0f 85 cf 01 00 00    	jne    5827 <free@plt+0x4d77>
    5658:	0f b7 43 18          	movzx  eax,WORD PTR [rbx+0x18]
    565c:	8d 50 fe             	lea    edx,[rax-0x2]
    565f:	66 83 fa 01          	cmp    dx,0x1
    5663:	0f 87 36 04 00 00    	ja     5a9f <free@plt+0x4fef>
    5669:	66 83 f8 02          	cmp    ax,0x2
    566d:	0f 84 3b 04 00 00    	je     5aae <free@plt+0x4ffe>
    5673:	66 83 7b 3e 38       	cmp    WORD PTR [rbx+0x3e],0x38
    5678:	0f 85 52 04 00 00    	jne    5ad0 <free@plt+0x5020>
    567e:	0f b7 7b 40          	movzx  edi,WORD PTR [rbx+0x40]
    5682:	48 8b 73 28          	mov    rsi,QWORD PTR [rbx+0x28]
    5686:	48 8d 04 fd 00 00 00 	lea    rax,[rdi*8+0x0]
    568d:	00 
    568e:	49 89 f8             	mov    r8,rdi
    5691:	49 c1 e0 06          	shl    r8,0x6
    5695:	49 29 c0             	sub    r8,rax
    5698:	49 8d 04 30          	lea    rax,[r8+rsi*1]
    569c:	4d 89 c7             	mov    r15,r8
    569f:	4c 39 e8             	cmp    rax,r13
    56a2:	0f 87 a8 01 00 00    	ja     5850 <free@plt+0x4da0>
    56a8:	48 03 75 b8          	add    rsi,QWORD PTR [rbp-0x48]
    56ac:	48 89 75 c8          	mov    QWORD PTR [rbp-0x38],rsi
    56b0:	48 89 f0             	mov    rax,rsi
    56b3:	49 01 c0             	add    r8,rax
    56b6:	4c 39 c0             	cmp    rax,r8
    56b9:	0f 83 e9 00 00 00    	jae    57a8 <free@plt+0x4cf8>
    56bf:	49 89 c5             	mov    r13,rax
    56c2:	eb 27                	jmp    56eb <free@plt+0x4c3b>
    56c4:	0f 1f 40 00          	nop    DWORD PTR [rax+0x0]
    56c8:	48 8d 14 fd 00 00 00 	lea    rdx,[rdi*8+0x0]
    56cf:	00 
    56d0:	48 89 f8             	mov    rax,rdi
    56d3:	49 83 c5 38          	add    r13,0x38
    56d7:	48 c1 e0 06          	shl    rax,0x6
    56db:	48 29 d0             	sub    rax,rdx
    56de:	48 03 45 c8          	add    rax,QWORD PTR [rbp-0x38]
    56e2:	49 39 c5             	cmp    r13,rax
    56e5:	0f 83 bd 00 00 00    	jae    57a8 <free@plt+0x4cf8>
    56eb:	41 83 7d 00 04       	cmp    DWORD PTR [r13+0x0],0x4
    56f0:	75 d6                	jne    56c8 <free@plt+0x4c18>
    56f2:	4d 8b 65 20          	mov    r12,QWORD PTR [r13+0x20]
    56f6:	49 83 fc 1f          	cmp    r12,0x1f
    56fa:	76 cc                	jbe    56c8 <free@plt+0x4c18>
    56fc:	49 83 7d 30 03       	cmp    QWORD PTR [r13+0x30],0x3
    5701:	76 c5                	jbe    56c8 <free@plt+0x4c18>
    5703:	49 8b 75 08          	mov    rsi,QWORD PTR [r13+0x8]
    5707:	49 8d 04 34          	lea    rax,[r12+rsi*1]
    570b:	48 3b 03             	cmp    rax,QWORD PTR [rbx]
    570e:	0f 87 bc 02 00 00    	ja     59d0 <free@plt+0x4f20>
    5714:	48 8b 45 b8          	mov    rax,QWORD PTR [rbp-0x48]
    5718:	4c 8d 3c 30          	lea    r15,[rax+rsi*1]
    571c:	eb 32                	jmp    5750 <free@plt+0x4ca0>
    571e:	66 90                	xchg   ax,ax
    5720:	41 8b 17             	mov    edx,DWORD PTR [r15]
    5723:	41 8b 47 04          	mov    eax,DWORD PTR [r15+0x4]
    5727:	48 83 c2 03          	add    rdx,0x3
    572b:	48 83 c0 03          	add    rax,0x3
    572f:	48 83 e2 fc          	and    rdx,0xfffffffffffffffc
    5733:	48 83 e0 fc          	and    rax,0xfffffffffffffffc
    5737:	48 8d 44 02 0c       	lea    rax,[rdx+rax*1+0xc]
    573c:	49 8d 54 24 e0       	lea    rdx,[r12-0x20]
    5741:	48 39 d0             	cmp    rax,rdx
    5744:	0f 87 ae 01 00 00    	ja     58f8 <free@plt+0x4e48>
    574a:	49 29 c4             	sub    r12,rax
    574d:	49 01 c7             	add    r15,rax
    5750:	48 8d 35 09 cf 01 00 	lea    rsi,[rip+0x1cf09]        # 22660 <realloc@@GLIBC_2.2.5+0x8730>
    5757:	ba 10 00 00 00       	mov    edx,0x10
    575c:	4c 89 ff             	mov    rdi,r15
    575f:	e8 6c 7d 01 00       	call   1d4d0 <realloc@@GLIBC_2.2.5+0x35a0>
    5764:	85 c0                	test   eax,eax
    5766:	75 b8                	jne    5720 <free@plt+0x4c70>
    5768:	4d 85 e4             	test   r12,r12
    576b:	0f 84 87 01 00 00    	je     58f8 <free@plt+0x4e48>
    5771:	41 0f b6 47 14       	movzx  eax,BYTE PTR [r15+0x14]
    5776:	41 0f b6 57 18       	movzx  edx,BYTE PTR [r15+0x18]
    577b:	c1 e0 08             	shl    eax,0x8
    577e:	01 d0                	add    eax,edx
    5780:	41 0f b6 57 1c       	movzx  edx,BYTE PTR [r15+0x1c]
    5785:	c1 e0 08             	shl    eax,0x8
    5788:	01 d0                	add    eax,edx
    578a:	41 8b 57 10          	mov    edx,DWORD PTR [r15+0x10]
    578e:	85 d2                	test   edx,edx
    5790:	0f 85 91 00 00 00    	jne    5827 <free@plt+0x4d77>
    5796:	8b 15 08 05 22 00    	mov    edx,DWORD PTR [rip+0x220508]        # 225ca4 <_rtld_global_ro@@GLIBC_PRIVATE+0x4>
    579c:	85 d2                	test   edx,edx
    579e:	74 08                	je     57a8 <free@plt+0x4cf8>
    57a0:	39 d0                	cmp    eax,edx
    57a2:	0f 87 7f 00 00 00    	ja     5827 <free@plt+0x4d77>
    57a8:	8b 45 c4             	mov    eax,DWORD PTR [rbp-0x3c]
    57ab:	48 8d 65 d8          	lea    rsp,[rbp-0x28]
    57af:	5b                   	pop    rbx
    57b0:	41 5c                	pop    r12
    57b2:	41 5d                	pop    r13
    57b4:	41 5e                	pop    r14
    57b6:	41 5f                	pop    r15
    57b8:	5d                   	pop    rbp
    57b9:	c3                   	ret
    57ba:	66 0f 1f 44 00 00    	nop    WORD PTR [rax+rax*1+0x0]
    57c0:	80 7b 0f 03          	cmp    BYTE PTR [rbx+0xf],0x3
    57c4:	75 08                	jne    57ce <free@plt+0x4d1e>
    57c6:	3c 02                	cmp    al,0x2
    57c8:	0f 86 58 fe ff ff    	jbe    5626 <free@plt+0x4b76>
    57ce:	81 7b 08 7f 45 4c 46 	cmp    DWORD PTR [rbx+0x8],0x464c457f
    57d5:	0f 85 13 03 00 00    	jne    5aee <free@plt+0x503e>
    57db:	80 7b 0c 02          	cmp    BYTE PTR [rbx+0xc],0x2
    57df:	75 3f                	jne    5820 <free@plt+0x4d70>
    57e1:	66 83 7b 1a 3e       	cmp    WORD PTR [rbx+0x1a],0x3e
    57e6:	75 3f                	jne    5827 <free@plt+0x4d77>
    57e8:	45 31 ed             	xor    r13d,r13d
    57eb:	80 7b 0d 01          	cmp    BYTE PTR [rbx+0xd],0x1
    57ef:	4c 8d 0d 42 b7 01 00 	lea    r9,[rip+0x1b742]        # 20f38 <realloc@@GLIBC_2.2.5+0x7008>
    57f6:	0f 84 0c 01 00 00    	je     5908 <free@plt+0x4e58>
    57fc:	80 7d c0 00          	cmp    BYTE PTR [rbp-0x40],0x0
    5800:	0f 85 aa 00 00 00    	jne    58b0 <free@plt+0x4e00>
    5806:	8b 75 c4             	mov    esi,DWORD PTR [rbp-0x3c]
    5809:	6a 00                	push   0x0
    580b:	45 31 c0             	xor    r8d,r8d
    580e:	6a 00                	push   0x0
    5810:	31 c9                	xor    ecx,ecx
    5812:	4c 89 f2             	mov    rdx,r14
    5815:	44 89 ef             	mov    edi,r13d
    5818:	e8 a3 fc ff ff       	call   54c0 <free@plt+0x4a10>
    581d:	0f 1f 00             	nop    DWORD PTR [rax]
    5820:	48 8b 45 c8          	mov    rax,QWORD PTR [rbp-0x38]
    5824:	c6 00 01             	mov    BYTE PTR [rax],0x1
    5827:	8b 7d c4             	mov    edi,DWORD PTR [rbp-0x3c]
    582a:	e8 21 5a 01 00       	call   1b250 <realloc@@GLIBC_2.2.5+0x1320>
    582f:	c7 05 e7 18 22 00 02 	mov    DWORD PTR [rip+0x2218e7],0x2        # 227120 <_rtld_global@@GLIBC_PRIVATE+0x10e0>
    5836:	00 00 00 
    5839:	48 8d 65 d8          	lea    rsp,[rbp-0x28]
    583d:	b8 ff ff ff ff       	mov    eax,0xffffffff
    5842:	5b                   	pop    rbx
    5843:	41 5c                	pop    r12
    5845:	41 5d                	pop    r13
    5847:	41 5e                	pop    r14
    5849:	41 5f                	pop    r15
    584b:	5d                   	pop    rbp
    584c:	c3                   	ret
    584d:	0f 1f 00             	nop    DWORD PTR [rax]
    5850:	49 8d 40 1e          	lea    rax,[r8+0x1e]
    5854:	44 8b 65 c4          	mov    r12d,DWORD PTR [rbp-0x3c]
    5858:	31 d2                	xor    edx,edx
    585a:	48 83 e0 f0          	and    rax,0xfffffffffffffff0
    585e:	48 29 c4             	sub    rsp,rax
    5861:	44 89 e7             	mov    edi,r12d
    5864:	4c 8d 6c 24 0f       	lea    r13,[rsp+0xf]
    5869:	49 83 e5 f0          	and    r13,0xfffffffffffffff0
    586d:	4c 89 6d c8          	mov    QWORD PTR [rbp-0x38],r13
    5871:	e8 ea 5a 01 00       	call   1b360 <realloc@@GLIBC_2.2.5+0x1430>
    5876:	4c 89 fa             	mov    rdx,r15
    5879:	4c 89 ee             	mov    rsi,r13
    587c:	44 89 e7             	mov    edi,r12d
    587f:	e8 ec 58 01 00       	call   1b170 <realloc@@GLIBC_2.2.5+0x1240>
    5884:	49 39 c7             	cmp    r15,rax
    5887:	0f 85 7c 01 00 00    	jne    5a09 <free@plt+0x4f59>
    588d:	0f b7 7b 40          	movzx  edi,WORD PTR [rbx+0x40]
    5891:	48 8d 04 fd 00 00 00 	lea    rax,[rdi*8+0x0]
    5898:	00 
    5899:	49 89 f8             	mov    r8,rdi
    589c:	49 c1 e0 06          	shl    r8,0x6
    58a0:	49 29 c0             	sub    r8,rax
    58a3:	48 8b 45 c8          	mov    rax,QWORD PTR [rbp-0x38]
    58a7:	e9 07 fe ff ff       	jmp    56b3 <free@plt+0x4c03>
    58ac:	0f 1f 40 00          	nop    DWORD PTR [rax+0x0]
    58b0:	4c 89 f7             	mov    rdi,r14
    58b3:	4c 89 4d c8          	mov    QWORD PTR [rbp-0x38],r9
    58b7:	e8 04 75 01 00       	call   1cdc0 <realloc@@GLIBC_2.2.5+0x2e90>
    58bc:	48 8d 50 01          	lea    rdx,[rax+0x1]
    58c0:	48 83 c0 1f          	add    rax,0x1f
    58c4:	4c 89 f6             	mov    rsi,r14
    58c7:	48 83 e0 f0          	and    rax,0xfffffffffffffff0
    58cb:	48 29 c4             	sub    rsp,rax
    58ce:	48 8d 7c 24 0f       	lea    rdi,[rsp+0xf]
    58d3:	48 83 e7 f0          	and    rdi,0xfffffffffffffff0
    58d7:	e8 74 84 01 00       	call   1dd50 <realloc@@GLIBC_2.2.5+0x3e20>
    58dc:	4c 89 f7             	mov    rdi,r14
    58df:	48 89 c3             	mov    rbx,rax
    58e2:	49 89 de             	mov    r14,rbx
    58e5:	e8 c6 b1 ff ff       	call   ab0 <free@plt>
    58ea:	4c 8b 4d c8          	mov    r9,QWORD PTR [rbp-0x38]
    58ee:	e9 13 ff ff ff       	jmp    5806 <free@plt+0x4d56>
    58f3:	0f 1f 44 00 00       	nop    DWORD PTR [rax+rax*1+0x0]
    58f8:	0f b7 7b 40          	movzx  edi,WORD PTR [rbx+0x40]
    58fc:	e9 c7 fd ff ff       	jmp    56c8 <free@plt+0x4c18>
    5901:	0f 1f 80 00 00 00 00 	nop    DWORD PTR [rax+0x0]
    5908:	80 7b 0e 01          	cmp    BYTE PTR [rbx+0xe],0x1
    590c:	4c 8d 0d 55 b6 01 00 	lea    r9,[rip+0x1b655]        # 20f68 <realloc@@GLIBC_2.2.5+0x7038>
    5913:	0f 85 e3 fe ff ff    	jne    57fc <free@plt+0x4d4c>
    5919:	0f b6 43 0f          	movzx  eax,BYTE PTR [rbx+0xf]
    591d:	3c 03                	cmp    al,0x3
    591f:	0f 95 c2             	setne  dl
    5922:	84 c0                	test   al,al
    5924:	74 0f                	je     5935 <free@plt+0x4e85>
    5926:	84 d2                	test   dl,dl
    5928:	4c 8d 0d 01 9f 01 00 	lea    r9,[rip+0x19f01]        # 1f830 <realloc@@GLIBC_2.2.5+0x5900>
    592f:	0f 85 c7 fe ff ff    	jne    57fc <free@plt+0x4d4c>
    5935:	0f b6 43 10          	movzx  eax,BYTE PTR [rbx+0x10]
    5939:	84 c0                	test   al,al
    593b:	74 10                	je     594d <free@plt+0x4e9d>
    593d:	3c 02                	cmp    al,0x2
    593f:	0f 87 9a 01 00 00    	ja     5adf <free@plt+0x502f>
    5945:	84 d2                	test   dl,dl
    5947:	0f 85 92 01 00 00    	jne    5adf <free@plt+0x502f>
    594d:	48 8d 7b 11          	lea    rdi,[rbx+0x11]
    5951:	48 8d 35 21 cd 01 00 	lea    rsi,[rip+0x1cd21]        # 22679 <realloc@@GLIBC_2.2.5+0x8749>
    5958:	ba 07 00 00 00       	mov    edx,0x7
    595d:	45 31 ed             	xor    r13d,r13d
    5960:	e8 6b 7b 01 00       	call   1d4d0 <realloc@@GLIBC_2.2.5+0x35a0>
    5965:	4c 8d 0d 14 9f 01 00 	lea    r9,[rip+0x19f14]        # 1f880 <realloc@@GLIBC_2.2.5+0x5950>
    596c:	85 c0                	test   eax,eax
    596e:	48 8d 05 f0 9e 01 00 	lea    rax,[rip+0x19ef0]        # 1f865 <realloc@@GLIBC_2.2.5+0x5935>
    5975:	4c 0f 45 c8          	cmovne r9,rax
    5979:	e9 7e fe ff ff       	jmp    57fc <free@plt+0x4d4c>
    597e:	66 90                	xchg   ax,ax
    5980:	44 8b 2d 99 17 22 00 	mov    r13d,DWORD PTR [rip+0x221799]        # 227120 <_rtld_global@@GLIBC_PRIVATE+0x10e0>
    5987:	48 8d 05 6a 9e 01 00 	lea    rax,[rip+0x19e6a]        # 1f7f8 <realloc@@GLIBC_2.2.5+0x58c8>
    598e:	4c 8d 0d 72 9e 01 00 	lea    r9,[rip+0x19e72]        # 1f807 <realloc@@GLIBC_2.2.5+0x58d7>
    5995:	45 85 ed             	test   r13d,r13d
    5998:	4c 0f 44 c8          	cmove  r9,rax
    599c:	e9 5b fe ff ff       	jmp    57fc <free@plt+0x4d4c>
    59a1:	0f 1f 80 00 00 00 00 	nop    DWORD PTR [rax+0x0]
    59a8:	48 8b 7d b8          	mov    rdi,QWORD PTR [rbp-0x48]
    59ac:	48 8d 35 6d 91 01 00 	lea    rsi,[rip+0x1916d]        # 1eb20 <realloc@@GLIBC_2.2.5+0x4bf0>
    59b3:	ba 08 00 00 00       	mov    edx,0x8
    59b8:	e8 13 7b 01 00       	call   1d4d0 <realloc@@GLIBC_2.2.5+0x35a0>
    59bd:	85 c0                	test   eax,eax
    59bf:	0f 84 55 fc ff ff    	je     561a <free@plt+0x4b6a>
    59c5:	e9 04 fe ff ff       	jmp    57ce <free@plt+0x4d1e>
    59ca:	66 0f 1f 44 00 00    	nop    WORD PTR [rax+rax*1+0x0]
    59d0:	49 8d 44 24 1e       	lea    rax,[r12+0x1e]
    59d5:	8b 7d c4             	mov    edi,DWORD PTR [rbp-0x3c]
    59d8:	31 d2                	xor    edx,edx
    59da:	48 83 e0 f0          	and    rax,0xfffffffffffffff0
    59de:	48 29 c4             	sub    rsp,rax
    59e1:	4c 8d 44 24 0f       	lea    r8,[rsp+0xf]
    59e6:	49 83 e0 f0          	and    r8,0xfffffffffffffff0
    59ea:	4d 89 c7             	mov    r15,r8
    59ed:	e8 6e 59 01 00       	call   1b360 <realloc@@GLIBC_2.2.5+0x1430>
    59f2:	8b 7d c4             	mov    edi,DWORD PTR [rbp-0x3c]
    59f5:	4c 89 e2             	mov    rdx,r12
    59f8:	4c 89 fe             	mov    rsi,r15
    59fb:	e8 70 57 01 00       	call   1b170 <realloc@@GLIBC_2.2.5+0x1240>
    5a00:	49 39 c4             	cmp    r12,rax
    5a03:	0f 84 47 fd ff ff    	je     5750 <free@plt+0x4ca0>
    5a09:	44 8b 2d 10 17 22 00 	mov    r13d,DWORD PTR [rip+0x221710]        # 227120 <_rtld_global@@GLIBC_PRIVATE+0x10e0>
    5a10:	4c 8d 0d f0 9d 01 00 	lea    r9,[rip+0x19df0]        # 1f807 <realloc@@GLIBC_2.2.5+0x58d7>
    5a17:	e9 e0 fd ff ff       	jmp    57fc <free@plt+0x4d4c>
    5a1c:	0f 1f 40 00          	nop    DWORD PTR [rax+0x0]
    5a20:	4c 8b 3d d9 03 22 00 	mov    r15,QWORD PTR [rip+0x2203d9]        # 225e00 <_rtld_global_ro@@GLIBC_PRIVATE+0x160>
    5a27:	45 31 ed             	xor    r13d,r13d
    5a2a:	66 0f 1f 44 00 00    	nop    WORD PTR [rax+rax*1+0x0]
    5a30:	4d 8b 47 08          	mov    r8,QWORD PTR [r15+0x8]
    5a34:	4d 85 c0             	test   r8,r8
    5a37:	74 2e                	je     5a67 <free@plt+0x4fb7>
    5a39:	44 89 ee             	mov    esi,r13d
    5a3c:	89 ca                	mov    edx,ecx
    5a3e:	89 4d c4             	mov    DWORD PTR [rbp-0x3c],ecx
    5a41:	48 83 c6 47          	add    rsi,0x47
    5a45:	4c 89 f7             	mov    rdi,r14
    5a48:	48 c1 e6 04          	shl    rsi,0x4
    5a4c:	4c 01 e6             	add    rsi,r12
    5a4f:	41 ff d0             	call   r8
    5a52:	48 85 c0             	test   rax,rax
    5a55:	49 89 c6             	mov    r14,rax
    5a58:	8b 4d c4             	mov    ecx,DWORD PTR [rbp-0x3c]
    5a5b:	0f 84 d8 fd ff ff    	je     5839 <free@plt+0x4d89>
    5a61:	8b 05 a1 03 22 00    	mov    eax,DWORD PTR [rip+0x2203a1]        # 225e08 <_rtld_global_ro@@GLIBC_PRIVATE+0x168>
    5a67:	41 83 c5 01          	add    r13d,0x1
    5a6b:	4d 8b 7f 40          	mov    r15,QWORD PTR [r15+0x40]
    5a6f:	41 39 c5             	cmp    r13d,eax
    5a72:	72 bc                	jb     5a30 <free@plt+0x4f80>
    5a74:	e9 0f fb ff ff       	jmp    5588 <free@plt+0x4ad8>
    5a79:	0f 1f 80 00 00 00 00 	nop    DWORD PTR [rax+0x0]
    5a80:	4c 8b 2b             	mov    r13,QWORD PTR [rbx]
    5a83:	e9 6b fb ff ff       	jmp    55f3 <free@plt+0x4b43>
    5a88:	0f 1f 84 00 00 00 00 	nop    DWORD PTR [rax+rax*1+0x0]
    5a8f:	00 
    5a90:	45 31 ed             	xor    r13d,r13d
    5a93:	4c 8d 0d 06 b5 01 00 	lea    r9,[rip+0x1b506]        # 20fa0 <realloc@@GLIBC_2.2.5+0x7070>
    5a9a:	e9 5d fd ff ff       	jmp    57fc <free@plt+0x4d4c>
    5a9f:	45 31 ed             	xor    r13d,r13d
    5aa2:	4c 8d 0d 27 b5 01 00 	lea    r9,[rip+0x1b527]        # 20fd0 <realloc@@GLIBC_2.2.5+0x70a0>
    5aa9:	e9 4e fd ff ff       	jmp    57fc <free@plt+0x4d4c>
    5aae:	f7 45 b4 00 00 00 20 	test   DWORD PTR [rbp-0x4c],0x20000000
    5ab5:	0f 85 b8 fb ff ff    	jne    5673 <free@plt+0x4bc3>
    5abb:	45 31 ed             	xor    r13d,r13d
    5abe:	4c 8d 0d 33 b5 01 00 	lea    r9,[rip+0x1b533]        # 20ff8 <realloc@@GLIBC_2.2.5+0x70c8>
    5ac5:	e9 32 fd ff ff       	jmp    57fc <free@plt+0x4d4c>
    5aca:	66 0f 1f 44 00 00    	nop    WORD PTR [rax+rax*1+0x0]
    5ad0:	45 31 ed             	xor    r13d,r13d
    5ad3:	4c 8d 0d 46 b5 01 00 	lea    r9,[rip+0x1b546]        # 21020 <realloc@@GLIBC_2.2.5+0x70f0>
    5ada:	e9 1d fd ff ff       	jmp    57fc <free@plt+0x4d4c>
    5adf:	45 31 ed             	xor    r13d,r13d
    5ae2:	4c 8d 0d 5f 9d 01 00 	lea    r9,[rip+0x19d5f]        # 1f848 <realloc@@GLIBC_2.2.5+0x5918>
    5ae9:	e9 0e fd ff ff       	jmp    57fc <free@plt+0x4d4c>
    5aee:	45 31 ed             	xor    r13d,r13d
    5af1:	4c 8d 0d 25 9d 01 00 	lea    r9,[rip+0x19d25]        # 1f81d <realloc@@GLIBC_2.2.5+0x58ed>
    5af8:	e9 ff fc ff ff       	jmp    57fc <free@plt+0x4d4c>
    5afd:	0f 1f 00             	nop    DWORD PTR [rax]
    5b00:	55                   	push   rbp
    5b01:	48 89 e5             	mov    rbp,rsp
    5b04:	41 57                	push   r15
    5b06:	41 56                	push   r14
    5b08:	41 55                	push   r13
    5b0a:	41 54                	push   r12
    5b0c:	53                   	push   rbx
    5b0d:	48 81 ec 18 01 00 00 	sub    rsp,0x118
    5b14:	48 8b 01             	mov    rax,QWORD PTR [rcx]
    5b17:	48 85 c0             	test   rax,rax
    5b1a:	48 89 85 10 ff ff ff 	mov    QWORD PTR [rbp-0xf0],rax
    5b21:	0f 84 84 02 00 00    	je     5dab <free@plt+0x52fb>
    5b27:	48 8b 05 f2 02 22 00 	mov    rax,QWORD PTR [rip+0x2202f2]        # 225e20 <_rtld_global_ro@@GLIBC_PRIVATE+0x180>
    5b2e:	48 03 05 0b 15 22 00 	add    rax,QWORD PTR [rip+0x22150b]        # 227040 <_rtld_global@@GLIBC_PRIVATE+0x1000>
    5b35:	48 89 b5 28 ff ff ff 	mov    QWORD PTR [rbp-0xd8],rsi
    5b3c:	4c 89 8d 18 ff ff ff 	mov    QWORD PTR [rbp-0xe8],r9
    5b43:	4c 89 85 f8 fe ff ff 	mov    QWORD PTR [rbp-0x108],r8
    5b4a:	48 89 8d d0 fe ff ff 	mov    QWORD PTR [rbp-0x130],rcx
    5b51:	89 95 24 ff ff ff    	mov    DWORD PTR [rbp-0xdc],edx
    5b57:	48 89 bd 30 ff ff ff 	mov    QWORD PTR [rbp-0xd0],rdi
    5b5e:	48 8d 44 06 1e       	lea    rax,[rsi+rax*1+0x1e]
    5b63:	48 f7 d6             	not    rsi
    5b66:	c7 85 0c ff ff ff 00 	mov    DWORD PTR [rbp-0xf4],0x0
    5b6d:	00 00 00 
    5b70:	48 c7 85 e0 fe ff ff 	mov    QWORD PTR [rbp-0x120],0x0
    5b77:	00 00 00 00 
    5b7b:	48 89 b5 e8 fe ff ff 	mov    QWORD PTR [rbp-0x118],rsi
    5b82:	48 83 e0 f0          	and    rax,0xfffffffffffffff0
    5b86:	48 29 c4             	sub    rsp,rax
    5b89:	48 8d 44 24 0f       	lea    rax,[rsp+0xf]
    5b8e:	48 83 e0 f0          	and    rax,0xfffffffffffffff0
    5b92:	49 89 c7             	mov    r15,rax
    5b95:	89 d0                	mov    eax,edx
    5b97:	25 00 00 00 04       	and    eax,0x4000000
    5b9c:	89 85 20 ff ff ff    	mov    DWORD PTR [rbp-0xe0],eax
    5ba2:	48 8d 85 40 ff ff ff 	lea    rax,[rbp-0xc0]
    5ba9:	48 89 85 f0 fe ff ff 	mov    QWORD PTR [rbp-0x110],rax
    5bb0:	48 8b 85 10 ff ff ff 	mov    rax,QWORD PTR [rbp-0xf0]
    5bb7:	66 0f 1f 84 00 00 00 	nop    WORD PTR [rax+rax*1+0x0]
    5bbe:	00 00 
    5bc0:	f6 05 d9 00 22 00 01 	test   BYTE PTR [rip+0x2200d9],0x1        # 225ca0 <_rtld_global_ro@@GLIBC_PRIVATE>
    5bc7:	48 8b 18             	mov    rbx,QWORD PTR [rax]
    5bca:	0f 85 f6 02 00 00    	jne    5ec6 <free@plt+0x5416>
    5bd0:	48 8b 53 20          	mov    rdx,QWORD PTR [rbx+0x20]
    5bd4:	48 8b 73 18          	mov    rsi,QWORD PTR [rbx+0x18]
    5bd8:	4c 89 ff             	mov    rdi,r15
    5bdb:	e8 40 7f 01 00       	call   1db20 <realloc@@GLIBC_2.2.5+0x3bf0>
    5be0:	48 8b 15 41 02 22 00 	mov    rdx,QWORD PTR [rip+0x220241]        # 225e28 <_rtld_global_ro@@GLIBC_PRIVATE+0x188>
    5be7:	48 89 85 38 ff ff ff 	mov    QWORD PTR [rbp-0xc8],rax
    5bee:	48 85 d2             	test   rdx,rdx
    5bf1:	0f 84 e1 04 00 00    	je     60d8 <free@plt+0x5628>
    5bf7:	41 be 01 00 00 00    	mov    r14d,0x1
    5bfd:	45 31 ed             	xor    r13d,r13d
    5c00:	eb 5a                	jmp    5c5c <free@plt+0x51ac>
    5c02:	66 0f 1f 44 00 00    	nop    WORD PTR [rax+rax*1+0x0]
    5c08:	83 f9 ff             	cmp    ecx,0xffffffff
    5c0b:	0f 84 af 01 00 00    	je     5dc0 <free@plt+0x5310>
    5c11:	8b 85 20 ff ff ff    	mov    eax,DWORD PTR [rbp-0xe0]
    5c17:	42 c7 44 b3 24 02 00 	mov    DWORD PTR [rbx+r14*4+0x24],0x2
    5c1e:	00 00 
    5c20:	41 bd 01 00 00 00    	mov    r13d,0x1
    5c26:	85 c0                	test   eax,eax
    5c28:	0f 84 e1 00 00 00    	je     5d0f <free@plt+0x525f>
    5c2e:	8b 35 34 02 22 00    	mov    esi,DWORD PTR [rip+0x220234]        # 225e68 <__libc_enable_secure@@GLIBC_PRIVATE>
    5c34:	85 f6                	test   esi,esi
    5c36:	0f 85 44 02 00 00    	jne    5e80 <free@plt+0x53d0>
    5c3c:	83 f9 ff             	cmp    ecx,0xffffffff
    5c3f:	0f 85 ca 00 00 00    	jne    5d0f <free@plt+0x525f>
    5c45:	48 8b 15 dc 01 22 00 	mov    rdx,QWORD PTR [rip+0x2201dc]        # 225e28 <_rtld_global_ro@@GLIBC_PRIVATE+0x188>
    5c4c:	49 39 d6             	cmp    r14,rdx
    5c4f:	49 8d 46 01          	lea    rax,[r14+0x1]
    5c53:	0f 83 0f 01 00 00    	jae    5d68 <free@plt+0x52b8>
    5c59:	49 89 c6             	mov    r14,rax
    5c5c:	42 83 7c b3 24 01    	cmp    DWORD PTR [rbx+r14*4+0x24],0x1
    5c62:	74 e8                	je     5c4c <free@plt+0x519c>
    5c64:	48 8b 15 c5 01 22 00 	mov    rdx,QWORD PTR [rip+0x2201c5]        # 225e30 <_rtld_global_ro@@GLIBC_PRIVATE+0x190>
    5c6b:	4c 89 f0             	mov    rax,r14
    5c6e:	48 8b bd 38 ff ff ff 	mov    rdi,QWORD PTR [rbp-0xc8]
    5c75:	48 c1 e0 04          	shl    rax,0x4
    5c79:	48 8d 44 02 f0       	lea    rax,[rdx+rax*1-0x10]
    5c7e:	48 8b 50 08          	mov    rdx,QWORD PTR [rax+0x8]
    5c82:	48 8b 30             	mov    rsi,QWORD PTR [rax]
    5c85:	e8 96 7e 01 00       	call   1db20 <realloc@@GLIBC_2.2.5+0x3bf0>
    5c8a:	48 8b 95 28 ff ff ff 	mov    rdx,QWORD PTR [rbp-0xd8]
    5c91:	48 8b b5 30 ff ff ff 	mov    rsi,QWORD PTR [rbp-0xd0]
    5c98:	48 89 c7             	mov    rdi,rax
    5c9b:	e8 80 7e 01 00       	call   1db20 <realloc@@GLIBC_2.2.5+0x3bf0>
    5ca0:	4c 29 f8             	sub    rax,r15
    5ca3:	f6 05 f6 ff 21 00 01 	test   BYTE PTR [rip+0x21fff6],0x1        # 225ca0 <_rtld_global_ro@@GLIBC_PRIVATE>
    5caa:	49 89 c4             	mov    r12,rax
    5cad:	0f 85 9d 01 00 00    	jne    5e50 <free@plt+0x53a0>
    5cb3:	48 83 ec 08          	sub    rsp,0x8
    5cb7:	44 8b 85 24 ff ff ff 	mov    r8d,DWORD PTR [rbp-0xdc]
    5cbe:	4c 8b 4d 20          	mov    r9,QWORD PTR [rbp+0x20]
    5cc2:	6a 00                	push   0x0
    5cc4:	48 8b 55 10          	mov    rdx,QWORD PTR [rbp+0x10]
    5cc8:	4c 89 ff             	mov    rdi,r15
    5ccb:	8b 4d 18             	mov    ecx,DWORD PTR [rbp+0x18]
    5cce:	48 8b b5 18 ff ff ff 	mov    rsi,QWORD PTR [rbp-0xe8]
    5cd5:	e8 66 f8 ff ff       	call   5540 <free@plt+0x4a90>
    5cda:	89 c1                	mov    ecx,eax
    5cdc:	42 8b 44 b3 24       	mov    eax,DWORD PTR [rbx+r14*4+0x24]
    5ce1:	5f                   	pop    rdi
    5ce2:	41 58                	pop    r8
    5ce4:	85 c0                	test   eax,eax
    5ce6:	0f 84 1c ff ff ff    	je     5c08 <free@plt+0x5158>
    5cec:	83 f8 01             	cmp    eax,0x1
    5cef:	0f 95 c0             	setne  al
    5cf2:	0f b6 c0             	movzx  eax,al
    5cf5:	41 09 c5             	or     r13d,eax
    5cf8:	83 f9 ff             	cmp    ecx,0xffffffff
    5cfb:	0f 84 44 ff ff ff    	je     5c45 <free@plt+0x5195>
    5d01:	8b 85 20 ff ff ff    	mov    eax,DWORD PTR [rbp-0xe0]
    5d07:	85 c0                	test   eax,eax
    5d09:	0f 85 1f ff ff ff    	jne    5c2e <free@plt+0x517e>
    5d0f:	4c 89 e7             	mov    rdi,r12
    5d12:	89 8d 38 ff ff ff    	mov    DWORD PTR [rbp-0xc8],ecx
    5d18:	e8 63 ad ff ff       	call   a80 <malloc@plt>
    5d1d:	48 8b b5 f8 fe ff ff 	mov    rsi,QWORD PTR [rbp-0x108]
    5d24:	48 85 c0             	test   rax,rax
    5d27:	8b 8d 38 ff ff ff    	mov    ecx,DWORD PTR [rbp-0xc8]
    5d2d:	48 89 06             	mov    QWORD PTR [rsi],rax
    5d30:	0f 84 14 04 00 00    	je     614a <free@plt+0x569a>
    5d36:	4c 89 e2             	mov    rdx,r12
    5d39:	4c 89 fe             	mov    rsi,r15
    5d3c:	48 89 c7             	mov    rdi,rax
    5d3f:	89 8d 38 ff ff ff    	mov    DWORD PTR [rbp-0xc8],ecx
    5d45:	e8 06 80 01 00       	call   1dd50 <realloc@@GLIBC_2.2.5+0x3e20>
    5d4a:	8b 8d 38 ff ff ff    	mov    ecx,DWORD PTR [rbp-0xc8]
    5d50:	89 c8                	mov    eax,ecx
    5d52:	48 8d 65 d8          	lea    rsp,[rbp-0x28]
    5d56:	5b                   	pop    rbx
    5d57:	41 5c                	pop    r12
    5d59:	41 5d                	pop    r13
    5d5b:	41 5e                	pop    r14
    5d5d:	41 5f                	pop    r15
    5d5f:	5d                   	pop    rbp
    5d60:	c3                   	ret
    5d61:	0f 1f 80 00 00 00 00 	nop    DWORD PTR [rax+0x0]
    5d68:	45 85 ed             	test   r13d,r13d
    5d6b:	74 10                	je     5d7d <free@plt+0x52cd>
    5d6d:	8b 05 ad 13 22 00    	mov    eax,DWORD PTR [rip+0x2213ad]        # 227120 <_rtld_global@@GLIBC_PRIVATE+0x10e0>
    5d73:	83 f8 0d             	cmp    eax,0xd
    5d76:	74 05                	je     5d7d <free@plt+0x52cd>
    5d78:	83 f8 02             	cmp    eax,0x2
    5d7b:	75 2e                	jne    5dab <free@plt+0x52fb>
    5d7d:	48 83 85 10 ff ff ff 	add    QWORD PTR [rbp-0xf0],0x8
    5d84:	08 
    5d85:	44 09 ad 0c ff ff ff 	or     DWORD PTR [rbp-0xf4],r13d
    5d8c:	48 8b 85 10 ff ff ff 	mov    rax,QWORD PTR [rbp-0xf0]
    5d93:	48 83 38 00          	cmp    QWORD PTR [rax],0x0
    5d97:	0f 85 23 fe ff ff    	jne    5bc0 <free@plt+0x5110>
    5d9d:	8b 8d 0c ff ff ff    	mov    ecx,DWORD PTR [rbp-0xf4]
    5da3:	85 c9                	test   ecx,ecx
    5da5:	0f 84 35 03 00 00    	je     60e0 <free@plt+0x5630>
    5dab:	48 8d 65 d8          	lea    rsp,[rbp-0x28]
    5daf:	b8 ff ff ff ff       	mov    eax,0xffffffff
    5db4:	5b                   	pop    rbx
    5db5:	41 5c                	pop    r12
    5db7:	41 5d                	pop    r13
    5db9:	41 5e                	pop    r14
    5dbb:	41 5f                	pop    r15
    5dbd:	5d                   	pop    rbp
    5dbe:	c3                   	ret
    5dbf:	90                   	nop
    5dc0:	48 83 7d 10 00       	cmp    QWORD PTR [rbp+0x10],0x0
    5dc5:	74 29                	je     5df0 <free@plt+0x5340>
    5dc7:	48 8b 45 10          	mov    rax,QWORD PTR [rbp+0x10]
    5dcb:	48 8d 0d 6e 02 22 00 	lea    rcx,[rip+0x22026e]        # 226040 <_rtld_global@@GLIBC_PRIVATE>
    5dd2:	48 8b 40 30          	mov    rax,QWORD PTR [rax+0x30]
    5dd6:	48 8d 04 c0          	lea    rax,[rax+rax*8]
    5dda:	48 c1 e0 04          	shl    rax,0x4
    5dde:	48 8b 14 01          	mov    rdx,QWORD PTR [rcx+rax*1]
    5de2:	b8 01 00 00 00       	mov    eax,0x1
    5de7:	f6 82 15 03 00 00 08 	test   BYTE PTR [rdx+0x315],0x8
    5dee:	75 4f                	jne    5e3f <free@plt+0x538f>
    5df0:	48 8b 85 e8 fe ff ff 	mov    rax,QWORD PTR [rbp-0x118]
    5df7:	48 8b 95 f0 fe ff ff 	mov    rdx,QWORD PTR [rbp-0x110]
    5dfe:	4d 01 fc             	add    r12,r15
    5e01:	4c 89 fe             	mov    rsi,r15
    5e04:	bf 01 00 00 00       	mov    edi,0x1
    5e09:	41 c6 04 04 00       	mov    BYTE PTR [r12+rax*1],0x0
    5e0e:	e8 7d 52 01 00       	call   1b090 <realloc@@GLIBC_2.2.5+0x1160>
    5e13:	85 c0                	test   eax,eax
    5e15:	75 59                	jne    5e70 <free@plt+0x53c0>
    5e17:	8b 85 58 ff ff ff    	mov    eax,DWORD PTR [rbp-0xa8]
    5e1d:	31 d2                	xor    edx,edx
    5e1f:	25 00 f0 00 00       	and    eax,0xf000
    5e24:	3d 00 40 00 00       	cmp    eax,0x4000
    5e29:	0f 94 c2             	sete   dl
    5e2c:	83 c2 01             	add    edx,0x1
    5e2f:	3d 00 40 00 00       	cmp    eax,0x4000
    5e34:	0f 94 c0             	sete   al
    5e37:	0f b6 c0             	movzx  eax,al
    5e3a:	42 89 54 b3 24       	mov    DWORD PTR [rbx+r14*4+0x24],edx
    5e3f:	41 09 c5             	or     r13d,eax
    5e42:	48 8b 15 df ff 21 00 	mov    rdx,QWORD PTR [rip+0x21ffdf]        # 225e28 <_rtld_global_ro@@GLIBC_PRIVATE+0x188>
    5e49:	e9 fe fd ff ff       	jmp    5c4c <free@plt+0x519c>
    5e4e:	66 90                	xchg   ax,ax
    5e50:	48 8d 3d 67 9a 01 00 	lea    rdi,[rip+0x19a67]        # 1f8be <realloc@@GLIBC_2.2.5+0x598e>
    5e57:	4c 89 fe             	mov    rsi,r15
    5e5a:	31 c0                	xor    eax,eax
    5e5c:	e8 4f b7 00 00       	call   115b0 <_dl_debug_state@@GLIBC_PRIVATE+0x720>
    5e61:	e9 4d fe ff ff       	jmp    5cb3 <free@plt+0x5203>
    5e66:	66 2e 0f 1f 84 00 00 	cs nop WORD PTR [rax+rax*1+0x0]
    5e6d:	00 00 00 
    5e70:	31 c0                	xor    eax,eax
    5e72:	ba 01 00 00 00       	mov    edx,0x1
    5e77:	eb c1                	jmp    5e3a <free@plt+0x538a>
    5e79:	0f 1f 80 00 00 00 00 	nop    DWORD PTR [rax+0x0]
    5e80:	48 8b 95 f0 fe ff ff 	mov    rdx,QWORD PTR [rbp-0x110]
    5e87:	89 ce                	mov    esi,ecx
    5e89:	bf 01 00 00 00       	mov    edi,0x1
    5e8e:	89 8d 00 ff ff ff    	mov    DWORD PTR [rbp-0x100],ecx
    5e94:	e8 37 52 01 00       	call   1b0d0 <realloc@@GLIBC_2.2.5+0x11a0>
    5e99:	85 c0                	test   eax,eax
    5e9b:	8b 8d 00 ff ff ff    	mov    ecx,DWORD PTR [rbp-0x100]
    5ea1:	75 0d                	jne    5eb0 <free@plt+0x5400>
    5ea3:	f6 85 59 ff ff ff 08 	test   BYTE PTR [rbp-0xa7],0x8
    5eaa:	0f 85 8c fd ff ff    	jne    5c3c <free@plt+0x518c>
    5eb0:	89 cf                	mov    edi,ecx
    5eb2:	e8 99 53 01 00       	call   1b250 <realloc@@GLIBC_2.2.5+0x1320>
    5eb7:	c7 05 5f 12 22 00 02 	mov    DWORD PTR [rip+0x22125f],0x2        # 227120 <_rtld_global@@GLIBC_PRIVATE+0x10e0>
    5ebe:	00 00 00 
    5ec1:	e9 7f fd ff ff       	jmp    5c45 <free@plt+0x5195>
    5ec6:	48 8b 43 08          	mov    rax,QWORD PTR [rbx+0x8]
    5eca:	48 39 85 e0 fe ff ff 	cmp    QWORD PTR [rbp-0x120],rax
    5ed1:	48 89 85 00 ff ff ff 	mov    QWORD PTR [rbp-0x100],rax
    5ed8:	0f 84 f2 fc ff ff    	je     5bd0 <free@plt+0x5120>
    5ede:	48 8b 43 10          	mov    rax,QWORD PTR [rbx+0x10]
    5ee2:	48 8d 3d aa 99 01 00 	lea    rdi,[rip+0x199aa]        # 1f893 <realloc@@GLIBC_2.2.5+0x5963>
    5ee9:	48 89 a5 d8 fe ff ff 	mov    QWORD PTR [rbp-0x128],rsp
    5ef0:	48 89 85 e0 fe ff ff 	mov    QWORD PTR [rbp-0x120],rax
    5ef7:	48 8b 05 22 ff 21 00 	mov    rax,QWORD PTR [rip+0x21ff22]        # 225e20 <_rtld_global_ro@@GLIBC_PRIVATE+0x180>
    5efe:	48 03 05 3b 11 22 00 	add    rax,QWORD PTR [rip+0x22113b]        # 227040 <_rtld_global@@GLIBC_PRIVATE+0x1000>
    5f05:	48 83 c0 0f          	add    rax,0xf
    5f09:	48 83 e0 f0          	and    rax,0xfffffffffffffff0
    5f0d:	48 29 c4             	sub    rsp,rax
    5f10:	31 c0                	xor    eax,eax
    5f12:	e8 99 b6 00 00       	call   115b0 <_dl_debug_state@@GLIBC_PRIVATE+0x720>
    5f17:	48 8b 85 10 ff ff ff 	mov    rax,QWORD PTR [rbp-0xf0]
    5f1e:	48 8b 00             	mov    rax,QWORD PTR [rax]
    5f21:	48 85 c0             	test   rax,rax
    5f24:	0f 84 1f 01 00 00    	je     6049 <free@plt+0x5599>
    5f2a:	48 8b 8d 00 ff ff ff 	mov    rcx,QWORD PTR [rbp-0x100]
    5f31:	48 3b 48 08          	cmp    rcx,QWORD PTR [rax+0x8]
    5f35:	0f 85 0e 01 00 00    	jne    6049 <free@plt+0x5599>
    5f3b:	48 8d 4c 24 01       	lea    rcx,[rsp+0x1]
    5f40:	4c 8b b5 10 ff ff ff 	mov    r14,QWORD PTR [rbp-0xf0]
    5f47:	48 89 9d c8 fe ff ff 	mov    QWORD PTR [rbp-0x138],rbx
    5f4e:	41 bd 01 00 00 00    	mov    r13d,0x1
    5f54:	48 89 e3             	mov    rbx,rsp
    5f57:	4c 89 bd c0 fe ff ff 	mov    QWORD PTR [rbp-0x140],r15
    5f5e:	48 89 8d 38 ff ff ff 	mov    QWORD PTR [rbp-0xc8],rcx
    5f65:	0f 1f 00             	nop    DWORD PTR [rax]
    5f68:	48 8b 50 20          	mov    rdx,QWORD PTR [rax+0x20]
    5f6c:	48 8b 70 18          	mov    rsi,QWORD PTR [rax+0x18]
    5f70:	48 89 df             	mov    rdi,rbx
    5f73:	e8 a8 7b 01 00       	call   1db20 <realloc@@GLIBC_2.2.5+0x3bf0>
    5f78:	48 8b 15 a9 fe 21 00 	mov    rdx,QWORD PTR [rip+0x21fea9]        # 225e28 <_rtld_global_ro@@GLIBC_PRIVATE+0x188>
    5f7f:	49 89 c4             	mov    r12,rax
    5f82:	48 85 d2             	test   rdx,rdx
    5f85:	0f 84 93 00 00 00    	je     601e <free@plt+0x556e>
    5f8b:	44 89 e8             	mov    eax,r13d
    5f8e:	45 31 ff             	xor    r15d,r15d
    5f91:	4d 89 f5             	mov    r13,r14
    5f94:	41 89 c6             	mov    r14d,eax
    5f97:	66 0f 1f 84 00 00 00 	nop    WORD PTR [rax+rax*1+0x0]
    5f9e:	00 00 
    5fa0:	49 8b 45 00          	mov    rax,QWORD PTR [r13+0x0]
    5fa4:	42 83 7c b8 28 01    	cmp    DWORD PTR [rax+r15*4+0x28],0x1
    5faa:	74 60                	je     600c <free@plt+0x555c>
    5fac:	4c 89 f8             	mov    rax,r15
    5faf:	4c 89 e7             	mov    rdi,r12
    5fb2:	48 c1 e0 04          	shl    rax,0x4
    5fb6:	48 03 05 73 fe 21 00 	add    rax,QWORD PTR [rip+0x21fe73]        # 225e30 <_rtld_global_ro@@GLIBC_PRIVATE+0x190>
    5fbd:	48 8b 50 08          	mov    rdx,QWORD PTR [rax+0x8]
    5fc1:	48 8b 30             	mov    rsi,QWORD PTR [rax]
    5fc4:	e8 57 7b 01 00       	call   1db20 <realloc@@GLIBC_2.2.5+0x3bf0>
    5fc9:	48 39 c3             	cmp    rbx,rax
    5fcc:	0f 84 fe 00 00 00    	je     60d0 <free@plt+0x5620>
    5fd2:	48 3b 85 38 ff ff ff 	cmp    rax,QWORD PTR [rbp-0xc8]
    5fd9:	0f 84 e1 00 00 00    	je     60c0 <free@plt+0x5610>
    5fdf:	c6 40 ff 00          	mov    BYTE PTR [rax-0x1],0x0
    5fe3:	48 8d 05 a5 98 01 00 	lea    rax,[rip+0x198a5]        # 1f88f <realloc@@GLIBC_2.2.5+0x595f>
    5fea:	48 8d 3d 22 9f 01 00 	lea    rdi,[rip+0x19f22]        # 1ff13 <realloc@@GLIBC_2.2.5+0x5fe3>
    5ff1:	45 85 f6             	test   r14d,r14d
    5ff4:	48 89 de             	mov    rsi,rbx
    5ff7:	48 0f 44 f8          	cmove  rdi,rax
    5ffb:	31 c0                	xor    eax,eax
    5ffd:	45 31 f6             	xor    r14d,r14d
    6000:	e8 5b b6 00 00       	call   11660 <_dl_debug_state@@GLIBC_PRIVATE+0x7d0>
    6005:	48 8b 15 1c fe 21 00 	mov    rdx,QWORD PTR [rip+0x21fe1c]        # 225e28 <_rtld_global_ro@@GLIBC_PRIVATE+0x188>
    600c:	49 83 c7 01          	add    r15,0x1
    6010:	49 39 d7             	cmp    r15,rdx
    6013:	72 8b                	jb     5fa0 <free@plt+0x54f0>
    6015:	44 89 f0             	mov    eax,r14d
    6018:	4d 89 ee             	mov    r14,r13
    601b:	41 89 c5             	mov    r13d,eax
    601e:	49 83 c6 08          	add    r14,0x8
    6022:	49 8b 06             	mov    rax,QWORD PTR [r14]
    6025:	48 85 c0             	test   rax,rax
    6028:	74 11                	je     603b <free@plt+0x558b>
    602a:	48 8b 8d 00 ff ff ff 	mov    rcx,QWORD PTR [rbp-0x100]
    6031:	48 3b 48 08          	cmp    rcx,QWORD PTR [rax+0x8]
    6035:	0f 84 2d ff ff ff    	je     5f68 <free@plt+0x54b8>
    603b:	48 8b 9d c8 fe ff ff 	mov    rbx,QWORD PTR [rbp-0x138]
    6042:	4c 8b bd c0 fe ff ff 	mov    r15,QWORD PTR [rbp-0x140]
    6049:	48 83 bd e0 fe ff ff 	cmp    QWORD PTR [rbp-0x120],0x0
    6050:	00 
    6051:	0f 84 cf 00 00 00    	je     6126 <free@plt+0x5676>
    6057:	48 8b 85 e0 fe ff ff 	mov    rax,QWORD PTR [rbp-0x120]
    605e:	80 38 00             	cmp    BYTE PTR [rax],0x0
    6061:	75 1f                	jne    6082 <free@plt+0x55d2>
    6063:	48 8b 05 16 fc 21 00 	mov    rax,QWORD PTR [rip+0x21fc16]        # 225c80 <_dl_argv@@GLIBC_PRIVATE>
    606a:	48 8d 15 ac 93 01 00 	lea    rdx,[rip+0x193ac]        # 1f41d <realloc@@GLIBC_2.2.5+0x54ed>
    6071:	48 8b 00             	mov    rax,QWORD PTR [rax]
    6074:	48 85 c0             	test   rax,rax
    6077:	48 0f 45 d0          	cmovne rdx,rax
    607b:	48 89 95 e0 fe ff ff 	mov    QWORD PTR [rbp-0x120],rdx
    6082:	48 8b 95 e0 fe ff ff 	mov    rdx,QWORD PTR [rbp-0x120]
    6089:	48 8b b5 00 ff ff ff 	mov    rsi,QWORD PTR [rbp-0x100]
    6090:	48 8d 3d 0a 98 01 00 	lea    rdi,[rip+0x1980a]        # 1f8a1 <realloc@@GLIBC_2.2.5+0x5971>
    6097:	31 c0                	xor    eax,eax
    6099:	e8 c2 b5 00 00       	call   11660 <_dl_debug_state@@GLIBC_PRIVATE+0x7d0>
    609e:	48 8b 85 00 ff ff ff 	mov    rax,QWORD PTR [rbp-0x100]
    60a5:	48 8b a5 d8 fe ff ff 	mov    rsp,QWORD PTR [rbp-0x128]
    60ac:	48 89 85 e0 fe ff ff 	mov    QWORD PTR [rbp-0x120],rax
    60b3:	e9 18 fb ff ff       	jmp    5bd0 <free@plt+0x5120>
    60b8:	0f 1f 84 00 00 00 00 	nop    DWORD PTR [rax+rax*1+0x0]
    60bf:	00 
    60c0:	80 3b 2f             	cmp    BYTE PTR [rbx],0x2f
    60c3:	0f 85 16 ff ff ff    	jne    5fdf <free@plt+0x552f>
    60c9:	0f 1f 80 00 00 00 00 	nop    DWORD PTR [rax+0x0]
    60d0:	c6 00 00             	mov    BYTE PTR [rax],0x0
    60d3:	e9 0b ff ff ff       	jmp    5fe3 <free@plt+0x5533>
    60d8:	45 31 ed             	xor    r13d,r13d
    60db:	e9 9d fc ff ff       	jmp    5d7d <free@plt+0x52cd>
    60e0:	48 8b 85 d0 fe ff ff 	mov    rax,QWORD PTR [rbp-0x130]
    60e7:	8b 50 08             	mov    edx,DWORD PTR [rax+0x8]
    60ea:	85 d2                	test   edx,edx
    60ec:	75 52                	jne    6140 <free@plt+0x5690>
    60ee:	48 8b 8d d0 fe ff ff 	mov    rcx,QWORD PTR [rbp-0x130]
    60f5:	48 8d 05 14 fd 21 00 	lea    rax,[rip+0x21fd14]        # 225e10 <_rtld_global_ro@@GLIBC_PRIVATE+0x170>
    60fc:	48 39 c1             	cmp    rcx,rax
    60ff:	0f 84 a6 fc ff ff    	je     5dab <free@plt+0x52fb>
    6105:	48 8d 05 34 fd 21 00 	lea    rax,[rip+0x21fd34]        # 225e40 <_rtld_global_ro@@GLIBC_PRIVATE+0x1a0>
    610c:	48 39 c1             	cmp    rcx,rax
    610f:	0f 84 96 fc ff ff    	je     5dab <free@plt+0x52fb>
    6115:	48 c7 01 ff ff ff ff 	mov    QWORD PTR [rcx],0xffffffffffffffff
    611c:	b8 ff ff ff ff       	mov    eax,0xffffffff
    6121:	e9 2c fc ff ff       	jmp    5d52 <free@plt+0x52a2>
    6126:	48 8b b5 00 ff ff ff 	mov    rsi,QWORD PTR [rbp-0x100]
    612d:	48 8d 3d 82 97 01 00 	lea    rdi,[rip+0x19782]        # 1f8b6 <realloc@@GLIBC_2.2.5+0x5986>
    6134:	31 c0                	xor    eax,eax
    6136:	e8 25 b5 00 00       	call   11660 <_dl_debug_state@@GLIBC_PRIVATE+0x7d0>
    613b:	e9 5e ff ff ff       	jmp    609e <free@plt+0x55ee>
    6140:	48 8b 38             	mov    rdi,QWORD PTR [rax]
    6143:	e8 68 a9 ff ff       	call   ab0 <free@plt>
    6148:	eb a4                	jmp    60ee <free@plt+0x563e>
    614a:	89 cf                	mov    edi,ecx
    614c:	e8 ff 50 01 00       	call   1b250 <realloc@@GLIBC_2.2.5+0x1320>
    6151:	e9 55 fc ff ff       	jmp    5dab <free@plt+0x52fb>
    6156:	66 2e 0f 1f 84 00 00 	cs nop WORD PTR [rax+rax*1+0x0]
    615d:	00 00 00 
    6160:	55                   	push   rbp
    6161:	48 89 e5             	mov    rbp,rsp
    6164:	41 57                	push   r15
    6166:	41 56                	push   r14
    6168:	41 55                	push   r13
    616a:	41 54                	push   r12
    616c:	41 89 d6             	mov    r14d,edx
    616f:	53                   	push   rbx
    6170:	4c 89 cb             	mov    rbx,r9
    6173:	48 81 ec 18 01 00 00 	sub    rsp,0x118
    617a:	48 89 b5 f8 fe ff ff 	mov    QWORD PTR [rbp-0x108],rsi
    6181:	48 8b 75 28          	mov    rsi,QWORD PTR [rbp+0x28]
    6185:	48 89 bd 38 ff ff ff 	mov    QWORD PTR [rbp-0xc8],rdi
    618c:	31 ff                	xor    edi,edi
    618e:	89 95 24 ff ff ff    	mov    DWORD PTR [rbp-0xdc],edx
    6194:	48 89 8d 00 ff ff ff 	mov    QWORD PTR [rbp-0x100],rcx
    619b:	4c 89 85 30 ff ff ff 	mov    QWORD PTR [rbp-0xd0],r8
    61a2:	e8 f9 ac 00 00       	call   10ea0 <_dl_debug_state@@GLIBC_PRIVATE+0x10>
    61a7:	48 8d 95 40 ff ff ff 	lea    rdx,[rbp-0xc0]
    61ae:	44 89 f6             	mov    esi,r14d
    61b1:	bf 01 00 00 00       	mov    edi,0x1
    61b6:	48 89 85 28 ff ff ff 	mov    QWORD PTR [rbp-0xd8],rax
    61bd:	e8 0e 4f 01 00       	call   1b0d0 <realloc@@GLIBC_2.2.5+0x11a0>
    61c2:	85 c0                	test   eax,eax
    61c4:	0f 88 a8 07 00 00    	js     6972 <free@plt+0x5ec2>
    61ca:	48 8b 85 48 ff ff ff 	mov    rax,QWORD PTR [rbp-0xb8]
    61d1:	48 8d 35 68 fe 21 00 	lea    rsi,[rip+0x21fe68]        # 226040 <_rtld_global@@GLIBC_PRIVATE>
    61d8:	4c 8b bd 40 ff ff ff 	mov    r15,QWORD PTR [rbp-0xc0]
    61df:	48 89 85 08 ff ff ff 	mov    QWORD PTR [rbp-0xf8],rax
    61e6:	48 8b 45 28          	mov    rax,QWORD PTR [rbp+0x28]
    61ea:	48 8d 04 c0          	lea    rax,[rax+rax*8]
    61ee:	48 c1 e0 04          	shl    rax,0x4
    61f2:	4c 8b 24 06          	mov    r12,QWORD PTR [rsi+rax*1]
    61f6:	48 8b 85 08 ff ff ff 	mov    rax,QWORD PTR [rbp-0xf8]
    61fd:	4d 85 e4             	test   r12,r12
    6200:	75 1c                	jne    621e <free@plt+0x576e>
    6202:	e9 d1 00 00 00       	jmp    62d8 <free@plt+0x5828>
    6207:	66 0f 1f 84 00 00 00 	nop    WORD PTR [rax+rax*1+0x0]
    620e:	00 00 
    6210:	4d 8b 64 24 18       	mov    r12,QWORD PTR [r12+0x18]
    6215:	4d 85 e4             	test   r12,r12
    6218:	0f 84 ba 00 00 00    	je     62d8 <free@plt+0x5828>
    621e:	41 f6 84 24 15 03 00 	test   BYTE PTR [r12+0x315],0x20
    6225:	00 20 
    6227:	75 e7                	jne    6210 <free@plt+0x5760>
    6229:	4d 39 bc 24 98 03 00 	cmp    QWORD PTR [r12+0x398],r15
    6230:	00 
    6231:	75 dd                	jne    6210 <free@plt+0x5760>
    6233:	49 3b 84 24 a0 03 00 	cmp    rax,QWORD PTR [r12+0x3a0]
    623a:	00 
    623b:	75 d3                	jne    6210 <free@plt+0x5760>
    623d:	8b bd 24 ff ff ff    	mov    edi,DWORD PTR [rbp-0xdc]
    6243:	e8 08 50 01 00       	call   1b250 <realloc@@GLIBC_2.2.5+0x1320>
    6248:	48 8b bd 30 ff ff ff 	mov    rdi,QWORD PTR [rbp-0xd0]
    624f:	e8 5c a8 ff ff       	call   ab0 <free@plt>
    6254:	49 8b 5c 24 38       	mov    rbx,QWORD PTR [r12+0x38]
    6259:	4c 8b ad 38 ff ff ff 	mov    r13,QWORD PTR [rbp-0xc8]
    6260:	48 85 db             	test   rbx,rbx
    6263:	75 4b                	jne    62b0 <free@plt+0x5800>
    6265:	48 8b bd 38 ff ff ff 	mov    rdi,QWORD PTR [rbp-0xc8]
    626c:	e8 4f 6b 01 00       	call   1cdc0 <realloc@@GLIBC_2.2.5+0x2e90>
    6271:	48 8d 78 19          	lea    rdi,[rax+0x19]
    6275:	e8 06 a8 ff ff       	call   a80 <malloc@plt>
    627a:	48 85 c0             	test   rax,rax
    627d:	0f 85 06 14 00 00    	jne    7689 <free@plt+0x6bd9>
    6283:	48 8b b5 38 ff ff ff 	mov    rsi,QWORD PTR [rbp-0xc8]
    628a:	48 8d 0d b7 96 01 00 	lea    rcx,[rip+0x196b7]        # 1f948 <realloc@@GLIBC_2.2.5+0x5a18>
    6291:	31 d2                	xor    edx,edx
    6293:	bf 0c 00 00 00       	mov    edi,0xc
    6298:	e8 53 9e 00 00       	call   100f0 <_dl_rtld_di_serinfo@@GLIBC_PRIVATE+0x6c70>
    629d:	0f 1f 00             	nop    DWORD PTR [rax]
    62a0:	48 8b 43 08          	mov    rax,QWORD PTR [rbx+0x8]
    62a4:	48 85 c0             	test   rax,rax
    62a7:	0f 84 63 06 00 00    	je     6910 <free@plt+0x5e60>
    62ad:	48 89 c3             	mov    rbx,rax
    62b0:	48 8b 33             	mov    rsi,QWORD PTR [rbx]
    62b3:	4c 89 ef             	mov    rdi,r13
    62b6:	e8 75 56 01 00       	call   1b930 <realloc@@GLIBC_2.2.5+0x1a00>
    62bb:	85 c0                	test   eax,eax
    62bd:	75 e1                	jne    62a0 <free@plt+0x57f0>
    62bf:	4c 89 e0             	mov    rax,r12
    62c2:	48 8d 65 d8          	lea    rsp,[rbp-0x28]
    62c6:	5b                   	pop    rbx
    62c7:	41 5c                	pop    r12
    62c9:	41 5d                	pop    r13
    62cb:	41 5e                	pop    r14
    62cd:	41 5f                	pop    r15
    62cf:	5d                   	pop    rbp
    62d0:	c3                   	ret
    62d1:	0f 1f 80 00 00 00 00 	nop    DWORD PTR [rax+0x0]
    62d8:	48 83 7d 28 00       	cmp    QWORD PTR [rbp+0x28],0x0
    62dd:	0f 85 c5 0b 00 00    	jne    6ea8 <free@plt+0x63f8>
    62e3:	f6 45 18 04          	test   BYTE PTR [rbp+0x18],0x4
    62e7:	0f 85 a9 0d 00 00    	jne    7096 <free@plt+0x65e6>
    62ed:	f6 05 ac f9 21 00 40 	test   BYTE PTR [rip+0x21f9ac],0x40        # 225ca0 <_rtld_global_ro@@GLIBC_PRIVATE>
    62f4:	0f 85 33 05 00 00    	jne    682d <free@plt+0x5d7d>
    62fa:	48 8b 85 28 ff ff ff 	mov    rax,QWORD PTR [rbp-0xd8]
    6301:	8b 40 18             	mov    eax,DWORD PTR [rax+0x18]
    6304:	85 c0                	test   eax,eax
    6306:	0f 84 94 01 00 00    	je     64a0 <free@plt+0x59f0>
    630c:	83 f8 01             	cmp    eax,0x1
    630f:	0f 85 eb 13 00 00    	jne    7700 <free@plt+0x6c50>
    6315:	c6 85 23 ff ff ff 00 	mov    BYTE PTR [rbp-0xdd],0x0
    631c:	4c 8b 4d 28          	mov    r9,QWORD PTR [rbp+0x28]
    6320:	44 8b 45 18          	mov    r8d,DWORD PTR [rbp+0x18]
    6324:	48 89 d9             	mov    rcx,rbx
    6327:	8b 55 10             	mov    edx,DWORD PTR [rbp+0x10]
    632a:	48 8b b5 38 ff ff ff 	mov    rsi,QWORD PTR [rbp-0xc8]
    6331:	48 8b bd 30 ff ff ff 	mov    rdi,QWORD PTR [rbp-0xd0]
    6338:	e8 83 56 00 00       	call   b9c0 <_dl_rtld_di_serinfo@@GLIBC_PRIVATE+0x2540>
    633d:	48 85 c0             	test   rax,rax
    6340:	49 89 c4             	mov    r12,rax
    6343:	0f 84 df 0b 00 00    	je     6f28 <free@plt+0x6478>
    6349:	48 8b bd 00 ff ff ff 	mov    rdi,QWORD PTR [rbp-0x100]
    6350:	48 8b 47 20          	mov    rax,QWORD PTR [rdi+0x20]
    6354:	0f b7 77 18          	movzx  esi,WORD PTR [rdi+0x18]
    6358:	49 89 84 24 a8 02 00 	mov    QWORD PTR [r12+0x2a8],rax
    635f:	00 
    6360:	0f b7 47 40          	movzx  eax,WORD PTR [rdi+0x40]
    6364:	66 89 b5 d0 fe ff ff 	mov    WORD PTR [rbp-0x130],si
    636b:	48 8b 77 28          	mov    rsi,QWORD PTR [rdi+0x28]
    636f:	48 8d 14 c5 00 00 00 	lea    rdx,[rax*8+0x0]
    6376:	00 
    6377:	48 89 c3             	mov    rbx,rax
    637a:	66 41 89 84 24 b0 02 	mov    WORD PTR [r12+0x2b0],ax
    6381:	00 00 
    6383:	48 c1 e3 06          	shl    rbx,0x6
    6387:	48 29 d3             	sub    rbx,rdx
    638a:	48 8d 14 33          	lea    rdx,[rbx+rsi*1]
    638e:	48 3b 17             	cmp    rdx,QWORD PTR [rdi]
    6391:	0f 87 09 05 00 00    	ja     68a0 <free@plt+0x5df0>
    6397:	4c 8d 6c 37 08       	lea    r13,[rdi+rsi*1+0x8]
    639c:	48 8d 14 40          	lea    rdx,[rax+rax*2]
    63a0:	48 89 a5 e8 fe ff ff 	mov    QWORD PTR [rbp-0x118],rsp
    63a7:	4c 01 eb             	add    rbx,r13
    63aa:	48 c1 e2 04          	shl    rdx,0x4
    63ae:	48 83 c2 16          	add    rdx,0x16
    63b2:	81 e2 f0 ff ff 00    	and    edx,0xfffff0
    63b8:	48 29 d4             	sub    rsp,rdx
    63bb:	48 8d 54 24 07       	lea    rdx,[rsp+0x7]
    63c0:	48 c1 ea 03          	shr    rdx,0x3
    63c4:	49 39 dd             	cmp    r13,rbx
    63c7:	48 8d 3c d5 00 00 00 	lea    rdi,[rdx*8+0x0]
    63ce:	00 
    63cf:	48 89 95 e0 fe ff ff 	mov    QWORD PTR [rbp-0x120],rdx
    63d6:	48 89 bd f0 fe ff ff 	mov    QWORD PTR [rbp-0x110],rdi
    63dd:	0f 83 6f 0c 00 00    	jae    7052 <free@plt+0x65a2>
    63e3:	8b 75 18             	mov    esi,DWORD PTR [rbp+0x18]
    63e6:	4c 89 bd d8 fe ff ff 	mov    QWORD PTR [rbp-0x128],r15
    63ed:	4c 89 eb             	mov    rbx,r13
    63f0:	c6 85 18 ff ff ff 00 	mov    BYTE PTR [rbp-0xe8],0x0
    63f7:	45 31 f6             	xor    r14d,r14d
    63fa:	48 c7 85 10 ff ff ff 	mov    QWORD PTR [rbp-0xf0],0x7
    6401:	07 00 00 00 
    6405:	49 89 ff             	mov    r15,rdi
    6408:	81 e6 00 00 00 08    	and    esi,0x8000000
    640e:	89 b5 cc fe ff ff    	mov    DWORD PTR [rbp-0x134],esi
    6414:	eb 54                	jmp    646a <free@plt+0x59ba>
    6416:	66 2e 0f 1f 84 00 00 	cs nop WORD PTR [rax+rax*1+0x0]
    641d:	00 00 00 
    6420:	81 fa 51 e5 74 64    	cmp    edx,0x6474e551
    6426:	0f 84 34 02 00 00    	je     6660 <free@plt+0x5bb0>
    642c:	81 fa 52 e5 74 64    	cmp    edx,0x6474e552
    6432:	0f 84 00 02 00 00    	je     6638 <free@plt+0x5b88>
    6438:	83 fa 07             	cmp    edx,0x7
    643b:	0f 84 77 01 00 00    	je     65b8 <free@plt+0x5b08>
    6441:	0f 1f 80 00 00 00 00 	nop    DWORD PTR [rax+0x0]
    6448:	48 8d 0c c5 00 00 00 	lea    rcx,[rax*8+0x0]
    644f:	00 
    6450:	48 89 c2             	mov    rdx,rax
    6453:	48 83 c3 38          	add    rbx,0x38
    6457:	48 c1 e2 06          	shl    rdx,0x6
    645b:	48 29 ca             	sub    rdx,rcx
    645e:	4c 01 ea             	add    rdx,r13
    6461:	48 39 d3             	cmp    rbx,rdx
    6464:	0f 83 06 02 00 00    	jae    6670 <free@plt+0x5bc0>
    646a:	8b 13                	mov    edx,DWORD PTR [rbx]
    646c:	83 fa 06             	cmp    edx,0x6
    646f:	0f 84 2b 01 00 00    	je     65a0 <free@plt+0x5af0>
    6475:	77 a9                	ja     6420 <free@plt+0x5970>
    6477:	83 fa 01             	cmp    edx,0x1
    647a:	74 64                	je     64e0 <free@plt+0x5a30>
    647c:	83 fa 02             	cmp    edx,0x2
    647f:	75 c7                	jne    6448 <free@plt+0x5998>
    6481:	48 8b 53 10          	mov    rdx,QWORD PTR [rbx+0x10]
    6485:	49 89 54 24 10       	mov    QWORD PTR [r12+0x10],rdx
    648a:	48 8b 53 28          	mov    rdx,QWORD PTR [rbx+0x28]
    648e:	48 c1 ea 04          	shr    rdx,0x4
    6492:	66 41 89 94 24 b2 02 	mov    WORD PTR [r12+0x2b2],dx
    6499:	00 00 
    649b:	eb ab                	jmp    6448 <free@plt+0x5998>
    649d:	0f 1f 00             	nop    DWORD PTR [rax]
    64a0:	f7 45 18 00 00 00 08 	test   DWORD PTR [rbp+0x18],0x8000000
    64a7:	75 0e                	jne    64b7 <free@plt+0x5a07>
    64a9:	8b 05 59 f9 21 00    	mov    eax,DWORD PTR [rip+0x21f959]        # 225e08 <_rtld_global_ro@@GLIBC_PRIVATE+0x168>
    64af:	85 c0                	test   eax,eax
    64b1:	0f 85 36 0b 00 00    	jne    6fed <free@plt+0x653d>
    64b7:	48 8b 85 28 ff ff ff 	mov    rax,QWORD PTR [rbp-0xd8]
    64be:	c7 40 18 01 00 00 00 	mov    DWORD PTR [rax+0x18],0x1
    64c5:	e8 c6 a9 00 00       	call   10e90 <_dl_debug_state@@GLIBC_PRIVATE>
    64ca:	90                   	nop
    64cb:	c6 85 23 ff ff ff 01 	mov    BYTE PTR [rbp-0xdd],0x1
    64d2:	e9 45 fe ff ff       	jmp    631c <free@plt+0x586c>
    64d7:	66 0f 1f 84 00 00 00 	nop    WORD PTR [rax+rax*1+0x0]
    64de:	00 00 
    64e0:	48 8b 15 d1 f7 21 00 	mov    rdx,QWORD PTR [rip+0x21f7d1]        # 225cb8 <_rtld_global_ro@@GLIBC_PRIVATE+0x18>
    64e7:	48 8b 7b 30          	mov    rdi,QWORD PTR [rbx+0x30]
    64eb:	48 8d 4a ff          	lea    rcx,[rdx-0x1]
    64ef:	48 85 cf             	test   rdi,rcx
    64f2:	0f 85 58 03 00 00    	jne    6850 <free@plt+0x5da0>
    64f8:	48 8b 73 10          	mov    rsi,QWORD PTR [rbx+0x10]
    64fc:	4c 8b 4b 08          	mov    r9,QWORD PTR [rbx+0x8]
    6500:	48 83 ef 01          	sub    rdi,0x1
    6504:	49 89 f0             	mov    r8,rsi
    6507:	4d 29 c8             	sub    r8,r9
    650a:	49 85 f8             	test   r8,rdi
    650d:	0f 85 ed 03 00 00    	jne    6900 <free@plt+0x5e50>
    6513:	4f 8d 04 76          	lea    r8,[r14+r14*2]
    6517:	48 f7 da             	neg    rdx
    651a:	49 89 f3             	mov    r11,rsi
    651d:	49 21 d3             	and    r11,rdx
    6520:	4d 8d 56 01          	lea    r10,[r14+0x1]
    6524:	49 c1 e0 04          	shl    r8,0x4
    6528:	4b 8d 3c 07          	lea    rdi,[r15+r8*1]
    652c:	4c 89 1f             	mov    QWORD PTR [rdi],r11
    652f:	49 89 f3             	mov    r11,rsi
    6532:	4c 03 5b 20          	add    r11,QWORD PTR [rbx+0x20]
    6536:	48 03 73 28          	add    rsi,QWORD PTR [rbx+0x28]
    653a:	4c 01 d9             	add    rcx,r11
    653d:	4c 89 5f 10          	mov    QWORD PTR [rdi+0x10],r11
    6541:	48 21 d1             	and    rcx,rdx
    6544:	4c 21 ca             	and    rdx,r9
    6547:	49 83 fa 01          	cmp    r10,0x1
    654b:	48 89 4f 08          	mov    QWORD PTR [rdi+0x8],rcx
    654f:	48 89 77 18          	mov    QWORD PTR [rdi+0x18],rsi
    6553:	48 89 57 20          	mov    QWORD PTR [rdi+0x20],rdx
    6557:	76 1e                	jbe    6577 <free@plt+0x5ac7>
    6559:	48 8b 37             	mov    rsi,QWORD PTR [rdi]
    655c:	4b 39 74 07 d8       	cmp    QWORD PTR [r15+r8*1-0x28],rsi
    6561:	ba 01 00 00 00       	mov    edx,0x1
    6566:	0f b6 b5 18 ff ff ff 	movzx  esi,BYTE PTR [rbp-0xe8]
    656d:	0f 45 f2             	cmovne esi,edx
    6570:	40 88 b5 18 ff ff ff 	mov    BYTE PTR [rbp-0xe8],sil
    6577:	8b 4b 04             	mov    ecx,DWORD PTR [rbx+0x4]
    657a:	4b 8d 34 76          	lea    rsi,[r14+r14*2]
    657e:	ba 40 62 51 73       	mov    edx,0x73516240
    6583:	4d 89 d6             	mov    r14,r10
    6586:	48 c1 e6 04          	shl    rsi,0x4
    658a:	83 e1 07             	and    ecx,0x7
    658d:	c1 e1 02             	shl    ecx,0x2
    6590:	d3 fa                	sar    edx,cl
    6592:	83 e2 0f             	and    edx,0xf
    6595:	41 89 54 37 28       	mov    DWORD PTR [r15+rsi*1+0x28],edx
    659a:	e9 a9 fe ff ff       	jmp    6448 <free@plt+0x5998>
    659f:	90                   	nop
    65a0:	48 8b 53 10          	mov    rdx,QWORD PTR [rbx+0x10]
    65a4:	49 89 94 24 a0 02 00 	mov    QWORD PTR [r12+0x2a0],rdx
    65ab:	00 
    65ac:	e9 97 fe ff ff       	jmp    6448 <free@plt+0x5998>
    65b1:	0f 1f 80 00 00 00 00 	nop    DWORD PTR [rax+0x0]
    65b8:	48 8b 53 28          	mov    rdx,QWORD PTR [rbx+0x28]
    65bc:	48 85 d2             	test   rdx,rdx
    65bf:	0f 84 83 fe ff ff    	je     6448 <free@plt+0x5998>
    65c5:	49 89 94 24 28 04 00 	mov    QWORD PTR [r12+0x428],rdx
    65cc:	00 
    65cd:	48 8b 53 30          	mov    rdx,QWORD PTR [rbx+0x30]
    65d1:	48 85 d2             	test   rdx,rdx
    65d4:	49 89 94 24 30 04 00 	mov    QWORD PTR [r12+0x430],rdx
    65db:	00 
    65dc:	48 8b 4b 10          	mov    rcx,QWORD PTR [rbx+0x10]
    65e0:	74 07                	je     65e9 <free@plt+0x5b39>
    65e2:	48 83 ea 01          	sub    rdx,0x1
    65e6:	48 21 ca             	and    rdx,rcx
    65e9:	49 89 94 24 38 04 00 	mov    QWORD PTR [r12+0x438],rdx
    65f0:	00 
    65f1:	48 8b 53 20          	mov    rdx,QWORD PTR [rbx+0x20]
    65f5:	49 89 8c 24 18 04 00 	mov    QWORD PTR [r12+0x418],rcx
    65fc:	00 
    65fd:	49 89 94 24 20 04 00 	mov    QWORD PTR [r12+0x420],rdx
    6604:	00 
    6605:	41 0f b6 94 24 14 03 	movzx  edx,BYTE PTR [r12+0x314]
    660c:	00 00 
    660e:	83 e2 03             	and    edx,0x3
    6611:	80 fa 01             	cmp    dl,0x1
    6614:	0f 85 f6 07 00 00    	jne    6e10 <free@plt+0x6360>
    661a:	e8 71 c9 00 00       	call   12f90 <_dl_mcount@@GLIBC_2.2.5+0x640>
    661f:	49 89 84 24 48 04 00 	mov    QWORD PTR [r12+0x448],rax
    6626:	00 
    6627:	41 0f b7 84 24 b0 02 	movzx  eax,WORD PTR [r12+0x2b0]
    662e:	00 00 
    6630:	e9 13 fe ff ff       	jmp    6448 <free@plt+0x5998>
    6635:	0f 1f 00             	nop    DWORD PTR [rax]
    6638:	48 8b 43 10          	mov    rax,QWORD PTR [rbx+0x10]
    663c:	49 89 84 24 58 04 00 	mov    QWORD PTR [r12+0x458],rax
    6643:	00 
    6644:	48 8b 43 28          	mov    rax,QWORD PTR [rbx+0x28]
    6648:	49 89 84 24 60 04 00 	mov    QWORD PTR [r12+0x460],rax
    664f:	00 
    6650:	41 0f b7 84 24 b0 02 	movzx  eax,WORD PTR [r12+0x2b0]
    6657:	00 00 
    6659:	e9 ea fd ff ff       	jmp    6448 <free@plt+0x5998>
    665e:	66 90                	xchg   ax,ax
    6660:	8b 73 04             	mov    esi,DWORD PTR [rbx+0x4]
    6663:	48 89 b5 10 ff ff ff 	mov    QWORD PTR [rbp-0xf0],rsi
    666a:	e9 d9 fd ff ff       	jmp    6448 <free@plt+0x5998>
    666f:	90                   	nop
    6670:	4d 85 f6             	test   r14,r14
    6673:	4c 8b bd d8 fe ff ff 	mov    r15,QWORD PTR [rbp-0x128]
    667a:	0f 84 d2 09 00 00    	je     7052 <free@plt+0x65a2>
    6680:	0f b7 85 d0 fe ff ff 	movzx  eax,WORD PTR [rbp-0x130]
    6687:	83 f8 03             	cmp    eax,0x3
    668a:	89 85 cc fe ff ff    	mov    DWORD PTR [rbp-0x134],eax
    6690:	0f 85 ee 0a 00 00    	jne    7184 <free@plt+0x66d4>
    6696:	48 8b bd e0 fe ff ff 	mov    rdi,QWORD PTR [rbp-0x120]
    669d:	48 8b b5 f0 fe ff ff 	mov    rsi,QWORD PTR [rbp-0x110]
    66a4:	4b 8d 44 76 fd       	lea    rax,[r14+r14*2-0x3]
    66a9:	44 8b 85 24 ff ff ff 	mov    r8d,DWORD PTR [rbp-0xdc]
    66b0:	b9 02 08 00 00       	mov    ecx,0x802
    66b5:	48 c1 e0 04          	shl    rax,0x4
    66b9:	4c 8b 14 fd 00 00 00 	mov    r10,QWORD PTR [rdi*8+0x0]
    66c0:	00 
    66c1:	48 8b 44 06 18       	mov    rax,QWORD PTR [rsi+rax*1+0x18]
    66c6:	8b 1c fd 28 00 00 00 	mov    ebx,DWORD PTR [rdi*8+0x28]
    66cd:	4c 29 d0             	sub    rax,r10
    66d0:	4c 89 95 d0 fe ff ff 	mov    QWORD PTR [rbp-0x130],r10
    66d7:	48 89 c6             	mov    rsi,rax
    66da:	48 89 85 d8 fe ff ff 	mov    QWORD PTR [rbp-0x128],rax
    66e1:	48 89 f8             	mov    rax,rdi
    66e4:	4c 89 d7             	mov    rdi,r10
    66e7:	48 23 3d 7a f6 21 00 	and    rdi,QWORD PTR [rip+0x21f67a]        # 225d68 <_rtld_global_ro@@GLIBC_PRIVATE+0xc8>
    66ee:	4c 8b 0c c5 20 00 00 	mov    r9,QWORD PTR [rax*8+0x20]
    66f5:	00 
    66f6:	89 da                	mov    edx,ebx
    66f8:	e8 73 4b 01 00       	call   1b270 <realloc@@GLIBC_2.2.5+0x1340>
    66fd:	48 83 f8 ff          	cmp    rax,0xffffffffffffffff
    6701:	49 89 84 24 40 03 00 	mov    QWORD PTR [r12+0x340],rax
    6708:	00 
    6709:	4c 8b 95 d0 fe ff ff 	mov    r10,QWORD PTR [rbp-0x130]
    6710:	0f 84 0c 01 00 00    	je     6822 <free@plt+0x5d72>
    6716:	48 8b bd d8 fe ff ff 	mov    rdi,QWORD PTR [rbp-0x128]
    671d:	48 8d 14 07          	lea    rdx,[rdi+rax*1]
    6721:	4c 29 d0             	sub    rax,r10
    6724:	80 bd 18 ff ff ff 00 	cmp    BYTE PTR [rbp-0xe8],0x0
    672b:	49 89 04 24          	mov    QWORD PTR [r12],rax
    672f:	49 89 94 24 48 03 00 	mov    QWORD PTR [r12+0x348],rdx
    6736:	00 
    6737:	0f 85 23 09 00 00    	jne    7060 <free@plt+0x65b0>
    673d:	41 80 8c 24 15 03 00 	or     BYTE PTR [r12+0x315],0x40
    6744:	00 40 
    6746:	4c 8b 95 f0 fe ff ff 	mov    r10,QWORD PTR [rbp-0x110]
    674d:	f6 c3 04             	test   bl,0x4
    6750:	74 10                	je     6762 <free@plt+0x5cb2>
    6752:	49 8b 42 08          	mov    rax,QWORD PTR [r10+0x8]
    6756:	49 03 04 24          	add    rax,QWORD PTR [r12]
    675a:	49 89 84 24 50 03 00 	mov    QWORD PTR [r12+0x350],rax
    6761:	00 
    6762:	49 83 bc 24 a0 02 00 	cmp    QWORD PTR [r12+0x2a0],0x0
    6769:	00 00 
    676b:	0f 84 43 09 00 00    	je     70b4 <free@plt+0x6604>
    6771:	49 8b 42 18          	mov    rax,QWORD PTR [r10+0x18]
    6775:	49 8b 4a 10          	mov    rcx,QWORD PTR [r10+0x10]
    6779:	48 39 c8             	cmp    rax,rcx
    677c:	76 38                	jbe    67b6 <free@plt+0x5d06>
    677e:	4d 8b 04 24          	mov    r8,QWORD PTR [r12]
    6782:	48 8b 35 2f f5 21 00 	mov    rsi,QWORD PTR [rip+0x21f52f]        # 225cb8 <_rtld_global_ro@@GLIBC_PRIVATE+0x18>
    6789:	4c 01 c1             	add    rcx,r8
    678c:	49 01 c0             	add    r8,rax
    678f:	48 89 f0             	mov    rax,rsi
    6792:	4c 8d 5c 31 ff       	lea    r11,[rcx+rsi*1-0x1]
    6797:	48 f7 d8             	neg    rax
    679a:	49 21 c3             	and    r11,rax
    679d:	4d 39 d8             	cmp    r8,r11
    67a0:	4d 0f 46 d8          	cmovbe r11,r8
    67a4:	49 39 cb             	cmp    r11,rcx
    67a7:	0f 87 bd 07 00 00    	ja     6f6a <free@plt+0x64ba>
    67ad:	4d 39 c3             	cmp    r11,r8
    67b0:	0f 82 8a 09 00 00    	jb     7140 <free@plt+0x6690>
    67b6:	49 83 c2 30          	add    r10,0x30
    67ba:	4b 8d 04 76          	lea    rax,[r14+r14*2]
    67be:	48 c1 e0 04          	shl    rax,0x4
    67c2:	48 03 85 f0 fe ff ff 	add    rax,QWORD PTR [rbp-0x110]
    67c9:	49 39 c2             	cmp    r10,rax
    67cc:	0f 83 bc 01 00 00    	jae    698e <free@plt+0x5ede>
    67d2:	49 8b 52 08          	mov    rdx,QWORD PTR [r10+0x8]
    67d6:	49 8b 02             	mov    rax,QWORD PTR [r10]
    67d9:	41 8b 5a 28          	mov    ebx,DWORD PTR [r10+0x28]
    67dd:	48 39 c2             	cmp    rdx,rax
    67e0:	0f 86 67 ff ff ff    	jbe    674d <free@plt+0x5c9d>
    67e6:	48 89 d6             	mov    rsi,rdx
    67e9:	4d 8b 4a 20          	mov    r9,QWORD PTR [r10+0x20]
    67ed:	44 8b 85 24 ff ff ff 	mov    r8d,DWORD PTR [rbp-0xdc]
    67f4:	48 29 c6             	sub    rsi,rax
    67f7:	49 03 04 24          	add    rax,QWORD PTR [r12]
    67fb:	b9 12 08 00 00       	mov    ecx,0x812
    6800:	89 da                	mov    edx,ebx
    6802:	4c 89 95 18 ff ff ff 	mov    QWORD PTR [rbp-0xe8],r10
    6809:	48 89 c7             	mov    rdi,rax
    680c:	e8 5f 4a 01 00       	call   1b270 <realloc@@GLIBC_2.2.5+0x1340>
    6811:	48 83 f8 ff          	cmp    rax,0xffffffffffffffff
    6815:	4c 8b 95 18 ff ff ff 	mov    r10,QWORD PTR [rbp-0xe8]
    681c:	0f 85 2b ff ff ff    	jne    674d <free@plt+0x5c9d>
    6822:	4c 8d 0d c7 a9 01 00 	lea    r9,[rip+0x1a9c7]        # 211f0 <realloc@@GLIBC_2.2.5+0x72c0>
    6829:	31 db                	xor    ebx,ebx
    682b:	eb 2c                	jmp    6859 <free@plt+0x5da9>
    682d:	48 8b 55 28          	mov    rdx,QWORD PTR [rbp+0x28]
    6831:	48 8b b5 38 ff ff ff 	mov    rsi,QWORD PTR [rbp-0xc8]
    6838:	48 8d 3d e1 a9 01 00 	lea    rdi,[rip+0x1a9e1]        # 21220 <realloc@@GLIBC_2.2.5+0x72f0>
    683f:	31 c0                	xor    eax,eax
    6841:	e8 6a ad 00 00       	call   115b0 <_dl_debug_state@@GLIBC_PRIVATE+0x720>
    6846:	e9 af fa ff ff       	jmp    62fa <free@plt+0x584a>
    684b:	0f 1f 44 00 00       	nop    DWORD PTR [rax+rax*1+0x0]
    6850:	4c 8d 0d 09 a9 01 00 	lea    r9,[rip+0x1a909]        # 21160 <realloc@@GLIBC_2.2.5+0x7230>
    6857:	31 db                	xor    ebx,ebx
    6859:	48 8b a5 e8 fe ff ff 	mov    rsp,QWORD PTR [rbp-0x118]
    6860:	80 bd 23 ff ff ff 00 	cmp    BYTE PTR [rbp-0xdd],0x0
    6867:	ba 00 00 00 00       	mov    edx,0x0
    686c:	48 8b 8d 30 ff ff ff 	mov    rcx,QWORD PTR [rbp-0xd0]
    6873:	48 0f 45 95 28 ff ff 	cmovne rdx,QWORD PTR [rbp-0xd8]
    687a:	ff 
    687b:	8b b5 24 ff ff ff    	mov    esi,DWORD PTR [rbp-0xdc]
    6881:	4d 89 e0             	mov    r8,r12
    6884:	ff 75 28             	push   QWORD PTR [rbp+0x28]
    6887:	89 df                	mov    edi,ebx
    6889:	52                   	push   rdx
    688a:	48 8b 95 38 ff ff ff 	mov    rdx,QWORD PTR [rbp-0xc8]
    6891:	e8 2a ec ff ff       	call   54c0 <free@plt+0x4a10>
    6896:	66 2e 0f 1f 84 00 00 	cs nop WORD PTR [rax+rax*1+0x0]
    689d:	00 00 00 
    68a0:	48 8d 43 1e          	lea    rax,[rbx+0x1e]
    68a4:	44 8b b5 24 ff ff ff 	mov    r14d,DWORD PTR [rbp-0xdc]
    68ab:	31 d2                	xor    edx,edx
    68ad:	48 83 e0 f0          	and    rax,0xfffffffffffffff0
    68b1:	48 29 c4             	sub    rsp,rax
    68b4:	44 89 f7             	mov    edi,r14d
    68b7:	4c 8d 6c 24 0f       	lea    r13,[rsp+0xf]
    68bc:	e8 9f 4a 01 00       	call   1b360 <realloc@@GLIBC_2.2.5+0x1430>
    68c1:	49 83 e5 f0          	and    r13,0xfffffffffffffff0
    68c5:	48 89 da             	mov    rdx,rbx
    68c8:	44 89 f7             	mov    edi,r14d
    68cb:	4c 89 ee             	mov    rsi,r13
    68ce:	e8 9d 48 01 00       	call   1b170 <realloc@@GLIBC_2.2.5+0x1240>
    68d3:	48 39 c3             	cmp    rbx,rax
    68d6:	0f 85 56 0e 00 00    	jne    7732 <free@plt+0x6c82>
    68dc:	41 0f b7 84 24 b0 02 	movzx  eax,WORD PTR [r12+0x2b0]
    68e3:	00 00 
    68e5:	48 8d 14 c5 00 00 00 	lea    rdx,[rax*8+0x0]
    68ec:	00 
    68ed:	48 89 c3             	mov    rbx,rax
    68f0:	48 c1 e3 06          	shl    rbx,0x6
    68f4:	48 29 d3             	sub    rbx,rdx
    68f7:	e9 a0 fa ff ff       	jmp    639c <free@plt+0x58ec>
    68fc:	0f 1f 40 00          	nop    DWORD PTR [rax+0x0]
    6900:	31 db                	xor    ebx,ebx
    6902:	4c 8d 0d 87 a8 01 00 	lea    r9,[rip+0x1a887]        # 21190 <realloc@@GLIBC_2.2.5+0x7260>
    6909:	e9 4b ff ff ff       	jmp    6859 <free@plt+0x5da9>
    690e:	66 90                	xchg   ax,ax
    6910:	48 8b bd 38 ff ff ff 	mov    rdi,QWORD PTR [rbp-0xc8]
    6917:	e8 a4 64 01 00       	call   1cdc0 <realloc@@GLIBC_2.2.5+0x2e90>
    691c:	48 8d 78 19          	lea    rdi,[rax+0x19]
    6920:	4c 8d 70 01          	lea    r14,[rax+0x1]
    6924:	e8 57 a1 ff ff       	call   a80 <malloc@plt>
    6929:	48 85 c0             	test   rax,rax
    692c:	49 89 c5             	mov    r13,rax
    692f:	0f 84 4e f9 ff ff    	je     6283 <free@plt+0x57d3>
    6935:	48 8b b5 38 ff ff ff 	mov    rsi,QWORD PTR [rbp-0xc8]
    693c:	48 8d 78 18          	lea    rdi,[rax+0x18]
    6940:	4c 89 f2             	mov    rdx,r14
    6943:	e8 08 74 01 00       	call   1dd50 <realloc@@GLIBC_2.2.5+0x3e20>
    6948:	49 c7 45 08 00 00 00 	mov    QWORD PTR [r13+0x8],0x0
    694f:	00 
    6950:	49 89 45 00          	mov    QWORD PTR [r13+0x0],rax
    6954:	4c 89 e0             	mov    rax,r12
    6957:	41 c7 45 10 00 00 00 	mov    DWORD PTR [r13+0x10],0x0
    695e:	00 
    695f:	4c 89 6b 08          	mov    QWORD PTR [rbx+0x8],r13
    6963:	48 8d 65 d8          	lea    rsp,[rbp-0x28]
    6967:	5b                   	pop    rbx
    6968:	41 5c                	pop    r12
    696a:	41 5d                	pop    r13
    696c:	41 5e                	pop    r14
    696e:	41 5f                	pop    r15
    6970:	5d                   	pop    rbp
    6971:	c3                   	ret
    6972:	4c 8d 0d 57 8f 01 00 	lea    r9,[rip+0x18f57]        # 1f8d0 <realloc@@GLIBC_2.2.5+0x59a0>
    6979:	c6 85 23 ff ff ff 00 	mov    BYTE PTR [rbp-0xdd],0x0
    6980:	45 31 e4             	xor    r12d,r12d
    6983:	8b 1d 97 07 22 00    	mov    ebx,DWORD PTR [rip+0x220797]        # 227120 <_rtld_global@@GLIBC_PRIVATE+0x10e0>
    6989:	e9 d2 fe ff ff       	jmp    6860 <free@plt+0x5db0>
    698e:	49 8b 54 24 10       	mov    rdx,QWORD PTR [r12+0x10]
    6993:	48 8b a5 e8 fe ff ff 	mov    rsp,QWORD PTR [rbp-0x118]
    699a:	48 85 d2             	test   rdx,rdx
    699d:	0f 84 6e 08 00 00    	je     7211 <free@plt+0x6761>
    69a3:	4d 8b 04 24          	mov    r8,QWORD PTR [r12]
    69a7:	4c 01 c2             	add    rdx,r8
    69aa:	48 85 d2             	test   rdx,rdx
    69ad:	49 89 54 24 10       	mov    QWORD PTR [r12+0x10],rdx
    69b2:	0f 84 4c 08 00 00    	je     7204 <free@plt+0x6754>
    69b8:	48 8b 02             	mov    rax,QWORD PTR [rdx]
    69bb:	49 8d 74 24 40       	lea    rsi,[r12+0x40]
    69c0:	48 85 c0             	test   rax,rax
    69c3:	0f 84 8c 00 00 00    	je     6a55 <free@plt+0x5fa5>
    69c9:	bf ff ff ff 6f       	mov    edi,0x6fffffff
    69ce:	41 bb ff fd ff 6f    	mov    r11d,0x6ffffdff
    69d4:	41 be ff fe ff 6f    	mov    r14d,0x6ffffeff
    69da:	48 bb a0 f1 ff 7f 03 	movabs rbx,0x37ffff1a0
    69e1:	00 00 00 
    69e4:	41 ba 31 00 00 00    	mov    r10d,0x31
    69ea:	41 b9 21 00 00 70    	mov    r9d,0x70000021
    69f0:	eb 1f                	jmp    6a11 <free@plt+0x5f61>
    69f2:	66 0f 1f 44 00 00    	nop    WORD PTR [rax+rax*1+0x0]
    69f8:	4c 89 c9             	mov    rcx,r9
    69fb:	48 29 c1             	sub    rcx,rax
    69fe:	48 89 c8             	mov    rax,rcx
    6a01:	48 89 14 c6          	mov    QWORD PTR [rsi+rax*8],rdx
    6a05:	48 83 c2 10          	add    rdx,0x10
    6a09:	48 8b 02             	mov    rax,QWORD PTR [rdx]
    6a0c:	48 85 c0             	test   rax,rax
    6a0f:	74 44                	je     6a55 <free@plt+0x5fa5>
    6a11:	48 83 f8 21          	cmp    rax,0x21
    6a15:	76 ea                	jbe    6a01 <free@plt+0x5f51>
    6a17:	48 89 f9             	mov    rcx,rdi
    6a1a:	48 29 c1             	sub    rcx,rax
    6a1d:	48 83 f9 0f          	cmp    rcx,0xf
    6a21:	76 d5                	jbe    69f8 <free@plt+0x5f48>
    6a23:	8d 0c 00             	lea    ecx,[rax+rax*1]
    6a26:	d1 f9                	sar    ecx,1
    6a28:	83 f9 fc             	cmp    ecx,0xfffffffc
    6a2b:	76 0b                	jbe    6a38 <free@plt+0x5f88>
    6a2d:	44 89 d0             	mov    eax,r10d
    6a30:	29 c8                	sub    eax,ecx
    6a32:	48 89 14 c6          	mov    QWORD PTR [rsi+rax*8],rdx
    6a36:	eb cd                	jmp    6a05 <free@plt+0x5f55>
    6a38:	4c 89 d9             	mov    rcx,r11
    6a3b:	48 29 c1             	sub    rcx,rax
    6a3e:	48 83 f9 0b          	cmp    rcx,0xb
    6a42:	0f 87 ec 04 00 00    	ja     6f34 <free@plt+0x6484>
    6a48:	48 f7 d8             	neg    rax
    6a4b:	48 8d 04 c6          	lea    rax,[rsi+rax*8]
    6a4f:	48 89 14 18          	mov    QWORD PTR [rax+rbx*1],rdx
    6a53:	eb b0                	jmp    6a05 <free@plt+0x5f55>
    6a55:	4d 85 c0             	test   r8,r8
    6a58:	74 79                	je     6ad3 <free@plt+0x6023>
    6a5a:	49 8b 44 24 60       	mov    rax,QWORD PTR [r12+0x60]
    6a5f:	48 85 c0             	test   rax,rax
    6a62:	74 04                	je     6a68 <free@plt+0x5fb8>
    6a64:	4c 01 40 08          	add    QWORD PTR [rax+0x8],r8
    6a68:	49 8b 44 24 58       	mov    rax,QWORD PTR [r12+0x58]
    6a6d:	48 85 c0             	test   rax,rax
    6a70:	74 04                	je     6a76 <free@plt+0x5fc6>
    6a72:	4c 01 40 08          	add    QWORD PTR [rax+0x8],r8
    6a76:	49 8b 44 24 68       	mov    rax,QWORD PTR [r12+0x68]
    6a7b:	48 85 c0             	test   rax,rax
    6a7e:	74 04                	je     6a84 <free@plt+0x5fd4>
    6a80:	4c 01 40 08          	add    QWORD PTR [rax+0x8],r8
    6a84:	49 8b 44 24 70       	mov    rax,QWORD PTR [r12+0x70]
    6a89:	48 85 c0             	test   rax,rax
    6a8c:	74 04                	je     6a92 <free@plt+0x5fe2>
    6a8e:	4c 01 40 08          	add    QWORD PTR [rax+0x8],r8
    6a92:	49 8b 44 24 78       	mov    rax,QWORD PTR [r12+0x78]
    6a97:	48 85 c0             	test   rax,rax
    6a9a:	74 04                	je     6aa0 <free@plt+0x5ff0>
    6a9c:	4c 01 40 08          	add    QWORD PTR [rax+0x8],r8
    6aa0:	49 8b 84 24 f8 00 00 	mov    rax,QWORD PTR [r12+0xf8]
    6aa7:	00 
    6aa8:	48 85 c0             	test   rax,rax
    6aab:	74 04                	je     6ab1 <free@plt+0x6001>
    6aad:	4c 01 40 08          	add    QWORD PTR [rax+0x8],r8
    6ab1:	49 8b 84 24 c8 01 00 	mov    rax,QWORD PTR [r12+0x1c8]
    6ab8:	00 
    6ab9:	48 85 c0             	test   rax,rax
    6abc:	74 04                	je     6ac2 <free@plt+0x6012>
    6abe:	4c 01 40 08          	add    QWORD PTR [rax+0x8],r8
    6ac2:	49 8b 84 24 98 02 00 	mov    rax,QWORD PTR [r12+0x298]
    6ac9:	00 
    6aca:	48 85 c0             	test   rax,rax
    6acd:	74 04                	je     6ad3 <free@plt+0x6023>
    6acf:	4c 01 40 08          	add    QWORD PTR [rax+0x8],r8
    6ad3:	49 8b 84 24 e0 00 00 	mov    rax,QWORD PTR [r12+0xe0]
    6ada:	00 
    6adb:	48 85 c0             	test   rax,rax
    6ade:	74 0b                	je     6aeb <free@plt+0x603b>
    6ae0:	48 83 78 08 07       	cmp    QWORD PTR [rax+0x8],0x7
    6ae5:	0f 85 f6 0b 00 00    	jne    76e1 <free@plt+0x6c31>
    6aeb:	49 83 7c 24 78 00    	cmp    QWORD PTR [r12+0x78],0x0
    6af1:	74 13                	je     6b06 <free@plt+0x6056>
    6af3:	49 8b 84 24 88 00 00 	mov    rax,QWORD PTR [r12+0x88]
    6afa:	00 
    6afb:	48 83 78 08 18       	cmp    QWORD PTR [rax+0x8],0x18
    6b00:	0f 85 3e 0b 00 00    	jne    7644 <free@plt+0x6b94>
    6b06:	49 8b 94 24 30 01 00 	mov    rdx,QWORD PTR [r12+0x130]
    6b0d:	00 
    6b0e:	48 85 d2             	test   rdx,rdx
    6b11:	74 2c                	je     6b3f <free@plt+0x608f>
    6b13:	48 8b 42 08          	mov    rax,QWORD PTR [rdx+0x8]
    6b17:	a8 02                	test   al,0x2
    6b19:	41 89 84 24 d8 03 00 	mov    DWORD PTR [r12+0x3d8],eax
    6b20:	00 
    6b21:	74 08                	je     6b2b <free@plt+0x607b>
    6b23:	49 89 94 24 c0 00 00 	mov    QWORD PTR [r12+0xc0],rdx
    6b2a:	00 
    6b2b:	a8 04                	test   al,0x4
    6b2d:	74 08                	je     6b37 <free@plt+0x6087>
    6b2f:	49 89 94 24 f0 00 00 	mov    QWORD PTR [r12+0xf0],rdx
    6b36:	00 
    6b37:	a8 08                	test   al,0x8
    6b39:	0f 85 73 04 00 00    	jne    6fb2 <free@plt+0x6502>
    6b3f:	49 8b 84 24 70 01 00 	mov    rax,QWORD PTR [r12+0x170]
    6b46:	00 
    6b47:	48 85 c0             	test   rax,rax
    6b4a:	0f 84 d8 06 00 00    	je     7228 <free@plt+0x6778>
    6b50:	f6 05 49 f1 21 00 40 	test   BYTE PTR [rip+0x21f149],0x40        # 225ca0 <_rtld_global_ro@@GLIBC_PRIVATE>
    6b57:	48 8b 40 08          	mov    rax,QWORD PTR [rax+0x8]
    6b5b:	89 c1                	mov    ecx,eax
    6b5d:	41 89 84 24 d4 03 00 	mov    DWORD PTR [r12+0x3d4],eax
    6b64:	00 
    6b65:	89 c2                	mov    edx,eax
    6b67:	0f 85 f8 08 00 00    	jne    7465 <free@plt+0x69b5>
    6b6d:	83 e1 01             	and    ecx,0x1
    6b70:	0f 85 49 04 00 00    	jne    6fbf <free@plt+0x650f>
    6b76:	49 83 bc 24 28 01 00 	cmp    QWORD PTR [r12+0x128],0x0
    6b7d:	00 00 
    6b7f:	74 0c                	je     6b8d <free@plt+0x60dd>
    6b81:	49 c7 84 24 b8 00 00 	mov    QWORD PTR [r12+0xb8],0x0
    6b88:	00 00 00 00 00 
    6b8d:	83 e2 40             	and    edx,0x40
    6b90:	74 6e                	je     6c00 <free@plt+0x6150>
    6b92:	8b 45 18             	mov    eax,DWORD PTR [rbp+0x18]
    6b95:	c1 e8 1f             	shr    eax,0x1f
    6b98:	84 c0                	test   al,al
    6b9a:	74 64                	je     6c00 <free@plt+0x6150>
    6b9c:	49 8b bc 24 40 03 00 	mov    rdi,QWORD PTR [r12+0x340]
    6ba3:	00 
    6ba4:	49 8b b4 24 48 03 00 	mov    rsi,QWORD PTR [r12+0x348]
    6bab:	00 
    6bac:	48 29 fe             	sub    rsi,rdi
    6baf:	e8 6c 47 01 00       	call   1b320 <realloc@@GLIBC_2.2.5+0x13f0>
    6bb4:	49 8b 7c 24 38       	mov    rdi,QWORD PTR [r12+0x38]
    6bb9:	8b 47 10             	mov    eax,DWORD PTR [rdi+0x10]
    6bbc:	85 c0                	test   eax,eax
    6bbe:	75 05                	jne    6bc5 <free@plt+0x6115>
    6bc0:	e8 eb 9e ff ff       	call   ab0 <free@plt>
    6bc5:	31 db                	xor    ebx,ebx
    6bc7:	41 80 bc 24 14 03 00 	cmp    BYTE PTR [r12+0x314],0x0
    6bce:	00 00 
    6bd0:	4c 8d 0d 21 a5 01 00 	lea    r9,[rip+0x1a521]        # 210f8 <realloc@@GLIBC_2.2.5+0x71c8>
    6bd7:	0f 89 83 fc ff ff    	jns    6860 <free@plt+0x5db0>
    6bdd:	49 8b bc 24 a0 02 00 	mov    rdi,QWORD PTR [r12+0x2a0]
    6be4:	00 
    6be5:	4c 89 8d 18 ff ff ff 	mov    QWORD PTR [rbp-0xe8],r9
    6bec:	e8 bf 9e ff ff       	call   ab0 <free@plt>
    6bf1:	4c 8b 8d 18 ff ff ff 	mov    r9,QWORD PTR [rbp-0xe8]
    6bf8:	e9 63 fc ff ff       	jmp    6860 <free@plt+0x5db0>
    6bfd:	0f 1f 00             	nop    DWORD PTR [rax]
    6c00:	49 8b 84 24 a0 02 00 	mov    rax,QWORD PTR [r12+0x2a0]
    6c07:	00 
    6c08:	48 85 c0             	test   rax,rax
    6c0b:	0f 84 02 08 00 00    	je     7413 <free@plt+0x6963>
    6c11:	49 03 04 24          	add    rax,QWORD PTR [r12]
    6c15:	49 89 84 24 a0 02 00 	mov    QWORD PTR [r12+0x2a0],rax
    6c1c:	00 
    6c1d:	8b 05 3d 03 22 00    	mov    eax,DWORD PTR [rip+0x22033d]        # 226f60 <_rtld_global@@GLIBC_PRIVATE+0xf20>
    6c23:	f7 d0                	not    eax
    6c25:	48 23 85 10 ff ff ff 	and    rax,QWORD PTR [rbp-0xf0]
    6c2c:	a8 01                	test   al,0x1
    6c2e:	0f 85 0d 06 00 00    	jne    7241 <free@plt+0x6791>
    6c34:	49 8b 84 24 18 04 00 	mov    rax,QWORD PTR [r12+0x418]
    6c3b:	00 
    6c3c:	48 85 c0             	test   rax,rax
    6c3f:	74 0c                	je     6c4d <free@plt+0x619d>
    6c41:	49 03 04 24          	add    rax,QWORD PTR [r12]
    6c45:	49 89 84 24 18 04 00 	mov    QWORD PTR [r12+0x418],rax
    6c4c:	00 
    6c4d:	8b bd 24 ff ff ff    	mov    edi,DWORD PTR [rbp-0xdc]
    6c53:	e8 f8 45 01 00       	call   1b250 <realloc@@GLIBC_2.2.5+0x1320>
    6c58:	85 c0                	test   eax,eax
    6c5a:	0f 85 d5 05 00 00    	jne    7235 <free@plt+0x6785>
    6c60:	83 bd cc fe ff ff 02 	cmp    DWORD PTR [rbp-0x134],0x2
    6c67:	0f 84 9f 04 00 00    	je     710c <free@plt+0x665c>
    6c6d:	4d 8b 04 24          	mov    r8,QWORD PTR [r12]
    6c71:	4c 89 c0             	mov    rax,r8
    6c74:	49 03 84 24 a8 02 00 	add    rax,QWORD PTR [r12+0x2a8]
    6c7b:	00 
    6c7c:	f6 05 1d f0 21 00 40 	test   BYTE PTR [rip+0x21f01d],0x40        # 225ca0 <_rtld_global_ro@@GLIBC_PRIVATE>
    6c83:	49 89 84 24 a8 02 00 	mov    QWORD PTR [r12+0x2a8],rax
    6c8a:	00 
    6c8b:	0f 85 07 06 00 00    	jne    7298 <free@plt+0x67e8>
    6c91:	4c 89 e7             	mov    rdi,r12
    6c94:	e8 e7 4b 00 00       	call   b880 <_dl_rtld_di_serinfo@@GLIBC_PRIVATE+0x2400>
    6c99:	f6 45 18 08          	test   BYTE PTR [rbp+0x18],0x8
    6c9d:	75 6b                	jne    6d0a <free@plt+0x625a>
    6c9f:	49 83 bc 24 c0 00 00 	cmp    QWORD PTR [r12+0xc0],0x0
    6ca6:	00 00 
    6ca8:	74 60                	je     6d0a <free@plt+0x625a>
    6caa:	49 8b 94 24 80 03 00 	mov    rdx,QWORD PTR [r12+0x380]
    6cb1:	00 
    6cb2:	49 8d 84 24 b8 02 00 	lea    rax,[r12+0x2b8]
    6cb9:	00 
    6cba:	48 39 02             	cmp    QWORD PTR [rdx],rax
    6cbd:	74 4b                	je     6d0a <free@plt+0x625a>
    6cbf:	49 8b 84 24 c8 02 00 	mov    rax,QWORD PTR [r12+0x2c8]
    6cc6:	00 
    6cc7:	4c 89 20             	mov    QWORD PTR [rax],r12
    6cca:	49 8b 84 24 78 03 00 	mov    rax,QWORD PTR [r12+0x378]
    6cd1:	00 
    6cd2:	49 8b b4 24 80 03 00 	mov    rsi,QWORD PTR [r12+0x380]
    6cd9:	00 
    6cda:	41 c7 84 24 d0 02 00 	mov    DWORD PTR [r12+0x2d0],0x1
    6ce1:	00 01 00 00 00 
    6ce6:	48 8d 14 c5 f8 ff ff 	lea    rdx,[rax*8-0x8]
    6ced:	ff 
    6cee:	48 8d 7e 08          	lea    rdi,[rsi+0x8]
    6cf2:	e8 d9 6b 01 00       	call   1d8d0 <realloc@@GLIBC_2.2.5+0x39a0>
    6cf7:	49 8b 84 24 80 03 00 	mov    rax,QWORD PTR [r12+0x380]
    6cfe:	00 
    6cff:	49 8d 94 24 c8 02 00 	lea    rdx,[r12+0x2c8]
    6d06:	00 
    6d07:	48 89 10             	mov    QWORD PTR [rax],rdx
    6d0a:	41 f6 84 24 d4 03 00 	test   BYTE PTR [r12+0x3d4],0x20
    6d11:	00 20 
    6d13:	0f 85 45 02 00 00    	jne    6f5e <free@plt+0x64ae>
    6d19:	48 83 bd f8 fe ff ff 	cmp    QWORD PTR [rbp-0x108],0x0
    6d20:	00 
    6d21:	48 8b 85 08 ff ff ff 	mov    rax,QWORD PTR [rbp-0xf8]
    6d28:	4d 89 bc 24 98 03 00 	mov    QWORD PTR [r12+0x398],r15
    6d2f:	00 
    6d30:	49 89 84 24 a0 03 00 	mov    QWORD PTR [r12+0x3a0],rax
    6d37:	00 
    6d38:	0f 85 a9 05 00 00    	jne    72e7 <free@plt+0x6837>
    6d3e:	48 83 3d 2a f0 21 00 	cmp    QWORD PTR [rip+0x21f02a],0x0        # 225d70 <_rtld_global_ro@@GLIBC_PRIVATE+0xd0>
    6d45:	00 
    6d46:	0f 85 28 06 00 00    	jne    7374 <free@plt+0x68c4>
    6d4c:	48 8b 75 28          	mov    rsi,QWORD PTR [rbp+0x28]
    6d50:	4c 89 e7             	mov    rdi,r12
    6d53:	e8 d8 4b 00 00       	call   b930 <_dl_rtld_di_serinfo@@GLIBC_PRIVATE+0x24b0>
    6d58:	8b 15 aa f0 21 00    	mov    edx,DWORD PTR [rip+0x21f0aa]        # 225e08 <_rtld_global_ro@@GLIBC_PRIVATE+0x168>
    6d5e:	4c 89 e0             	mov    rax,r12
    6d61:	85 d2                	test   edx,edx
    6d63:	0f 84 59 f5 ff ff    	je     62c2 <free@plt+0x5812>
    6d69:	49 8b 44 24 30       	mov    rax,QWORD PTR [r12+0x30]
    6d6e:	48 8d 3d cb f2 21 00 	lea    rdi,[rip+0x21f2cb]        # 226040 <_rtld_global@@GLIBC_PRIVATE>
    6d75:	48 8d 04 c0          	lea    rax,[rax+rax*8]
    6d79:	48 c1 e0 04          	shl    rax,0x4
    6d7d:	48 8b 0c 07          	mov    rcx,QWORD PTR [rdi+rax*1]
    6d81:	4c 89 e0             	mov    rax,r12
    6d84:	f6 81 15 03 00 00 08 	test   BYTE PTR [rcx+0x315],0x8
    6d8b:	0f 85 31 f5 ff ff    	jne    62c2 <free@plt+0x5812>
    6d91:	4c 8b 2d 68 f0 21 00 	mov    r13,QWORD PTR [rip+0x21f068]        # 225e00 <_rtld_global_ro@@GLIBC_PRIVATE+0x160>
    6d98:	31 db                	xor    ebx,ebx
    6d9a:	49 8b 45 10          	mov    rax,QWORD PTR [r13+0x10]
    6d9e:	48 85 c0             	test   rax,rax
    6da1:	74 53                	je     6df6 <free@plt+0x6346>
    6da3:	41 89 de             	mov    r14d,ebx
    6da6:	48 8b 75 28          	mov    rsi,QWORD PTR [rbp+0x28]
    6daa:	4c 89 e7             	mov    rdi,r12
    6dad:	49 83 c6 47          	add    r14,0x47
    6db1:	49 c1 e6 04          	shl    r14,0x4
    6db5:	4d 01 e6             	add    r14,r12
    6db8:	4c 89 f2             	mov    rdx,r14
    6dbb:	ff d0                	call   rax
    6dbd:	41 89 46 08          	mov    DWORD PTR [r14+0x8],eax
    6dc1:	41 0f b6 8c 24 15 03 	movzx  ecx,BYTE PTR [r12+0x315]
    6dc8:	00 00 
    6dca:	89 ce                	mov    esi,ecx
    6dcc:	40 c0 ee 04          	shr    sil,0x4
    6dd0:	83 e6 01             	and    esi,0x1
    6dd3:	85 c0                	test   eax,eax
    6dd5:	0f 95 c2             	setne  dl
    6dd8:	89 f0                	mov    eax,esi
    6dda:	09 d0                	or     eax,edx
    6ddc:	c1 e0 04             	shl    eax,0x4
    6ddf:	89 c2                	mov    edx,eax
    6de1:	89 c8                	mov    eax,ecx
    6de3:	83 e0 ef             	and    eax,0xffffffef
    6de6:	09 d0                	or     eax,edx
    6de8:	41 88 84 24 15 03 00 	mov    BYTE PTR [r12+0x315],al
    6def:	00 
    6df0:	8b 15 12 f0 21 00    	mov    edx,DWORD PTR [rip+0x21f012]        # 225e08 <_rtld_global_ro@@GLIBC_PRIVATE+0x168>
    6df6:	83 c3 01             	add    ebx,0x1
    6df9:	4d 8b 6d 40          	mov    r13,QWORD PTR [r13+0x40]
    6dfd:	39 d3                	cmp    ebx,edx
    6dff:	72 99                	jb     6d9a <free@plt+0x62ea>
    6e01:	e9 b9 f4 ff ff       	jmp    62bf <free@plt+0x580f>
    6e06:	66 2e 0f 1f 84 00 00 	cs nop WORD PTR [rax+rax*1+0x0]
    6e0d:	00 00 00 
    6e10:	48 83 3d 58 01 22 00 	cmp    QWORD PTR [rip+0x220158],0x0        # 226f70 <_rtld_global@@GLIBC_PRIVATE+0xf30>
    6e17:	00 
    6e18:	0f 85 fc f7 ff ff    	jne    661a <free@plt+0x5b6a>
    6e1e:	49 83 7c 24 20 00    	cmp    QWORD PTR [r12+0x20],0x0
    6e24:	0f 84 1e f6 ff ff    	je     6448 <free@plt+0x5998>
    6e2a:	8b 95 cc fe ff ff    	mov    edx,DWORD PTR [rbp-0x134]
    6e30:	85 d2                	test   edx,edx
    6e32:	0f 85 10 f6 ff ff    	jne    6448 <free@plt+0x5998>
    6e38:	48 8d 05 d1 9e ff ff 	lea    rax,[rip+0xffffffffffff9ed1]        # d10 <free@plt+0x260>
    6e3f:	48 39 05 8a fb 21 00 	cmp    QWORD PTR [rip+0x21fb8a],rax        # 2269d0 <_rtld_global@@GLIBC_PRIVATE+0x990>
    6e46:	0f 85 87 08 00 00    	jne    76d3 <free@plt+0x6c23>
    6e4c:	e8 6f c4 00 00       	call   132c0 <_dl_tls_setup@@GLIBC_PRIVATE>
    6e51:	85 c0                	test   eax,eax
    6e53:	0f 85 69 08 00 00    	jne    76c2 <free@plt+0x6c12>
    6e59:	31 ff                	xor    edi,edi
    6e5b:	e8 50 c8 00 00       	call   136b0 <_dl_allocate_tls@@GLIBC_PRIVATE>
    6e60:	48 85 c0             	test   rax,rax
    6e63:	48 89 c6             	mov    rsi,rax
    6e66:	0f 84 56 08 00 00    	je     76c2 <free@plt+0x6c12>
    6e6c:	48 89 06             	mov    QWORD PTR [rsi],rax
    6e6f:	48 89 46 10          	mov    QWORD PTR [rsi+0x10],rax
    6e73:	bf 02 10 00 00       	mov    edi,0x1002
    6e78:	b8 9e 00 00 00       	mov    eax,0x9e
    6e7d:	0f 05                	syscall
    6e7f:	85 c0                	test   eax,eax
    6e81:	0f 84 33 07 00 00    	je     75ba <free@plt+0x6b0a>
    6e87:	48 89 f2             	mov    rdx,rsi
    6e8a:	be 01 00 00 00       	mov    esi,0x1
    6e8f:	31 db                	xor    ebx,ebx
    6e91:	48 89 d7             	mov    rdi,rdx
    6e94:	e8 f7 c8 00 00       	call   13790 <_dl_deallocate_tls@@GLIBC_PRIVATE>
    6e99:	4c 8d 0d 08 96 01 00 	lea    r9,[rip+0x19608]        # 204a8 <realloc@@GLIBC_2.2.5+0x6578>
    6ea0:	e9 b4 f9 ff ff       	jmp    6859 <free@plt+0x5da9>
    6ea5:	0f 1f 00             	nop    DWORD PTR [rax]
    6ea8:	4c 3b 3d c1 fe 21 00 	cmp    r15,QWORD PTR [rip+0x21fec1]        # 226d70 <_rtld_global@@GLIBC_PRIVATE+0xd30>
    6eaf:	0f 84 1f 01 00 00    	je     6fd4 <free@plt+0x6524>
    6eb5:	48 8b bd 38 ff ff ff 	mov    rdi,QWORD PTR [rbp-0xc8]
    6ebc:	48 8d 35 15 fb 21 00 	lea    rsi,[rip+0x21fb15]        # 2269d8 <_rtld_global@@GLIBC_PRIVATE+0x998>
    6ec3:	e8 e8 a8 00 00       	call   117b0 <_dl_debug_state@@GLIBC_PRIVATE+0x920>
    6ec8:	85 c0                	test   eax,eax
    6eca:	0f 84 13 f4 ff ff    	je     62e3 <free@plt+0x5833>
    6ed0:	4c 8b 4d 28          	mov    r9,QWORD PTR [rbp+0x28]
    6ed4:	44 8b 45 18          	mov    r8d,DWORD PTR [rbp+0x18]
    6ed8:	48 89 d9             	mov    rcx,rbx
    6edb:	8b 55 10             	mov    edx,DWORD PTR [rbp+0x10]
    6ede:	48 8b b5 38 ff ff ff 	mov    rsi,QWORD PTR [rbp-0xc8]
    6ee5:	48 8b bd 30 ff ff ff 	mov    rdi,QWORD PTR [rbp-0xd0]
    6eec:	e8 cf 4a 00 00       	call   b9c0 <_dl_rtld_di_serinfo@@GLIBC_PRIVATE+0x2540>
    6ef1:	48 85 c0             	test   rax,rax
    6ef4:	49 89 c4             	mov    r12,rax
    6ef7:	0f 84 22 08 00 00    	je     771f <free@plt+0x6c6f>
    6efd:	48 8d 05 d4 fa 21 00 	lea    rax,[rip+0x21fad4]        # 2269d8 <_rtld_global@@GLIBC_PRIVATE+0x998>
    6f04:	8b bd 24 ff ff ff    	mov    edi,DWORD PTR [rbp-0xdc]
    6f0a:	49 89 44 24 28       	mov    QWORD PTR [r12+0x28],rax
    6f0f:	e8 3c 43 01 00       	call   1b250 <realloc@@GLIBC_2.2.5+0x1320>
    6f14:	48 8b 75 28          	mov    rsi,QWORD PTR [rbp+0x28]
    6f18:	4c 89 e7             	mov    rdi,r12
    6f1b:	e8 10 4a 00 00       	call   b930 <_dl_rtld_di_serinfo@@GLIBC_PRIVATE+0x24b0>
    6f20:	4c 89 e0             	mov    rax,r12
    6f23:	e9 9a f3 ff ff       	jmp    62c2 <free@plt+0x5812>
    6f28:	4c 8d 0d 21 a1 01 00 	lea    r9,[rip+0x1a121]        # 21050 <realloc@@GLIBC_2.2.5+0x7120>
    6f2f:	e9 4f fa ff ff       	jmp    6983 <free@plt+0x5ed3>
    6f34:	4c 89 f1             	mov    rcx,r14
    6f37:	48 29 c1             	sub    rcx,rax
    6f3a:	48 83 f9 0a          	cmp    rcx,0xa
    6f3e:	0f 87 c1 fa ff ff    	ja     6a05 <free@plt+0x5f55>
    6f44:	48 f7 d8             	neg    rax
    6f47:	48 b9 00 fa ff 7f 03 	movabs rcx,0x37ffffa00
    6f4e:	00 00 00 
    6f51:	48 8d 04 c6          	lea    rax,[rsi+rax*8]
    6f55:	48 89 14 08          	mov    QWORD PTR [rax+rcx*1],rdx
    6f59:	e9 a7 fa ff ff       	jmp    6a05 <free@plt+0x5f55>
    6f5e:	4c 89 25 3b fa 21 00 	mov    QWORD PTR [rip+0x21fa3b],r12        # 2269a0 <_rtld_global@@GLIBC_PRIVATE+0x960>
    6f65:	e9 af fd ff ff       	jmp    6d19 <free@plt+0x6269>
    6f6a:	f6 c3 02             	test   bl,0x2
    6f6d:	0f 84 1d 05 00 00    	je     7490 <free@plt+0x69e0>
    6f73:	4c 89 da             	mov    rdx,r11
    6f76:	31 f6                	xor    esi,esi
    6f78:	48 89 cf             	mov    rdi,rcx
    6f7b:	48 29 ca             	sub    rdx,rcx
    6f7e:	4c 89 85 d0 fe ff ff 	mov    QWORD PTR [rbp-0x130],r8
    6f85:	4c 89 95 e0 fe ff ff 	mov    QWORD PTR [rbp-0x120],r10
    6f8c:	4c 89 9d 18 ff ff ff 	mov    QWORD PTR [rbp-0xe8],r11
    6f93:	e8 98 6a 01 00       	call   1da30 <realloc@@GLIBC_2.2.5+0x3b00>
    6f98:	4c 8b 9d 18 ff ff ff 	mov    r11,QWORD PTR [rbp-0xe8]
    6f9f:	4c 8b 95 e0 fe ff ff 	mov    r10,QWORD PTR [rbp-0x120]
    6fa6:	4c 8b 85 d0 fe ff ff 	mov    r8,QWORD PTR [rbp-0x130]
    6fad:	e9 fb f7 ff ff       	jmp    67ad <free@plt+0x5cfd>
    6fb2:	49 89 94 24 00 01 00 	mov    QWORD PTR [r12+0x100],rdx
    6fb9:	00 
    6fba:	e9 80 fb ff ff       	jmp    6b3f <free@plt+0x608f>
    6fbf:	49 8b 84 24 70 01 00 	mov    rax,QWORD PTR [r12+0x170]
    6fc6:	00 
    6fc7:	49 89 84 24 00 01 00 	mov    QWORD PTR [r12+0x100],rax
    6fce:	00 
    6fcf:	e9 a2 fb ff ff       	jmp    6b76 <free@plt+0x60c6>
    6fd4:	48 8b 85 08 ff ff ff 	mov    rax,QWORD PTR [rbp-0xf8]
    6fdb:	48 3b 05 96 fd 21 00 	cmp    rax,QWORD PTR [rip+0x21fd96]        # 226d78 <_rtld_global@@GLIBC_PRIVATE+0xd38>
    6fe2:	0f 85 cd fe ff ff    	jne    6eb5 <free@plt+0x6405>
    6fe8:	e9 e3 fe ff ff       	jmp    6ed0 <free@plt+0x6420>
    6fed:	48 8b 7d 28          	mov    rdi,QWORD PTR [rbp+0x28]
    6ff1:	48 8d 14 ff          	lea    rdx,[rdi+rdi*8]
    6ff5:	48 8d 3d 44 f0 21 00 	lea    rdi,[rip+0x21f044]        # 226040 <_rtld_global@@GLIBC_PRIVATE>
    6ffc:	48 c1 e2 04          	shl    rdx,0x4
    7000:	4c 8b 24 17          	mov    r12,QWORD PTR [rdi+rdx*1]
    7004:	41 f6 84 24 15 03 00 	test   BYTE PTR [r12+0x315],0x8
    700b:	00 08 
    700d:	0f 85 a4 f4 ff ff    	jne    64b7 <free@plt+0x5a07>
    7013:	4c 8b 35 e6 ed 21 00 	mov    r14,QWORD PTR [rip+0x21ede6]        # 225e00 <_rtld_global_ro@@GLIBC_PRIVATE+0x160>
    701a:	45 31 ed             	xor    r13d,r13d
    701d:	49 8b 16             	mov    rdx,QWORD PTR [r14]
    7020:	48 85 d2             	test   rdx,rdx
    7023:	74 1b                	je     7040 <free@plt+0x6590>
    7025:	44 89 ef             	mov    edi,r13d
    7028:	be 01 00 00 00       	mov    esi,0x1
    702d:	48 83 c7 47          	add    rdi,0x47
    7031:	48 c1 e7 04          	shl    rdi,0x4
    7035:	4c 01 e7             	add    rdi,r12
    7038:	ff d2                	call   rdx
    703a:	8b 05 c8 ed 21 00    	mov    eax,DWORD PTR [rip+0x21edc8]        # 225e08 <_rtld_global_ro@@GLIBC_PRIVATE+0x168>
    7040:	41 83 c5 01          	add    r13d,0x1
    7044:	4d 8b 76 40          	mov    r14,QWORD PTR [r14+0x40]
    7048:	41 39 c5             	cmp    r13d,eax
    704b:	72 d0                	jb     701d <free@plt+0x656d>
    704d:	e9 65 f4 ff ff       	jmp    64b7 <free@plt+0x5a07>
    7052:	31 db                	xor    ebx,ebx
    7054:	4c 8d 0d 6d a1 01 00 	lea    r9,[rip+0x1a16d]        # 211c8 <realloc@@GLIBC_2.2.5+0x7298>
    705b:	e9 f9 f7 ff ff       	jmp    6859 <free@plt+0x5da9>
    7060:	48 8b b5 e0 fe ff ff 	mov    rsi,QWORD PTR [rbp-0x120]
    7067:	4b 8d 0c 76          	lea    rcx,[r14+r14*2]
    706b:	48 c1 e1 04          	shl    rcx,0x4
    706f:	48 8b 14 f5 08 00 00 	mov    rdx,QWORD PTR [rsi*8+0x8]
    7076:	00 
    7077:	48 8b b5 f0 fe ff ff 	mov    rsi,QWORD PTR [rbp-0x110]
    707e:	48 8b 74 0e d0       	mov    rsi,QWORD PTR [rsi+rcx*1-0x30]
    7083:	48 8d 3c 10          	lea    rdi,[rax+rdx*1]
    7087:	48 29 d6             	sub    rsi,rdx
    708a:	31 d2                	xor    edx,edx
    708c:	e8 af 42 01 00       	call   1b340 <realloc@@GLIBC_2.2.5+0x1410>
    7091:	e9 a7 f6 ff ff       	jmp    673d <free@plt+0x5c8d>
    7096:	48 8b bd 30 ff ff ff 	mov    rdi,QWORD PTR [rbp-0xd0]
    709d:	e8 0e 9a ff ff       	call   ab0 <free@plt>
    70a2:	8b bd 24 ff ff ff    	mov    edi,DWORD PTR [rbp-0xdc]
    70a8:	e8 a3 41 01 00       	call   1b250 <realloc@@GLIBC_2.2.5+0x1320>
    70ad:	31 c0                	xor    eax,eax
    70af:	e9 0e f2 ff ff       	jmp    62c2 <free@plt+0x5812>
    70b4:	48 8b 85 00 ff ff ff 	mov    rax,QWORD PTR [rbp-0x100]
    70bb:	49 8b 4a 20          	mov    rcx,QWORD PTR [r10+0x20]
    70bf:	48 8b 70 28          	mov    rsi,QWORD PTR [rax+0x28]
    70c3:	48 39 f1             	cmp    rcx,rsi
    70c6:	0f 87 a5 f6 ff ff    	ja     6771 <free@plt+0x5cc1>
    70cc:	0f b7 40 40          	movzx  eax,WORD PTR [rax+0x40]
    70d0:	48 89 cf             	mov    rdi,rcx
    70d3:	49 03 7a 08          	add    rdi,QWORD PTR [r10+0x8]
    70d7:	49 8b 12             	mov    rdx,QWORD PTR [r10]
    70da:	4c 8d 04 c5 00 00 00 	lea    r8,[rax*8+0x0]
    70e1:	00 
    70e2:	48 c1 e0 06          	shl    rax,0x6
    70e6:	48 29 d7             	sub    rdi,rdx
    70e9:	4c 29 c0             	sub    rax,r8
    70ec:	48 01 f0             	add    rax,rsi
    70ef:	48 39 c7             	cmp    rdi,rax
    70f2:	0f 82 79 f6 ff ff    	jb     6771 <free@plt+0x5cc1>
    70f8:	48 8d 04 16          	lea    rax,[rsi+rdx*1]
    70fc:	48 29 c8             	sub    rax,rcx
    70ff:	49 89 84 24 a0 02 00 	mov    QWORD PTR [r12+0x2a0],rax
    7106:	00 
    7107:	e9 65 f6 ff ff       	jmp    6771 <free@plt+0x5cc1>
    710c:	41 f6 84 24 14 03 00 	test   BYTE PTR [r12+0x314],0x3
    7113:	00 03 
    7115:	0f 84 52 fb ff ff    	je     6c6d <free@plt+0x61bd>
    711b:	48 8d 0d 7e b2 01 00 	lea    rcx,[rip+0x1b27e]        # 223a0 <realloc@@GLIBC_2.2.5+0x8470>
    7122:	48 8d 35 3b 88 01 00 	lea    rsi,[rip+0x1883b]        # 1f964 <realloc@@GLIBC_2.2.5+0x5a34>
    7129:	48 8d 3d 18 a1 01 00 	lea    rdi,[rip+0x1a118]        # 21248 <realloc@@GLIBC_2.2.5+0x7318>
    7130:	ba 44 05 00 00       	mov    edx,0x544
    7135:	e8 a6 2d 01 00       	call   19ee0 <free@@GLIBC_2.2.5+0x160>
    713a:	66 0f 1f 44 00 00    	nop    WORD PTR [rax+rax*1+0x0]
    7140:	4c 89 c6             	mov    rsi,r8
    7143:	45 31 c9             	xor    r9d,r9d
    7146:	41 b8 ff ff ff ff    	mov    r8d,0xffffffff
    714c:	4c 29 de             	sub    rsi,r11
    714f:	b9 32 00 00 00       	mov    ecx,0x32
    7154:	89 da                	mov    edx,ebx
    7156:	4c 89 df             	mov    rdi,r11
    7159:	4c 89 95 18 ff ff ff 	mov    QWORD PTR [rbp-0xe8],r10
    7160:	e8 0b 41 01 00       	call   1b270 <realloc@@GLIBC_2.2.5+0x1340>
    7165:	48 83 f8 ff          	cmp    rax,0xffffffffffffffff
    7169:	4c 8b 95 18 ff ff ff 	mov    r10,QWORD PTR [rbp-0xe8]
    7170:	0f 85 40 f6 ff ff    	jne    67b6 <free@plt+0x5d06>
    7176:	4c 8d 0d b0 87 01 00 	lea    r9,[rip+0x187b0]        # 1f92d <realloc@@GLIBC_2.2.5+0x59fd>
    717d:	31 db                	xor    ebx,ebx
    717f:	e9 d5 f6 ff ff       	jmp    6859 <free@plt+0x5da9>
    7184:	f7 45 18 00 00 00 20 	test   DWORD PTR [rbp+0x18],0x20000000
    718b:	0f 84 51 04 00 00    	je     75e2 <free@plt+0x6b32>
    7191:	48 8b bd f0 fe ff ff 	mov    rdi,QWORD PTR [rbp-0x110]
    7198:	48 8b 85 e0 fe ff ff 	mov    rax,QWORD PTR [rbp-0x120]
    719f:	4b 8d 54 76 fd       	lea    rdx,[r14+r14*2-0x3]
    71a4:	48 c1 e2 04          	shl    rdx,0x4
    71a8:	48 8b 04 c5 00 00 00 	mov    rax,QWORD PTR [rax*8+0x0]
    71af:	00 
    71b0:	48 8b 54 17 18       	mov    rdx,QWORD PTR [rdi+rdx*1+0x18]
    71b5:	49 89 fa             	mov    r10,rdi
    71b8:	48 29 c2             	sub    rdx,rax
    71bb:	49 03 04 24          	add    rax,QWORD PTR [r12]
    71bf:	48 89 95 d8 fe ff ff 	mov    QWORD PTR [rbp-0x128],rdx
    71c6:	49 89 84 24 40 03 00 	mov    QWORD PTR [r12+0x340],rax
    71cd:	00 
    71ce:	48 01 d0             	add    rax,rdx
    71d1:	41 0f b6 94 24 15 03 	movzx  edx,BYTE PTR [r12+0x315]
    71d8:	00 00 
    71da:	49 89 84 24 48 03 00 	mov    QWORD PTR [r12+0x348],rax
    71e1:	00 
    71e2:	0f b6 85 18 ff ff ff 	movzx  eax,BYTE PTR [rbp-0xe8]
    71e9:	83 e2 bf             	and    edx,0xffffffbf
    71ec:	83 f0 01             	xor    eax,0x1
    71ef:	83 e0 01             	and    eax,0x1
    71f2:	c1 e0 06             	shl    eax,0x6
    71f5:	09 d0                	or     eax,edx
    71f7:	41 88 84 24 15 03 00 	mov    BYTE PTR [r12+0x315],al
    71fe:	00 
    71ff:	e9 b6 f5 ff ff       	jmp    67ba <free@plt+0x5d0a>
    7204:	41 8b 94 24 d4 03 00 	mov    edx,DWORD PTR [r12+0x3d4]
    720b:	00 
    720c:	e9 7c f9 ff ff       	jmp    6b8d <free@plt+0x60dd>
    7211:	83 bd cc fe ff ff 03 	cmp    DWORD PTR [rbp-0x134],0x3
    7218:	75 ea                	jne    7204 <free@plt+0x6754>
    721a:	31 db                	xor    ebx,ebx
    721c:	4c 8d 0d ad 9e 01 00 	lea    r9,[rip+0x19ead]        # 210d0 <realloc@@GLIBC_2.2.5+0x71a0>
    7223:	e9 38 f6 ff ff       	jmp    6860 <free@plt+0x5db0>
    7228:	41 8b 94 24 d4 03 00 	mov    edx,DWORD PTR [r12+0x3d4]
    722f:	00 
    7230:	e9 41 f9 ff ff       	jmp    6b76 <free@plt+0x60c6>
    7235:	4c 8d 0d ae 86 01 00 	lea    r9,[rip+0x186ae]        # 1f8ea <realloc@@GLIBC_2.2.5+0x59ba>
    723c:	e9 42 f7 ff ff       	jmp    6983 <free@plt+0x5ed3>
    7241:	be 08 00 00 00       	mov    esi,0x8
    7246:	48 8b 7d 08          	mov    rdi,QWORD PTR [rbp+0x8]
    724a:	ff 15 88 eb 21 00    	call   QWORD PTR [rip+0x21eb88]        # 225dd8 <_rtld_global_ro@@GLIBC_PRIVATE+0x138>
    7250:	85 c0                	test   eax,eax
    7252:	0f 85 98 03 00 00    	jne    75f0 <free@plt+0x6b40>
    7258:	8b 45 18             	mov    eax,DWORD PTR [rbp+0x18]
    725b:	25 00 00 00 88       	and    eax,0x88000000
    7260:	3d 00 00 00 80       	cmp    eax,0x80000000
    7265:	0f 84 d9 02 00 00    	je     7544 <free@plt+0x6a94>
    726b:	83 0d de eb 21 00 07 	or     DWORD PTR [rip+0x21ebde],0x7        # 225e50 <_rtld_global_ro@@GLIBC_PRIVATE+0x1b0>
    7272:	48 8b 7d 20          	mov    rdi,QWORD PTR [rbp+0x20]
    7276:	ff 15 dc fc 21 00    	call   QWORD PTR [rip+0x21fcdc]        # 226f58 <_rtld_global@@GLIBC_PRIVATE+0xf18>
    727c:	85 c0                	test   eax,eax
    727e:	89 c3                	mov    ebx,eax
    7280:	0f 84 ae f9 ff ff    	je     6c34 <free@plt+0x6184>
    7286:	4c 8d 0d 93 9e 01 00 	lea    r9,[rip+0x19e93]        # 21120 <realloc@@GLIBC_2.2.5+0x71f0>
    728d:	e9 ce f5 ff ff       	jmp    6860 <free@plt+0x5db0>
    7292:	66 0f 1f 44 00 00    	nop    WORD PTR [rax+rax*1+0x0]
    7298:	41 0f b7 8c 24 b0 02 	movzx  ecx,WORD PTR [r12+0x2b0]
    729f:	00 00 
    72a1:	48 83 ec 08          	sub    rsp,0x8
    72a5:	49 8b 54 24 10       	mov    rdx,QWORD PTR [r12+0x10]
    72aa:	48 8d 3d c7 9f 01 00 	lea    rdi,[rip+0x19fc7]        # 21278 <realloc@@GLIBC_2.2.5+0x7348>
    72b1:	41 b9 10 00 00 00    	mov    r9d,0x10
    72b7:	be 10 00 00 00       	mov    esi,0x10
    72bc:	51                   	push   rcx
    72bd:	6a 10                	push   0x10
    72bf:	b9 10 00 00 00       	mov    ecx,0x10
    72c4:	41 ff b4 24 a0 02 00 	push   QWORD PTR [r12+0x2a0]
    72cb:	00 
    72cc:	6a 10                	push   0x10
    72ce:	50                   	push   rax
    72cf:	6a 10                	push   0x10
    72d1:	31 c0                	xor    eax,eax
    72d3:	ff b5 d8 fe ff ff    	push   QWORD PTR [rbp-0x128]
    72d9:	e8 d2 a2 00 00       	call   115b0 <_dl_debug_state@@GLIBC_PRIVATE+0x720>
    72de:	48 83 c4 40          	add    rsp,0x40
    72e2:	e9 aa f9 ff ff       	jmp    6c91 <free@plt+0x61e1>
    72e7:	49 8b 5c 24 38       	mov    rbx,QWORD PTR [r12+0x38]
    72ec:	4c 8b ad f8 fe ff ff 	mov    r13,QWORD PTR [rbp-0x108]
    72f3:	48 85 db             	test   rbx,rbx
    72f6:	75 0b                	jne    7303 <free@plt+0x6853>
    72f8:	e9 72 03 00 00       	jmp    766f <free@plt+0x6bbf>
    72fd:	0f 1f 00             	nop    DWORD PTR [rax]
    7300:	48 89 c3             	mov    rbx,rax
    7303:	48 8b 33             	mov    rsi,QWORD PTR [rbx]
    7306:	4c 89 ef             	mov    rdi,r13
    7309:	e8 22 46 01 00       	call   1b930 <realloc@@GLIBC_2.2.5+0x1a00>
    730e:	85 c0                	test   eax,eax
    7310:	0f 84 28 fa ff ff    	je     6d3e <free@plt+0x628e>
    7316:	48 8b 43 08          	mov    rax,QWORD PTR [rbx+0x8]
    731a:	48 85 c0             	test   rax,rax
    731d:	75 e1                	jne    7300 <free@plt+0x6850>
    731f:	48 8b bd f8 fe ff ff 	mov    rdi,QWORD PTR [rbp-0x108]
    7326:	e8 95 5a 01 00       	call   1cdc0 <realloc@@GLIBC_2.2.5+0x2e90>
    732b:	48 8d 78 19          	lea    rdi,[rax+0x19]
    732f:	4c 8d 70 01          	lea    r14,[rax+0x1]
    7333:	e8 48 97 ff ff       	call   a80 <malloc@plt>
    7338:	48 85 c0             	test   rax,rax
    733b:	49 89 c5             	mov    r13,rax
    733e:	0f 84 64 03 00 00    	je     76a8 <free@plt+0x6bf8>
    7344:	48 8b b5 f8 fe ff ff 	mov    rsi,QWORD PTR [rbp-0x108]
    734b:	48 8d 78 18          	lea    rdi,[rax+0x18]
    734f:	4c 89 f2             	mov    rdx,r14
    7352:	e8 f9 69 01 00       	call   1dd50 <realloc@@GLIBC_2.2.5+0x3e20>
    7357:	49 c7 45 08 00 00 00 	mov    QWORD PTR [r13+0x8],0x0
    735e:	00 
    735f:	49 89 45 00          	mov    QWORD PTR [r13+0x0],rax
    7363:	41 c7 45 10 00 00 00 	mov    DWORD PTR [r13+0x10],0x0
    736a:	00 
    736b:	4c 89 6b 08          	mov    QWORD PTR [rbx+0x8],r13
    736f:	e9 ca f9 ff ff       	jmp    6d3e <free@plt+0x628e>
    7374:	49 8b 84 24 b0 00 00 	mov    rax,QWORD PTR [r12+0xb0]
    737b:	00 
    737c:	48 85 c0             	test   rax,rax
    737f:	0f 84 c7 f9 ff ff    	je     6d4c <free@plt+0x629c>
    7385:	49 8b 54 24 68       	mov    rdx,QWORD PTR [r12+0x68]
    738a:	49 8b 5c 24 38       	mov    rbx,QWORD PTR [r12+0x38]
    738f:	4c 8b 68 08          	mov    r13,QWORD PTR [rax+0x8]
    7393:	4c 03 6a 08          	add    r13,QWORD PTR [rdx+0x8]
    7397:	48 85 db             	test   rbx,rbx
    739a:	75 0f                	jne    73ab <free@plt+0x68fb>
    739c:	e9 6b 02 00 00       	jmp    760c <free@plt+0x6b5c>
    73a1:	0f 1f 80 00 00 00 00 	nop    DWORD PTR [rax+0x0]
    73a8:	48 89 c3             	mov    rbx,rax
    73ab:	48 8b 33             	mov    rsi,QWORD PTR [rbx]
    73ae:	4c 89 ef             	mov    rdi,r13
    73b1:	e8 7a 45 01 00       	call   1b930 <realloc@@GLIBC_2.2.5+0x1a00>
    73b6:	85 c0                	test   eax,eax
    73b8:	0f 84 8e f9 ff ff    	je     6d4c <free@plt+0x629c>
    73be:	48 8b 43 08          	mov    rax,QWORD PTR [rbx+0x8]
    73c2:	48 85 c0             	test   rax,rax
    73c5:	75 e1                	jne    73a8 <free@plt+0x68f8>
    73c7:	4c 89 ef             	mov    rdi,r13
    73ca:	e8 f1 59 01 00       	call   1cdc0 <realloc@@GLIBC_2.2.5+0x2e90>
    73cf:	48 8d 78 19          	lea    rdi,[rax+0x19]
    73d3:	4c 8d 78 01          	lea    r15,[rax+0x1]
    73d7:	e8 a4 96 ff ff       	call   a80 <malloc@plt>
    73dc:	48 85 c0             	test   rax,rax
    73df:	49 89 c6             	mov    r14,rax
    73e2:	0f 84 3a 02 00 00    	je     7622 <free@plt+0x6b72>
    73e8:	48 8d 78 18          	lea    rdi,[rax+0x18]
    73ec:	4c 89 fa             	mov    rdx,r15
    73ef:	4c 89 ee             	mov    rsi,r13
    73f2:	e8 59 69 01 00       	call   1dd50 <realloc@@GLIBC_2.2.5+0x3e20>
    73f7:	49 c7 46 08 00 00 00 	mov    QWORD PTR [r14+0x8],0x0
    73fe:	00 
    73ff:	49 89 06             	mov    QWORD PTR [r14],rax
    7402:	41 c7 46 10 00 00 00 	mov    DWORD PTR [r14+0x10],0x0
    7409:	00 
    740a:	4c 89 73 08          	mov    QWORD PTR [rbx+0x8],r14
    740e:	e9 39 f9 ff ff       	jmp    6d4c <free@plt+0x629c>
    7413:	48 8b 85 00 ff ff ff 	mov    rax,QWORD PTR [rbp-0x100]
    741a:	0f b7 40 40          	movzx  eax,WORD PTR [rax+0x40]
    741e:	48 8d 14 c5 00 00 00 	lea    rdx,[rax*8+0x0]
    7425:	00 
    7426:	48 c1 e0 06          	shl    rax,0x6
    742a:	48 29 d0             	sub    rax,rdx
    742d:	48 89 c7             	mov    rdi,rax
    7430:	48 89 c3             	mov    rbx,rax
    7433:	e8 48 96 ff ff       	call   a80 <malloc@plt>
    7438:	48 85 c0             	test   rax,rax
    743b:	0f 84 22 02 00 00    	je     7663 <free@plt+0x6bb3>
    7441:	48 89 da             	mov    rdx,rbx
    7444:	4c 89 ee             	mov    rsi,r13
    7447:	48 89 c7             	mov    rdi,rax
    744a:	e8 01 69 01 00       	call   1dd50 <realloc@@GLIBC_2.2.5+0x3e20>
    744f:	41 80 8c 24 14 03 00 	or     BYTE PTR [r12+0x314],0x80
    7456:	00 80 
    7458:	49 89 84 24 a0 02 00 	mov    QWORD PTR [r12+0x2a0],rax
    745f:	00 
    7460:	e9 b8 f7 ff ff       	jmp    6c1d <free@plt+0x616d>
    7465:	89 c6                	mov    esi,eax
    7467:	81 e6 16 f7 ff ff    	and    esi,0xfffff716
    746d:	0f 84 fa f6 ff ff    	je     6b6d <free@plt+0x60bd>
    7473:	48 8d 3d a6 96 01 00 	lea    rdi,[rip+0x196a6]        # 20b20 <realloc@@GLIBC_2.2.5+0x6bf0>
    747a:	31 c0                	xor    eax,eax
    747c:	e8 2f a1 00 00       	call   115b0 <_dl_debug_state@@GLIBC_PRIVATE+0x720>
    7481:	41 8b 94 24 d4 03 00 	mov    edx,DWORD PTR [r12+0x3d4]
    7488:	00 
    7489:	89 d1                	mov    ecx,edx
    748b:	e9 dd f6 ff ff       	jmp    6b6d <free@plt+0x60bd>
    7490:	48 21 c8             	and    rax,rcx
    7493:	89 da                	mov    edx,ebx
    7495:	4c 89 85 c0 fe ff ff 	mov    QWORD PTR [rbp-0x140],r8
    749c:	83 ca 02             	or     edx,0x2
    749f:	48 89 c7             	mov    rdi,rax
    74a2:	4c 89 95 d0 fe ff ff 	mov    QWORD PTR [rbp-0x130],r10
    74a9:	4c 89 9d e0 fe ff ff 	mov    QWORD PTR [rbp-0x120],r11
    74b0:	48 89 8d 18 ff ff ff 	mov    QWORD PTR [rbp-0xe8],rcx
    74b7:	e8 84 3e 01 00       	call   1b340 <realloc@@GLIBC_2.2.5+0x1410>
    74bc:	85 c0                	test   eax,eax
    74be:	48 8b 8d 18 ff ff ff 	mov    rcx,QWORD PTR [rbp-0xe8]
    74c5:	4c 8b 9d e0 fe ff ff 	mov    r11,QWORD PTR [rbp-0x120]
    74cc:	4c 8b 95 d0 fe ff ff 	mov    r10,QWORD PTR [rbp-0x130]
    74d3:	4c 8b 85 c0 fe ff ff 	mov    r8,QWORD PTR [rbp-0x140]
    74da:	0f 88 1e 01 00 00    	js     75fe <free@plt+0x6b4e>
    74e0:	4c 89 da             	mov    rdx,r11
    74e3:	48 89 cf             	mov    rdi,rcx
    74e6:	31 f6                	xor    esi,esi
    74e8:	48 29 ca             	sub    rdx,rcx
    74eb:	4c 89 85 c0 fe ff ff 	mov    QWORD PTR [rbp-0x140],r8
    74f2:	4c 89 95 d0 fe ff ff 	mov    QWORD PTR [rbp-0x130],r10
    74f9:	4c 89 9d e0 fe ff ff 	mov    QWORD PTR [rbp-0x120],r11
    7500:	48 89 8d 18 ff ff ff 	mov    QWORD PTR [rbp-0xe8],rcx
    7507:	e8 24 65 01 00       	call   1da30 <realloc@@GLIBC_2.2.5+0x3b00>
    750c:	48 8b 35 a5 e7 21 00 	mov    rsi,QWORD PTR [rip+0x21e7a5]        # 225cb8 <_rtld_global_ro@@GLIBC_PRIVATE+0x18>
    7513:	48 8b 8d 18 ff ff ff 	mov    rcx,QWORD PTR [rbp-0xe8]
    751a:	89 da                	mov    edx,ebx
    751c:	48 89 f7             	mov    rdi,rsi
    751f:	48 f7 df             	neg    rdi
    7522:	48 21 cf             	and    rdi,rcx
    7525:	e8 16 3e 01 00       	call   1b340 <realloc@@GLIBC_2.2.5+0x1410>
    752a:	4c 8b 9d e0 fe ff ff 	mov    r11,QWORD PTR [rbp-0x120]
    7531:	4c 8b 95 d0 fe ff ff 	mov    r10,QWORD PTR [rbp-0x130]
    7538:	4c 8b 85 c0 fe ff ff 	mov    r8,QWORD PTR [rbp-0x140]
    753f:	e9 69 f2 ff ff       	jmp    67ad <free@plt+0x5cfd>
    7544:	48 8b 15 e5 f8 21 00 	mov    rdx,QWORD PTR [rip+0x21f8e5]        # 226e30 <_rtld_global@@GLIBC_PRIVATE+0xdf0>
    754b:	48 03 15 86 f4 21 00 	add    rdx,QWORD PTR [rip+0x21f486]        # 2269d8 <_rtld_global@@GLIBC_PRIVATE+0x998>
    7552:	48 8d 0d fb e8 21 00 	lea    rcx,[rip+0x21e8fb]        # 225e54 <_rtld_global_ro@@GLIBC_PRIVATE+0x1b4>
    7559:	48 03 15 d8 f8 21 00 	add    rdx,QWORD PTR [rip+0x21f8d8]        # 226e38 <_rtld_global@@GLIBC_PRIVATE+0xdf8>
    7560:	48 8b 05 51 e7 21 00 	mov    rax,QWORD PTR [rip+0x21e751]        # 225cb8 <_rtld_global_ro@@GLIBC_PRIVATE+0x18>
    7567:	48 8d 1d e2 e8 21 00 	lea    rbx,[rip+0x21e8e2]        # 225e50 <_rtld_global_ro@@GLIBC_PRIVATE+0x1b0>
    756e:	49 89 cd             	mov    r13,rcx
    7571:	48 f7 d8             	neg    rax
    7574:	48 21 c3             	and    rbx,rax
    7577:	48 21 d0             	and    rax,rdx
    757a:	49 29 dd             	sub    r13,rbx
    757d:	48 39 c1             	cmp    rcx,rax
    7580:	0f 87 e5 fc ff ff    	ja     726b <free@plt+0x67bb>
    7586:	ba 03 00 00 00       	mov    edx,0x3
    758b:	4c 89 ee             	mov    rsi,r13
    758e:	48 89 df             	mov    rdi,rbx
    7591:	e8 aa 3d 01 00       	call   1b340 <realloc@@GLIBC_2.2.5+0x1410>
    7596:	85 c0                	test   eax,eax
    7598:	0f 88 9a 00 00 00    	js     7638 <free@plt+0x6b88>
    759e:	ba 01 00 00 00       	mov    edx,0x1
    75a3:	4c 89 ee             	mov    rsi,r13
    75a6:	48 89 df             	mov    rdi,rbx
    75a9:	83 0d a0 e8 21 00 07 	or     DWORD PTR [rip+0x21e8a0],0x7        # 225e50 <_rtld_global_ro@@GLIBC_PRIVATE+0x1b0>
    75b0:	e8 8b 3d 01 00       	call   1b340 <realloc@@GLIBC_2.2.5+0x1410>
    75b5:	e9 b8 fc ff ff       	jmp    7272 <free@plt+0x67c2>
    75ba:	48 8b 05 a7 f9 21 00 	mov    rax,QWORD PTR [rip+0x21f9a7]        # 226f68 <_rtld_global@@GLIBC_PRIVATE+0xf28>
    75c1:	48 83 c0 01          	add    rax,0x1
    75c5:	48 89 05 9c f9 21 00 	mov    QWORD PTR [rip+0x21f99c],rax        # 226f68 <_rtld_global@@GLIBC_PRIVATE+0xf28>
    75cc:	49 89 84 24 48 04 00 	mov    QWORD PTR [r12+0x448],rax
    75d3:	00 
    75d4:	41 0f b7 84 24 b0 02 	movzx  eax,WORD PTR [r12+0x2b0]
    75db:	00 00 
    75dd:	e9 66 ee ff ff       	jmp    6448 <free@plt+0x5998>
    75e2:	31 db                	xor    ebx,ebx
    75e4:	4c 8d 0d 0d 9a 01 00 	lea    r9,[rip+0x19a0d]        # 20ff8 <realloc@@GLIBC_2.2.5+0x70c8>
    75eb:	e9 69 f2 ff ff       	jmp    6859 <free@plt+0x5da9>
    75f0:	31 db                	xor    ebx,ebx
    75f2:	4c 8d 0d 0e 83 01 00 	lea    r9,[rip+0x1830e]        # 1f907 <realloc@@GLIBC_2.2.5+0x59d7>
    75f9:	e9 62 f2 ff ff       	jmp    6860 <free@plt+0x5db0>
    75fe:	4c 8d 0d a3 9a 01 00 	lea    r9,[rip+0x19aa3]        # 210a8 <realloc@@GLIBC_2.2.5+0x7178>
    7605:	31 db                	xor    ebx,ebx
    7607:	e9 4d f2 ff ff       	jmp    6859 <free@plt+0x5da9>
    760c:	4c 89 ef             	mov    rdi,r13
    760f:	e8 ac 57 01 00       	call   1cdc0 <realloc@@GLIBC_2.2.5+0x2e90>
    7614:	48 8d 78 19          	lea    rdi,[rax+0x19]
    7618:	e8 63 94 ff ff       	call   a80 <malloc@plt>
    761d:	48 85 c0             	test   rax,rax
    7620:	75 67                	jne    7689 <free@plt+0x6bd9>
    7622:	48 8d 0d 1f 83 01 00 	lea    rcx,[rip+0x1831f]        # 1f948 <realloc@@GLIBC_2.2.5+0x5a18>
    7629:	31 d2                	xor    edx,edx
    762b:	4c 89 ee             	mov    rsi,r13
    762e:	bf 0c 00 00 00       	mov    edi,0xc
    7633:	e8 b8 8a 00 00       	call   100f0 <_dl_rtld_di_serinfo@@GLIBC_PRIVATE+0x6c70>
    7638:	4c 8d 0d 69 9a 01 00 	lea    r9,[rip+0x19a69]        # 210a8 <realloc@@GLIBC_2.2.5+0x7178>
    763f:	e9 3f f3 ff ff       	jmp    6983 <free@plt+0x5ed3>
    7644:	48 8d 0d d5 ac 01 00 	lea    rcx,[rip+0x1acd5]        # 22320 <realloc@@GLIBC_2.2.5+0x83f0>
    764b:	48 8d 35 88 7f 01 00 	lea    rsi,[rip+0x17f88]        # 1f5da <realloc@@GLIBC_2.2.5+0x56aa>
    7652:	48 8d 3d 8f 94 01 00 	lea    rdi,[rip+0x1948f]        # 20ae8 <realloc@@GLIBC_2.2.5+0x6bb8>
    7659:	ba 81 00 00 00       	mov    edx,0x81
    765e:	e8 7d 28 01 00       	call   19ee0 <free@@GLIBC_2.2.5+0x160>
    7663:	4c 8d 0d 0e 9a 01 00 	lea    r9,[rip+0x19a0e]        # 21078 <realloc@@GLIBC_2.2.5+0x7148>
    766a:	e9 14 f3 ff ff       	jmp    6983 <free@plt+0x5ed3>
    766f:	48 8b bd f8 fe ff ff 	mov    rdi,QWORD PTR [rbp-0x108]
    7676:	e8 45 57 01 00       	call   1cdc0 <realloc@@GLIBC_2.2.5+0x2e90>
    767b:	48 8d 78 19          	lea    rdi,[rax+0x19]
    767f:	e8 fc 93 ff ff       	call   a80 <malloc@plt>
    7684:	48 85 c0             	test   rax,rax
    7687:	74 1f                	je     76a8 <free@plt+0x6bf8>
    7689:	48 8d 0d 30 ad 01 00 	lea    rcx,[rip+0x1ad30]        # 223c0 <realloc@@GLIBC_2.2.5+0x8490>
    7690:	48 8d 35 cd 82 01 00 	lea    rsi,[rip+0x182cd]        # 1f964 <realloc@@GLIBC_2.2.5+0x5a34>
    7697:	48 8d 3d d0 82 01 00 	lea    rdi,[rip+0x182d0]        # 1f96e <realloc@@GLIBC_2.2.5+0x5a3e>
    769e:	ba a0 01 00 00       	mov    edx,0x1a0
    76a3:	e8 38 28 01 00       	call   19ee0 <free@@GLIBC_2.2.5+0x160>
    76a8:	48 8b b5 f8 fe ff ff 	mov    rsi,QWORD PTR [rbp-0x108]
    76af:	48 8d 0d 92 82 01 00 	lea    rcx,[rip+0x18292]        # 1f948 <realloc@@GLIBC_2.2.5+0x5a18>
    76b6:	31 d2                	xor    edx,edx
    76b8:	bf 0c 00 00 00       	mov    edi,0xc
    76bd:	e8 2e 8a 00 00       	call   100f0 <_dl_rtld_di_serinfo@@GLIBC_PRIVATE+0x6c70>
    76c2:	bb 0c 00 00 00       	mov    ebx,0xc
    76c7:	4c 8d 0d a2 8d 01 00 	lea    r9,[rip+0x18da2]        # 20470 <realloc@@GLIBC_2.2.5+0x6540>
    76ce:	e9 86 f1 ff ff       	jmp    6859 <free@plt+0x5da9>
    76d3:	31 db                	xor    ebx,ebx
    76d5:	4c 8d 0d 3a 82 01 00 	lea    r9,[rip+0x1823a]        # 1f916 <realloc@@GLIBC_2.2.5+0x59e6>
    76dc:	e9 78 f1 ff ff       	jmp    6859 <free@plt+0x5da9>
    76e1:	48 8d 0d 38 ac 01 00 	lea    rcx,[rip+0x1ac38]        # 22320 <realloc@@GLIBC_2.2.5+0x83f0>
    76e8:	48 8d 35 eb 7e 01 00 	lea    rsi,[rip+0x17eeb]        # 1f5da <realloc@@GLIBC_2.2.5+0x56aa>
    76ef:	48 8d 3d ca 93 01 00 	lea    rdi,[rip+0x193ca]        # 20ac0 <realloc@@GLIBC_2.2.5+0x6b90>
    76f6:	ba 79 00 00 00       	mov    edx,0x79
    76fb:	e8 e0 27 01 00       	call   19ee0 <free@@GLIBC_2.2.5+0x160>
    7700:	48 8d 0d 99 ac 01 00 	lea    rcx,[rip+0x1ac99]        # 223a0 <realloc@@GLIBC_2.2.5+0x8470>
    7707:	48 8d 35 56 82 01 00 	lea    rsi,[rip+0x18256]        # 1f964 <realloc@@GLIBC_2.2.5+0x5a34>
    770e:	48 8d 3d 67 82 01 00 	lea    rdi,[rip+0x18267]        # 1f97c <realloc@@GLIBC_2.2.5+0x5a4c>
    7715:	ba eb 03 00 00       	mov    edx,0x3eb
    771a:	e8 c1 27 01 00       	call   19ee0 <free@@GLIBC_2.2.5+0x160>
    771f:	c6 85 23 ff ff ff 00 	mov    BYTE PTR [rbp-0xdd],0x0
    7726:	4c 8d 0d 23 99 01 00 	lea    r9,[rip+0x19923]        # 21050 <realloc@@GLIBC_2.2.5+0x7120>
    772d:	e9 51 f2 ff ff       	jmp    6983 <free@plt+0x5ed3>
    7732:	4c 8d 0d ce 80 01 00 	lea    r9,[rip+0x180ce]        # 1f807 <realloc@@GLIBC_2.2.5+0x58d7>
    7739:	e9 45 f2 ff ff       	jmp    6983 <free@plt+0x5ed3>
    773e:	66 90                	xchg   ax,ax
    7740:	41 57                	push   r15
    7742:	41 56                	push   r14
    7744:	4c 8d 77 01          	lea    r14,[rdi+0x1]
    7748:	41 55                	push   r13
    774a:	41 54                	push   r12
    774c:	48 89 f8             	mov    rax,rdi
    774f:	55                   	push   rbp
    7750:	53                   	push   rbx
    7751:	48 89 fd             	mov    rbp,rdi
    7754:	41 89 f4             	mov    r12d,esi
    7757:	31 db                	xor    ebx,ebx
    7759:	48 83 ec 08          	sub    rsp,0x8
    775d:	44 8b 2d 04 e7 21 00 	mov    r13d,DWORD PTR [rip+0x21e704]        # 225e68 <__libc_enable_secure@@GLIBC_PRIVATE>
    7764:	0f 1f 40 00          	nop    DWORD PTR [rax+0x0]
    7768:	0f b6 50 01          	movzx  edx,BYTE PTR [rax+0x1]
    776c:	4c 8d 78 01          	lea    r15,[rax+0x1]
    7770:	80 fa 7b             	cmp    dl,0x7b
    7773:	0f 84 07 01 00 00    	je     7880 <free@plt+0x6dd0>
    7779:	80 fa 4f             	cmp    dl,0x4f
    777c:	4c 89 f9             	mov    rcx,r15
    777f:	0f 85 12 01 00 00    	jne    7897 <free@plt+0x6de7>
    7785:	31 ff                	xor    edi,edi
    7787:	31 c0                	xor    eax,eax
    7789:	48 8d 35 01 82 01 00 	lea    rsi,[rip+0x18201]        # 1f991 <realloc@@GLIBC_2.2.5+0x5a61>
    7790:	eb 0a                	jmp    779c <free@plt+0x6cec>
    7792:	66 0f 1f 44 00 00    	nop    WORD PTR [rax+rax*1+0x0]
    7798:	84 d2                	test   dl,dl
    779a:	74 5c                	je     77f8 <free@plt+0x6d48>
    779c:	48 83 c0 01          	add    rax,0x1
    77a0:	0f b6 14 01          	movzx  edx,BYTE PTR [rcx+rax*1]
    77a4:	3a 14 06             	cmp    dl,BYTE PTR [rsi+rax*1]
    77a7:	74 ef                	je     7798 <free@plt+0x6ce8>
    77a9:	40 84 ff             	test   dil,dil
    77ac:	0f 84 ee 00 00 00    	je     78a0 <free@plt+0x6df0>
    77b2:	80 fa 7d             	cmp    dl,0x7d
    77b5:	75 79                	jne    7830 <free@plt+0x6d80>
    77b7:	48 83 e9 01          	sub    rcx,0x1
    77bb:	48 83 c0 02          	add    rax,0x2
    77bf:	45 85 ed             	test   r13d,r13d
    77c2:	75 3e                	jne    7802 <free@plt+0x6d52>
    77c4:	48 85 c0             	test   rax,rax
    77c7:	74 67                	je     7830 <free@plt+0x6d80>
    77c9:	48 83 c3 01          	add    rbx,0x1
    77cd:	49 8d 3c 07          	lea    rdi,[r15+rax*1]
    77d1:	be 24 00 00 00       	mov    esi,0x24
    77d6:	e8 35 3f 01 00       	call   1b710 <realloc@@GLIBC_2.2.5+0x17e0>
    77db:	48 85 c0             	test   rax,rax
    77de:	75 88                	jne    7768 <free@plt+0x6cb8>
    77e0:	48 83 c4 08          	add    rsp,0x8
    77e4:	48 89 d8             	mov    rax,rbx
    77e7:	5b                   	pop    rbx
    77e8:	5d                   	pop    rbp
    77e9:	41 5c                	pop    r12
    77eb:	41 5d                	pop    r13
    77ed:	41 5e                	pop    r14
    77ef:	41 5f                	pop    r15
    77f1:	c3                   	ret
    77f2:	66 0f 1f 44 00 00    	nop    WORD PTR [rax+rax*1+0x0]
    77f8:	40 84 ff             	test   dil,dil
    77fb:	75 33                	jne    7830 <free@plt+0x6d80>
    77fd:	45 85 ed             	test   r13d,r13d
    7800:	74 c7                	je     77c9 <free@plt+0x6d19>
    7802:	0f b6 14 01          	movzx  edx,BYTE PTR [rcx+rax*1]
    7806:	84 d2                	test   dl,dl
    7808:	74 0f                	je     7819 <free@plt+0x6d69>
    780a:	80 fa 2f             	cmp    dl,0x2f
    780d:	74 0a                	je     7819 <free@plt+0x6d69>
    780f:	45 85 e4             	test   r12d,r12d
    7812:	74 1c                	je     7830 <free@plt+0x6d80>
    7814:	80 fa 3a             	cmp    dl,0x3a
    7817:	75 17                	jne    7830 <free@plt+0x6d80>
    7819:	4c 39 f1             	cmp    rcx,r14
    781c:	74 a6                	je     77c4 <free@plt+0x6d14>
    781e:	45 85 e4             	test   r12d,r12d
    7821:	74 0d                	je     7830 <free@plt+0x6d80>
    7823:	80 79 fe 3a          	cmp    BYTE PTR [rcx-0x2],0x3a
    7827:	74 9b                	je     77c4 <free@plt+0x6d14>
    7829:	0f 1f 80 00 00 00 00 	nop    DWORD PTR [rax+0x0]
    7830:	48 8d 15 61 81 01 00 	lea    rdx,[rip+0x18161]        # 1f998 <realloc@@GLIBC_2.2.5+0x5a68>
    7837:	45 31 c0             	xor    r8d,r8d
    783a:	44 89 e1             	mov    ecx,r12d
    783d:	4c 89 fe             	mov    rsi,r15
    7840:	48 89 ef             	mov    rdi,rbp
    7843:	e8 c8 d9 ff ff       	call   5210 <free@plt+0x4760>
    7848:	48 85 c0             	test   rax,rax
    784b:	0f 85 78 ff ff ff    	jne    77c9 <free@plt+0x6d19>
    7851:	48 8d 15 49 81 01 00 	lea    rdx,[rip+0x18149]        # 1f9a1 <realloc@@GLIBC_2.2.5+0x5a71>
    7858:	45 31 c0             	xor    r8d,r8d
    785b:	44 89 e1             	mov    ecx,r12d
    785e:	4c 89 fe             	mov    rsi,r15
    7861:	48 89 ef             	mov    rdi,rbp
    7864:	e8 a7 d9 ff ff       	call   5210 <free@plt+0x4760>
    7869:	48 85 c0             	test   rax,rax
    786c:	0f 84 5b ff ff ff    	je     77cd <free@plt+0x6d1d>
    7872:	e9 52 ff ff ff       	jmp    77c9 <free@plt+0x6d19>
    7877:	66 0f 1f 84 00 00 00 	nop    WORD PTR [rax+rax*1+0x0]
    787e:	00 00 
    7880:	0f b6 50 02          	movzx  edx,BYTE PTR [rax+0x2]
    7884:	48 8d 48 02          	lea    rcx,[rax+0x2]
    7888:	80 fa 4f             	cmp    dl,0x4f
    788b:	75 3b                	jne    78c8 <free@plt+0x6e18>
    788d:	bf 01 00 00 00       	mov    edi,0x1
    7892:	e9 f0 fe ff ff       	jmp    7787 <free@plt+0x6cd7>
    7897:	31 c0                	xor    eax,eax
    7899:	0f 1f 80 00 00 00 00 	nop    DWORD PTR [rax+0x0]
    78a0:	84 d2                	test   dl,dl
    78a2:	0f 84 17 ff ff ff    	je     77bf <free@plt+0x6d0f>
    78a8:	80 fa 2f             	cmp    dl,0x2f
    78ab:	0f 84 0e ff ff ff    	je     77bf <free@plt+0x6d0f>
    78b1:	80 fa 3a             	cmp    dl,0x3a
    78b4:	0f 85 76 ff ff ff    	jne    7830 <free@plt+0x6d80>
    78ba:	45 85 e4             	test   r12d,r12d
    78bd:	0f 85 fc fe ff ff    	jne    77bf <free@plt+0x6d0f>
    78c3:	e9 68 ff ff ff       	jmp    7830 <free@plt+0x6d80>
    78c8:	31 c0                	xor    eax,eax
    78ca:	e9 e3 fe ff ff       	jmp    77b2 <free@plt+0x6d02>
    78cf:	90                   	nop
    78d0:	41 57                	push   r15
    78d2:	41 56                	push   r14
    78d4:	45 31 f6             	xor    r14d,r14d
    78d7:	41 55                	push   r13
    78d9:	41 54                	push   r12
    78db:	49 89 d4             	mov    r12,rdx
    78de:	55                   	push   rbp
    78df:	53                   	push   rbx
    78e0:	41 89 cd             	mov    r13d,ecx
    78e3:	4d 89 e7             	mov    r15,r12
    78e6:	48 89 f5             	mov    rbp,rsi
    78e9:	48 83 ec 38          	sub    rsp,0x38
    78ed:	48 89 54 24 10       	mov    QWORD PTR [rsp+0x10],rdx
    78f2:	48 89 7c 24 20       	mov    QWORD PTR [rsp+0x20],rdi
    78f7:	48 89 74 24 08       	mov    QWORD PTR [rsp+0x8],rsi
    78fc:	0f b6 16             	movzx  edx,BYTE PTR [rsi]
    78ff:	eb 15                	jmp    7916 <free@plt+0x6e66>
    7901:	0f 1f 80 00 00 00 00 	nop    DWORD PTR [rax+0x0]
    7908:	84 d2                	test   dl,dl
    790a:	0f 84 da 00 00 00    	je     79ea <free@plt+0x6f3a>
    7910:	49 89 cc             	mov    r12,rcx
    7913:	48 89 dd             	mov    rbp,rbx
    7916:	80 fa 24             	cmp    dl,0x24
    7919:	74 35                	je     7950 <free@plt+0x6ea0>
    791b:	45 85 ed             	test   r13d,r13d
    791e:	41 88 14 24          	mov    BYTE PTR [r12],dl
    7922:	49 8d 4c 24 01       	lea    rcx,[r12+0x1]
    7927:	48 8d 5d 01          	lea    rbx,[rbp+0x1]
    792b:	0f b6 55 01          	movzx  edx,BYTE PTR [rbp+0x1]
    792f:	74 d7                	je     7908 <free@plt+0x6e58>
    7931:	80 fa 3a             	cmp    dl,0x3a
    7934:	75 d2                	jne    7908 <free@plt+0x6e58>
    7936:	45 84 f6             	test   r14b,r14b
    7939:	0f 85 c1 01 00 00    	jne    7b00 <free@plt+0x7050>
    793f:	49 89 cf             	mov    r15,rcx
    7942:	48 89 c8             	mov    rax,rcx
    7945:	4c 89 f9             	mov    rcx,r15
    7948:	49 89 c7             	mov    r15,rax
    794b:	eb c3                	jmp    7910 <free@plt+0x6e60>
    794d:	0f 1f 00             	nop    DWORD PTR [rax]
    7950:	44 8b 1d 11 e5 21 00 	mov    r11d,DWORD PTR [rip+0x21e511]        # 225e68 <__libc_enable_secure@@GLIBC_PRIVATE>
    7957:	48 8d 5d 01          	lea    rbx,[rbp+0x1]
    795b:	48 8b 7c 24 08       	mov    rdi,QWORD PTR [rsp+0x8]
    7960:	48 8d 15 2a 80 01 00 	lea    rdx,[rip+0x1802a]        # 1f991 <realloc@@GLIBC_2.2.5+0x5a61>
    7967:	44 89 e9             	mov    ecx,r13d
    796a:	48 89 de             	mov    rsi,rbx
    796d:	45 89 d8             	mov    r8d,r11d
    7970:	44 89 5c 24 18       	mov    DWORD PTR [rsp+0x18],r11d
    7975:	e8 96 d8 ff ff       	call   5210 <free@plt+0x4760>
    797a:	48 85 c0             	test   rax,rax
    797d:	48 89 c2             	mov    rdx,rax
    7980:	0f 84 8a 00 00 00    	je     7a10 <free@plt+0x6f60>
    7986:	44 8b 5c 24 18       	mov    r11d,DWORD PTR [rsp+0x18]
    798b:	48 8b 44 24 20       	mov    rax,QWORD PTR [rsp+0x20]
    7990:	45 31 f6             	xor    r14d,r14d
    7993:	45 85 db             	test   r11d,r11d
    7996:	48 8b b0 38 03 00 00 	mov    rsi,QWORD PTR [rax+0x338]
    799d:	0f 85 fd 00 00 00    	jne    7aa0 <free@plt+0x6ff0>
    79a3:	48 8d 46 ff          	lea    rax,[rsi-0x1]
    79a7:	48 83 f8 fd          	cmp    rax,0xfffffffffffffffd
    79ab:	0f 86 c7 00 00 00    	jbe    7a78 <free@plt+0x6fc8>
    79b1:	48 83 fa 01          	cmp    rdx,0x1
    79b5:	0f 86 f5 00 00 00    	jbe    7ab0 <free@plt+0x7000>
    79bb:	48 01 d3             	add    rbx,rdx
    79be:	0f b6 03             	movzx  eax,BYTE PTR [rbx]
    79c1:	84 c0                	test   al,al
    79c3:	74 22                	je     79e7 <free@plt+0x6f37>
    79c5:	45 85 ed             	test   r13d,r13d
    79c8:	0f 94 c2             	sete   dl
    79cb:	0f 1f 44 00 00       	nop    DWORD PTR [rax+rax*1+0x0]
    79d0:	3c 3a                	cmp    al,0x3a
    79d2:	75 08                	jne    79dc <free@plt+0x6f2c>
    79d4:	84 d2                	test   dl,dl
    79d6:	0f 84 ec 00 00 00    	je     7ac8 <free@plt+0x7018>
    79dc:	48 83 c3 01          	add    rbx,0x1
    79e0:	0f b6 03             	movzx  eax,BYTE PTR [rbx]
    79e3:	84 c0                	test   al,al
    79e5:	75 e9                	jne    79d0 <free@plt+0x6f20>
    79e7:	4c 89 f9             	mov    rcx,r15
    79ea:	45 84 f6             	test   r14b,r14b
    79ed:	0f 85 43 01 00 00    	jne    7b36 <free@plt+0x7086>
    79f3:	c6 01 00             	mov    BYTE PTR [rcx],0x0
    79f6:	48 8b 44 24 10       	mov    rax,QWORD PTR [rsp+0x10]
    79fb:	48 83 c4 38          	add    rsp,0x38
    79ff:	5b                   	pop    rbx
    7a00:	5d                   	pop    rbp
    7a01:	41 5c                	pop    r12
    7a03:	41 5d                	pop    r13
    7a05:	41 5e                	pop    r14
    7a07:	41 5f                	pop    r15
    7a09:	c3                   	ret
    7a0a:	66 0f 1f 44 00 00    	nop    WORD PTR [rax+rax*1+0x0]
    7a10:	48 8b 7c 24 08       	mov    rdi,QWORD PTR [rsp+0x8]
    7a15:	48 8d 15 7c 7f 01 00 	lea    rdx,[rip+0x17f7c]        # 1f998 <realloc@@GLIBC_2.2.5+0x5a68>
    7a1c:	45 31 c0             	xor    r8d,r8d
    7a1f:	48 89 de             	mov    rsi,rbx
    7a22:	44 89 e9             	mov    ecx,r13d
    7a25:	e8 e6 d7 ff ff       	call   5210 <free@plt+0x4760>
    7a2a:	48 85 c0             	test   rax,rax
    7a2d:	48 89 c2             	mov    rdx,rax
    7a30:	48 8b 35 71 e2 21 00 	mov    rsi,QWORD PTR [rip+0x21e271]        # 225ca8 <_rtld_global_ro@@GLIBC_PRIVATE+0x8>
    7a37:	0f 85 66 ff ff ff    	jne    79a3 <free@plt+0x6ef3>
    7a3d:	48 8b 7c 24 08       	mov    rdi,QWORD PTR [rsp+0x8]
    7a42:	48 8d 15 58 7f 01 00 	lea    rdx,[rip+0x17f58]        # 1f9a1 <realloc@@GLIBC_2.2.5+0x5a71>
    7a49:	45 31 c0             	xor    r8d,r8d
    7a4c:	44 89 e9             	mov    ecx,r13d
    7a4f:	48 89 de             	mov    rsi,rbx
    7a52:	e8 b9 d7 ff ff       	call   5210 <free@plt+0x4760>
    7a57:	48 85 c0             	test   rax,rax
    7a5a:	48 89 c2             	mov    rdx,rax
    7a5d:	74 51                	je     7ab0 <free@plt+0x7000>
    7a5f:	48 8d 35 3f 7f 01 00 	lea    rsi,[rip+0x17f3f]        # 1f9a5 <realloc@@GLIBC_2.2.5+0x5a75>
    7a66:	48 8d 46 ff          	lea    rax,[rsi-0x1]
    7a6a:	48 83 f8 fd          	cmp    rax,0xfffffffffffffffd
    7a6e:	0f 87 3d ff ff ff    	ja     79b1 <free@plt+0x6f01>
    7a74:	0f 1f 40 00          	nop    DWORD PTR [rax+0x0]
    7a78:	4c 89 e7             	mov    rdi,r12
    7a7b:	48 89 54 24 18       	mov    QWORD PTR [rsp+0x18],rdx
    7a80:	e8 eb 61 01 00       	call   1dc70 <realloc@@GLIBC_2.2.5+0x3d40>
    7a85:	48 8b 54 24 18       	mov    rdx,QWORD PTR [rsp+0x18]
    7a8a:	48 89 c1             	mov    rcx,rax
    7a8d:	48 01 d3             	add    rbx,rdx
    7a90:	0f b6 13             	movzx  edx,BYTE PTR [rbx]
    7a93:	e9 70 fe ff ff       	jmp    7908 <free@plt+0x6e58>
    7a98:	0f 1f 84 00 00 00 00 	nop    DWORD PTR [rax+rax*1+0x0]
    7a9f:	00 
    7aa0:	f6 80 14 03 00 00 03 	test   BYTE PTR [rax+0x314],0x3
    7aa7:	41 0f 94 c6          	sete   r14b
    7aab:	e9 f3 fe ff ff       	jmp    79a3 <free@plt+0x6ef3>
    7ab0:	41 c6 04 24 24       	mov    BYTE PTR [r12],0x24
    7ab5:	49 8d 4c 24 01       	lea    rcx,[r12+0x1]
    7aba:	0f b6 55 01          	movzx  edx,BYTE PTR [rbp+0x1]
    7abe:	e9 45 fe ff ff       	jmp    7908 <free@plt+0x6e58>
    7ac3:	0f 1f 44 00 00       	nop    DWORD PTR [rax+rax*1+0x0]
    7ac8:	45 85 ed             	test   r13d,r13d
    7acb:	74 23                	je     7af0 <free@plt+0x7040>
    7acd:	4c 3b 7c 24 10       	cmp    r15,QWORD PTR [rsp+0x10]
    7ad2:	75 1c                	jne    7af0 <free@plt+0x7040>
    7ad4:	0f b6 53 01          	movzx  edx,BYTE PTR [rbx+0x1]
    7ad8:	84 d2                	test   dl,dl
    7ada:	74 14                	je     7af0 <free@plt+0x7040>
    7adc:	48 83 c3 01          	add    rbx,0x1
    7ae0:	4c 89 f9             	mov    rcx,r15
    7ae3:	e9 5a fe ff ff       	jmp    7942 <free@plt+0x6e92>
    7ae8:	0f 1f 84 00 00 00 00 	nop    DWORD PTR [rax+rax*1+0x0]
    7aef:	00 
    7af0:	4c 89 f9             	mov    rcx,r15
    7af3:	ba 3a 00 00 00       	mov    edx,0x3a
    7af8:	e9 13 fe ff ff       	jmp    7910 <free@plt+0x6e60>
    7afd:	0f 1f 00             	nop    DWORD PTR [rax]
    7b00:	48 89 ce             	mov    rsi,rcx
    7b03:	4c 89 ff             	mov    rdi,r15
    7b06:	88 54 24 2f          	mov    BYTE PTR [rsp+0x2f],dl
    7b0a:	4c 29 fe             	sub    rsi,r15
    7b0d:	48 89 4c 24 18       	mov    QWORD PTR [rsp+0x18],rcx
    7b12:	41 be 00 00 00 00    	mov    r14d,0x0
    7b18:	e8 e3 d7 ff ff       	call   5300 <free@plt+0x4850>
    7b1d:	48 8b 4c 24 18       	mov    rcx,QWORD PTR [rsp+0x18]
    7b22:	84 c0                	test   al,al
    7b24:	0f b6 54 24 2f       	movzx  edx,BYTE PTR [rsp+0x2f]
    7b29:	49 0f 44 cf          	cmove  rcx,r15
    7b2d:	4c 0f 45 f9          	cmovne r15,rcx
    7b31:	e9 0c fe ff ff       	jmp    7942 <free@plt+0x6e92>
    7b36:	48 89 ce             	mov    rsi,rcx
    7b39:	4c 89 ff             	mov    rdi,r15
    7b3c:	48 89 4c 24 08       	mov    QWORD PTR [rsp+0x8],rcx
    7b41:	4c 29 fe             	sub    rsi,r15
    7b44:	e8 b7 d7 ff ff       	call   5300 <free@plt+0x4850>
    7b49:	48 8b 4c 24 08       	mov    rcx,QWORD PTR [rsp+0x8]
    7b4e:	84 c0                	test   al,al
    7b50:	49 0f 44 cf          	cmove  rcx,r15
    7b54:	e9 9a fe ff ff       	jmp    79f3 <free@plt+0x6f43>
    7b59:	0f 1f 80 00 00 00 00 	nop    DWORD PTR [rax+0x0]
    7b60:	41 57                	push   r15
    7b62:	41 56                	push   r14
    7b64:	41 55                	push   r13
    7b66:	41 54                	push   r12
    7b68:	49 89 f4             	mov    r12,rsi
    7b6b:	55                   	push   rbp
    7b6c:	53                   	push   rbx
    7b6d:	48 89 d6             	mov    rsi,rdx
    7b70:	31 ed                	xor    ebp,ebp
    7b72:	48 83 ec 48          	sub    rsp,0x48
    7b76:	48 8d 44 24 38       	lea    rax,[rsp+0x38]
    7b7b:	48 89 7c 24 38       	mov    QWORD PTR [rsp+0x38],rdi
    7b80:	48 89 14 24          	mov    QWORD PTR [rsp],rdx
    7b84:	89 4c 24 1c          	mov    DWORD PTR [rsp+0x1c],ecx
    7b88:	4c 89 44 24 30       	mov    QWORD PTR [rsp+0x30],r8
    7b8d:	48 89 c7             	mov    rdi,rax
    7b90:	4c 89 4c 24 10       	mov    QWORD PTR [rsp+0x10],r9
    7b95:	48 89 44 24 08       	mov    QWORD PTR [rsp+0x8],rax
    7b9a:	e8 c1 26 01 00       	call   1a260 <realloc@@GLIBC_2.2.5+0x330>
    7b9f:	48 85 c0             	test   rax,rax
    7ba2:	48 89 c3             	mov    rbx,rax
    7ba5:	0f 84 ce 00 00 00    	je     7c79 <free@plt+0x71c9>
    7bab:	0f 1f 44 00 00       	nop    DWORD PTR [rax+rax*1+0x0]
    7bb0:	be 24 00 00 00       	mov    esi,0x24
    7bb5:	48 89 df             	mov    rdi,rbx
    7bb8:	e8 53 3b 01 00       	call   1b710 <realloc@@GLIBC_2.2.5+0x17e0>
    7bbd:	48 85 c0             	test   rax,rax
    7bc0:	0f 85 58 03 00 00    	jne    7f1e <free@plt+0x746e>
    7bc6:	48 89 df             	mov    rdi,rbx
    7bc9:	e8 a2 51 01 00       	call   1cd70 <realloc@@GLIBC_2.2.5+0x2e40>
    7bce:	49 89 c6             	mov    r14,rax
    7bd1:	4c 89 f7             	mov    rdi,r14
    7bd4:	e8 e7 51 01 00       	call   1cdc0 <realloc@@GLIBC_2.2.5+0x2e90>
    7bd9:	48 85 c0             	test   rax,rax
    7bdc:	49 89 c5             	mov    r13,rax
    7bdf:	0f 85 83 02 00 00    	jne    7e68 <free@plt+0x73b8>
    7be5:	8b 54 24 1c          	mov    edx,DWORD PTR [rsp+0x1c]
    7be9:	85 d2                	test   edx,edx
    7beb:	75 6a                	jne    7c57 <free@plt+0x71a7>
    7bed:	4c 8d 3d 62 7e 01 00 	lea    r15,[rip+0x17e62]        # 1fa56 <realloc@@GLIBC_2.2.5+0x5b26>
    7bf4:	48 8b 1d cd ed 21 00 	mov    rbx,QWORD PTR [rip+0x21edcd]        # 2269c8 <_rtld_global@@GLIBC_PRIVATE+0x988>
    7bfb:	48 85 db             	test   rbx,rbx
    7bfe:	75 14                	jne    7c14 <free@plt+0x7164>
    7c00:	e9 93 00 00 00       	jmp    7c98 <free@plt+0x71e8>
    7c05:	0f 1f 00             	nop    DWORD PTR [rax]
    7c08:	48 8b 1b             	mov    rbx,QWORD PTR [rbx]
    7c0b:	48 85 db             	test   rbx,rbx
    7c0e:	0f 84 84 00 00 00    	je     7c98 <free@plt+0x71e8>
    7c14:	4c 39 6b 20          	cmp    QWORD PTR [rbx+0x20],r13
    7c18:	75 ee                	jne    7c08 <free@plt+0x7158>
    7c1a:	48 8b 73 18          	mov    rsi,QWORD PTR [rbx+0x18]
    7c1e:	4c 89 ea             	mov    rdx,r13
    7c21:	4c 89 ff             	mov    rdi,r15
    7c24:	e8 a7 58 01 00       	call   1d4d0 <realloc@@GLIBC_2.2.5+0x35a0>
    7c29:	85 c0                	test   eax,eax
    7c2b:	75 db                	jne    7c08 <free@plt+0x7158>
    7c2d:	48 85 ed             	test   rbp,rbp
    7c30:	74 1d                	je     7c4f <free@plt+0x719f>
    7c32:	49 39 1c 24          	cmp    QWORD PTR [r12],rbx
    7c36:	74 1f                	je     7c57 <free@plt+0x71a7>
    7c38:	31 c0                	xor    eax,eax
    7c3a:	eb 0a                	jmp    7c46 <free@plt+0x7196>
    7c3c:	0f 1f 40 00          	nop    DWORD PTR [rax+0x0]
    7c40:	49 39 1c c4          	cmp    QWORD PTR [r12+rax*8],rbx
    7c44:	74 11                	je     7c57 <free@plt+0x71a7>
    7c46:	48 83 c0 01          	add    rax,0x1
    7c4a:	48 39 c5             	cmp    rbp,rax
    7c4d:	75 f1                	jne    7c40 <free@plt+0x7190>
    7c4f:	49 89 1c ec          	mov    QWORD PTR [r12+rbp*8],rbx
    7c53:	48 83 c5 01          	add    rbp,0x1
    7c57:	4c 89 f7             	mov    rdi,r14
    7c5a:	e8 51 8e ff ff       	call   ab0 <free@plt>
    7c5f:	48 8b 34 24          	mov    rsi,QWORD PTR [rsp]
    7c63:	48 8b 7c 24 08       	mov    rdi,QWORD PTR [rsp+0x8]
    7c68:	e8 f3 25 01 00       	call   1a260 <realloc@@GLIBC_2.2.5+0x330>
    7c6d:	48 85 c0             	test   rax,rax
    7c70:	48 89 c3             	mov    rbx,rax
    7c73:	0f 85 37 ff ff ff    	jne    7bb0 <free@plt+0x7100>
    7c79:	49 c7 04 ec 00 00 00 	mov    QWORD PTR [r12+rbp*8],0x0
    7c80:	00 
    7c81:	48 83 c4 48          	add    rsp,0x48
    7c85:	4c 89 e0             	mov    rax,r12
    7c88:	5b                   	pop    rbx
    7c89:	5d                   	pop    rbp
    7c8a:	41 5c                	pop    r12
    7c8c:	41 5d                	pop    r13
    7c8e:	41 5e                	pop    r14
    7c90:	41 5f                	pop    r15
    7c92:	c3                   	ret
    7c93:	0f 1f 44 00 00       	nop    DWORD PTR [rax+rax*1+0x0]
    7c98:	48 83 7c 24 10 00    	cmp    QWORD PTR [rsp+0x10],0x0
    7c9e:	0f 84 6c 02 00 00    	je     7f10 <free@plt+0x7460>
    7ca4:	48 8b 7c 24 10       	mov    rdi,QWORD PTR [rsp+0x10]
    7ca9:	e8 12 51 01 00       	call   1cdc0 <realloc@@GLIBC_2.2.5+0x2e90>
    7cae:	48 83 c0 01          	add    rax,0x1
    7cb2:	48 89 44 24 20       	mov    QWORD PTR [rsp+0x20],rax
    7cb7:	48 8b 05 6a e1 21 00 	mov    rax,QWORD PTR [rip+0x21e16a]        # 225e28 <_rtld_global_ro@@GLIBC_PRIVATE+0x188>
    7cbe:	48 8d 14 85 28 00 00 	lea    rdx,[rax*4+0x28]
    7cc5:	00 
    7cc6:	49 8d 7c 15 01       	lea    rdi,[r13+rdx*1+0x1]
    7ccb:	48 03 7c 24 20       	add    rdi,QWORD PTR [rsp+0x20]
    7cd0:	48 89 54 24 28       	mov    QWORD PTR [rsp+0x28],rdx
    7cd5:	e8 a6 8d ff ff       	call   a80 <malloc@plt>
    7cda:	48 85 c0             	test   rax,rax
    7cdd:	48 89 c3             	mov    rbx,rax
    7ce0:	48 8b 54 24 28       	mov    rdx,QWORD PTR [rsp+0x28]
    7ce5:	0f 84 d0 03 00 00    	je     80bb <free@plt+0x760b>
    7ceb:	48 8d 3c 10          	lea    rdi,[rax+rdx*1]
    7cef:	4c 89 fe             	mov    rsi,r15
    7cf2:	4c 89 ea             	mov    rdx,r13
    7cf5:	48 89 78 18          	mov    QWORD PTR [rax+0x18],rdi
    7cf9:	e8 22 5e 01 00       	call   1db20 <realloc@@GLIBC_2.2.5+0x3bf0>
    7cfe:	4c 39 2d 3b f3 21 00 	cmp    QWORD PTR [rip+0x21f33b],r13        # 227040 <_rtld_global@@GLIBC_PRIVATE+0x1000>
    7d05:	c6 00 00             	mov    BYTE PTR [rax],0x0
    7d08:	4c 89 6b 20          	mov    QWORD PTR [rbx+0x20],r13
    7d0c:	73 07                	jae    7d15 <free@plt+0x7265>
    7d0e:	4c 89 2d 2b f3 21 00 	mov    QWORD PTR [rip+0x21f32b],r13        # 227040 <_rtld_global@@GLIBC_PRIVATE+0x1000>
    7d15:	31 f6                	xor    esi,esi
    7d17:	41 80 3f 2f          	cmp    BYTE PTR [r15],0x2f
    7d1b:	48 8b 15 06 e1 21 00 	mov    rdx,QWORD PTR [rip+0x21e106]        # 225e28 <_rtld_global_ro@@GLIBC_PRIVATE+0x188>
    7d22:	40 0f 95 c6          	setne  sil
    7d26:	01 f6                	add    esi,esi
    7d28:	48 85 d2             	test   rdx,rdx
    7d2b:	0f 84 ec 00 00 00    	je     7e1d <free@plt+0x736d>
    7d31:	48 8d 43 28          	lea    rax,[rbx+0x28]
    7d35:	83 e0 0f             	and    eax,0xf
    7d38:	48 c1 e8 02          	shr    rax,0x2
    7d3c:	48 f7 d8             	neg    rax
    7d3f:	83 e0 03             	and    eax,0x3
    7d42:	48 39 d0             	cmp    rax,rdx
    7d45:	48 0f 47 c2          	cmova  rax,rdx
    7d49:	48 83 fa 06          	cmp    rdx,0x6
    7d4d:	0f 87 6d 02 00 00    	ja     7fc0 <free@plt+0x7510>
    7d53:	48 89 d0             	mov    rax,rdx
    7d56:	48 83 f8 01          	cmp    rax,0x1
    7d5a:	89 73 28             	mov    DWORD PTR [rbx+0x28],esi
    7d5d:	0f 84 da 02 00 00    	je     803d <free@plt+0x758d>
    7d63:	48 83 f8 02          	cmp    rax,0x2
    7d67:	89 73 2c             	mov    DWORD PTR [rbx+0x2c],esi
    7d6a:	0f 84 c2 02 00 00    	je     8032 <free@plt+0x7582>
    7d70:	48 83 f8 03          	cmp    rax,0x3
    7d74:	89 73 30             	mov    DWORD PTR [rbx+0x30],esi
    7d77:	0f 84 aa 02 00 00    	je     8027 <free@plt+0x7577>
    7d7d:	48 83 f8 04          	cmp    rax,0x4
    7d81:	89 73 34             	mov    DWORD PTR [rbx+0x34],esi
    7d84:	0f 84 92 02 00 00    	je     801c <free@plt+0x756c>
    7d8a:	48 83 f8 06          	cmp    rax,0x6
    7d8e:	89 73 38             	mov    DWORD PTR [rbx+0x38],esi
    7d91:	0f 85 7a 02 00 00    	jne    8011 <free@plt+0x7561>
    7d97:	89 73 3c             	mov    DWORD PTR [rbx+0x3c],esi
    7d9a:	41 b8 06 00 00 00    	mov    r8d,0x6
    7da0:	48 39 d0             	cmp    rax,rdx
    7da3:	74 78                	je     7e1d <free@plt+0x736d>
    7da5:	49 89 d2             	mov    r10,rdx
    7da8:	4c 8d 4a ff          	lea    r9,[rdx-0x1]
    7dac:	49 29 c2             	sub    r10,rax
    7daf:	49 8d 7a fc          	lea    rdi,[r10-0x4]
    7db3:	49 29 c1             	sub    r9,rax
    7db6:	48 c1 ef 02          	shr    rdi,0x2
    7dba:	48 83 c7 01          	add    rdi,0x1
    7dbe:	49 83 f9 02          	cmp    r9,0x2
    7dc2:	4c 8d 1c bd 00 00 00 	lea    r11,[rdi*4+0x0]
    7dc9:	00 
    7dca:	76 30                	jbe    7dfc <free@plt+0x734c>
    7dcc:	89 74 24 28          	mov    DWORD PTR [rsp+0x28],esi
    7dd0:	4c 8d 4c 83 28       	lea    r9,[rbx+rax*4+0x28]
    7dd5:	31 c0                	xor    eax,eax
    7dd7:	66 0f 6e 4c 24 28    	movd   xmm1,DWORD PTR [rsp+0x28]
    7ddd:	66 0f 70 c1 00       	pshufd xmm0,xmm1,0x0
    7de2:	48 83 c0 01          	add    rax,0x1
    7de6:	49 83 c1 10          	add    r9,0x10
    7dea:	41 0f 29 41 f0       	movaps XMMWORD PTR [r9-0x10],xmm0
    7def:	48 39 f8             	cmp    rax,rdi
    7df2:	72 ee                	jb     7de2 <free@plt+0x7332>
    7df4:	4d 01 d8             	add    r8,r11
    7df7:	4d 39 d3             	cmp    r11,r10
    7dfa:	74 21                	je     7e1d <free@plt+0x736d>
    7dfc:	49 8d 40 01          	lea    rax,[r8+0x1]
    7e00:	42 89 74 83 28       	mov    DWORD PTR [rbx+r8*4+0x28],esi
    7e05:	48 39 d0             	cmp    rax,rdx
    7e08:	73 13                	jae    7e1d <free@plt+0x736d>
    7e0a:	49 8d 40 02          	lea    rax,[r8+0x2]
    7e0e:	42 89 74 83 2c       	mov    DWORD PTR [rbx+r8*4+0x2c],esi
    7e13:	48 39 d0             	cmp    rax,rdx
    7e16:	73 05                	jae    7e1d <free@plt+0x736d>
    7e18:	42 89 74 83 30       	mov    DWORD PTR [rbx+r8*4+0x30],esi
    7e1d:	48 8b 44 24 30       	mov    rax,QWORD PTR [rsp+0x30]
    7e22:	48 89 43 08          	mov    QWORD PTR [rbx+0x8],rax
    7e26:	48 8b 44 24 10       	mov    rax,QWORD PTR [rsp+0x10]
    7e2b:	48 85 c0             	test   rax,rax
    7e2e:	0f 84 d0 01 00 00    	je     8004 <free@plt+0x7554>
    7e34:	49 8d 7c 95 29       	lea    rdi,[r13+rdx*4+0x29]
    7e39:	48 8b 54 24 20       	mov    rdx,QWORD PTR [rsp+0x20]
    7e3e:	48 89 c6             	mov    rsi,rax
    7e41:	48 01 df             	add    rdi,rbx
    7e44:	e8 07 5f 01 00       	call   1dd50 <realloc@@GLIBC_2.2.5+0x3e20>
    7e49:	48 89 43 10          	mov    QWORD PTR [rbx+0x10],rax
    7e4d:	48 8b 05 74 eb 21 00 	mov    rax,QWORD PTR [rip+0x21eb74]        # 2269c8 <_rtld_global@@GLIBC_PRIVATE+0x988>
    7e54:	48 89 1d 6d eb 21 00 	mov    QWORD PTR [rip+0x21eb6d],rbx        # 2269c8 <_rtld_global@@GLIBC_PRIVATE+0x988>
    7e5b:	48 89 03             	mov    QWORD PTR [rbx],rax
    7e5e:	e9 ec fd ff ff       	jmp    7c4f <free@plt+0x719f>
    7e63:	0f 1f 44 00 00       	nop    DWORD PTR [rax+rax*1+0x0]
    7e68:	48 83 f8 01          	cmp    rax,0x1
    7e6c:	76 27                	jbe    7e95 <free@plt+0x73e5>
    7e6e:	43 80 7c 2e ff 2f    	cmp    BYTE PTR [r14+r13*1-0x1],0x2f
    7e74:	49 8d 45 ff          	lea    rax,[r13-0x1]
    7e78:	74 15                	je     7e8f <free@plt+0x73df>
    7e7a:	e9 52 01 00 00       	jmp    7fd1 <free@plt+0x7521>
    7e7f:	90                   	nop
    7e80:	41 80 7c 06 ff 2f    	cmp    BYTE PTR [r14+rax*1-0x1],0x2f
    7e86:	48 8d 50 ff          	lea    rdx,[rax-0x1]
    7e8a:	75 34                	jne    7ec0 <free@plt+0x7410>
    7e8c:	48 89 d0             	mov    rax,rdx
    7e8f:	48 83 f8 01          	cmp    rax,0x1
    7e93:	75 eb                	jne    7e80 <free@plt+0x73d0>
    7e95:	41 0f b6 06          	movzx  eax,BYTE PTR [r14]
    7e99:	3c 2f                	cmp    al,0x2f
    7e9b:	75 1a                	jne    7eb7 <free@plt+0x7407>
    7e9d:	8b 44 24 1c          	mov    eax,DWORD PTR [rsp+0x1c]
    7ea1:	85 c0                	test   eax,eax
    7ea3:	0f 85 ae fd ff ff    	jne    7c57 <free@plt+0x71a7>
    7ea9:	4d 89 f7             	mov    r15,r14
    7eac:	41 bd 01 00 00 00    	mov    r13d,0x1
    7eb2:	e9 3d fd ff ff       	jmp    7bf4 <free@plt+0x7144>
    7eb7:	b8 01 00 00 00       	mov    eax,0x1
    7ebc:	0f 1f 40 00          	nop    DWORD PTR [rax+0x0]
    7ec0:	8b 4c 24 1c          	mov    ecx,DWORD PTR [rsp+0x1c]
    7ec4:	4c 8d 68 01          	lea    r13,[rax+0x1]
    7ec8:	41 c6 04 06 2f       	mov    BYTE PTR [r14+rax*1],0x2f
    7ecd:	4d 89 f7             	mov    r15,r14
    7ed0:	85 c9                	test   ecx,ecx
    7ed2:	0f 84 1c fd ff ff    	je     7bf4 <free@plt+0x7144>
    7ed8:	49 83 fd 16          	cmp    r13,0x16
    7edc:	0f 85 f7 00 00 00    	jne    7fd9 <free@plt+0x7529>
    7ee2:	48 8d 3d 77 6c 01 00 	lea    rdi,[rip+0x16c77]        # 1eb60 <realloc@@GLIBC_2.2.5+0x4c30>
    7ee9:	ba 16 00 00 00       	mov    edx,0x16
    7eee:	4c 89 f6             	mov    rsi,r14
    7ef1:	e8 da 55 01 00       	call   1d4d0 <realloc@@GLIBC_2.2.5+0x35a0>
    7ef6:	85 c0                	test   eax,eax
    7ef8:	0f 85 59 fd ff ff    	jne    7c57 <free@plt+0x71a7>
    7efe:	4d 89 f7             	mov    r15,r14
    7f01:	e9 ee fc ff ff       	jmp    7bf4 <free@plt+0x7144>
    7f06:	66 2e 0f 1f 84 00 00 	cs nop WORD PTR [rax+rax*1+0x0]
    7f0d:	00 00 00 
    7f10:	48 c7 44 24 20 00 00 	mov    QWORD PTR [rsp+0x20],0x0
    7f17:	00 00 
    7f19:	e9 99 fd ff ff       	jmp    7cb7 <free@plt+0x7207>
    7f1e:	be 01 00 00 00       	mov    esi,0x1
    7f23:	48 89 c7             	mov    rdi,rax
    7f26:	e8 15 f8 ff ff       	call   7740 <free@plt+0x6c90>
    7f2b:	48 85 c0             	test   rax,rax
    7f2e:	49 89 c6             	mov    r14,rax
    7f31:	0f 84 8f fc ff ff    	je     7bc6 <free@plt+0x7116>
    7f37:	48 89 df             	mov    rdi,rbx
    7f3a:	e8 81 4e 01 00       	call   1cdc0 <realloc@@GLIBC_2.2.5+0x2e90>
    7f3f:	49 89 c5             	mov    r13,rax
    7f42:	48 8b 84 24 80 00 00 	mov    rax,QWORD PTR [rsp+0x80]
    7f49:	00 
    7f4a:	48 8b b8 38 03 00 00 	mov    rdi,QWORD PTR [rax+0x338]
    7f51:	48 85 ff             	test   rdi,rdi
    7f54:	0f 84 ee 00 00 00    	je     8048 <free@plt+0x7598>
    7f5a:	48 83 ff ff          	cmp    rdi,0xffffffffffffffff
    7f5e:	0f 84 1c 01 00 00    	je     8080 <free@plt+0x75d0>
    7f64:	e8 57 4e 01 00       	call   1cdc0 <realloc@@GLIBC_2.2.5+0x2e90>
    7f69:	48 83 3d 3f dd 21 00 	cmp    QWORD PTR [rip+0x21dd3f],0x14        # 225cb0 <_rtld_global_ro@@GLIBC_PRIVATE+0x10>
    7f70:	14 
    7f71:	ba 14 00 00 00       	mov    edx,0x14
    7f76:	48 0f 43 15 32 dd 21 	cmovae rdx,QWORD PTR [rip+0x21dd32]        # 225cb0 <_rtld_global_ro@@GLIBC_PRIVATE+0x10>
    7f7d:	00 
    7f7e:	48 39 c2             	cmp    rdx,rax
    7f81:	48 0f 43 c2          	cmovae rax,rdx
    7f85:	48 83 e8 04          	sub    rax,0x4
    7f89:	49 0f af c6          	imul   rax,r14
    7f8d:	4a 8d 7c 28 01       	lea    rdi,[rax+r13*1+0x1]
    7f92:	e8 e9 8a ff ff       	call   a80 <malloc@plt>
    7f97:	48 85 c0             	test   rax,rax
    7f9a:	0f 84 f4 00 00 00    	je     8094 <free@plt+0x75e4>
    7fa0:	48 8b bc 24 80 00 00 	mov    rdi,QWORD PTR [rsp+0x80]
    7fa7:	00 
    7fa8:	b9 01 00 00 00       	mov    ecx,0x1
    7fad:	48 89 c2             	mov    rdx,rax
    7fb0:	48 89 de             	mov    rsi,rbx
    7fb3:	e8 18 f9 ff ff       	call   78d0 <free@plt+0x6e20>
    7fb8:	49 89 c6             	mov    r14,rax
    7fbb:	e9 11 fc ff ff       	jmp    7bd1 <free@plt+0x7121>
    7fc0:	48 85 c0             	test   rax,rax
    7fc3:	0f 85 8d fd ff ff    	jne    7d56 <free@plt+0x72a6>
    7fc9:	45 31 c0             	xor    r8d,r8d
    7fcc:	e9 d4 fd ff ff       	jmp    7da5 <free@plt+0x72f5>
    7fd1:	4c 89 e8             	mov    rax,r13
    7fd4:	e9 e7 fe ff ff       	jmp    7ec0 <free@plt+0x7410>
    7fd9:	49 83 fd 1a          	cmp    r13,0x1a
    7fdd:	0f 85 ed 00 00 00    	jne    80d0 <free@plt+0x7620>
    7fe3:	48 8d 3d 8d 6b 01 00 	lea    rdi,[rip+0x16b8d]        # 1eb77 <realloc@@GLIBC_2.2.5+0x4c47>
    7fea:	ba 1a 00 00 00       	mov    edx,0x1a
    7fef:	4c 89 f6             	mov    rsi,r14
    7ff2:	e8 d9 54 01 00       	call   1d4d0 <realloc@@GLIBC_2.2.5+0x35a0>
    7ff7:	85 c0                	test   eax,eax
    7ff9:	0f 85 58 fc ff ff    	jne    7c57 <free@plt+0x71a7>
    7fff:	e9 fa fe ff ff       	jmp    7efe <free@plt+0x744e>
    8004:	48 c7 43 10 00 00 00 	mov    QWORD PTR [rbx+0x10],0x0
    800b:	00 
    800c:	e9 3c fe ff ff       	jmp    7e4d <free@plt+0x739d>
    8011:	41 b8 05 00 00 00    	mov    r8d,0x5
    8017:	e9 84 fd ff ff       	jmp    7da0 <free@plt+0x72f0>
    801c:	41 b8 04 00 00 00    	mov    r8d,0x4
    8022:	e9 79 fd ff ff       	jmp    7da0 <free@plt+0x72f0>
    8027:	41 b8 03 00 00 00    	mov    r8d,0x3
    802d:	e9 6e fd ff ff       	jmp    7da0 <free@plt+0x72f0>
    8032:	41 b8 02 00 00 00    	mov    r8d,0x2
    8038:	e9 63 fd ff ff       	jmp    7da0 <free@plt+0x72f0>
    803d:	41 b8 01 00 00 00    	mov    r8d,0x1
    8043:	e9 58 fd ff ff       	jmp    7da0 <free@plt+0x72f0>
    8048:	48 8b 40 08          	mov    rax,QWORD PTR [rax+0x8]
    804c:	80 38 00             	cmp    BYTE PTR [rax],0x0
    804f:	74 11                	je     8062 <free@plt+0x75b2>
    8051:	48 8d 05 80 e9 21 00 	lea    rax,[rip+0x21e980]        # 2269d8 <_rtld_global@@GLIBC_PRIVATE+0x998>
    8058:	48 39 84 24 80 00 00 	cmp    QWORD PTR [rsp+0x80],rax
    805f:	00 
    8060:	75 3a                	jne    809c <free@plt+0x75ec>
    8062:	e8 19 bc 00 00       	call   13c80 <__tls_get_addr@@GLIBC_2.3+0x1a0>
    8067:	48 8b 8c 24 80 00 00 	mov    rcx,QWORD PTR [rsp+0x80]
    806e:	00 
    806f:	48 8d 50 ff          	lea    rdx,[rax-0x1]
    8073:	48 83 fa fd          	cmp    rdx,0xfffffffffffffffd
    8077:	48 89 81 38 03 00 00 	mov    QWORD PTR [rcx+0x338],rax
    807e:	76 07                	jbe    8087 <free@plt+0x75d7>
    8080:	31 c0                	xor    eax,eax
    8082:	e9 e2 fe ff ff       	jmp    7f69 <free@plt+0x74b9>
    8087:	48 89 c7             	mov    rdi,rax
    808a:	e8 31 4d 01 00       	call   1cdc0 <realloc@@GLIBC_2.2.5+0x2e90>
    808f:	e9 d5 fe ff ff       	jmp    7f69 <free@plt+0x74b9>
    8094:	45 31 f6             	xor    r14d,r14d
    8097:	e9 35 fb ff ff       	jmp    7bd1 <free@plt+0x7121>
    809c:	48 8d 0d 3d a3 01 00 	lea    rcx,[rip+0x1a33d]        # 223e0 <realloc@@GLIBC_2.2.5+0x84b0>
    80a3:	48 8d 35 ba 78 01 00 	lea    rsi,[rip+0x178ba]        # 1f964 <realloc@@GLIBC_2.2.5+0x5a34>
    80aa:	48 8d 3d 2f 92 01 00 	lea    rdi,[rip+0x1922f]        # 212e0 <realloc@@GLIBC_2.2.5+0x73b0>
    80b1:	ba 7b 01 00 00       	mov    edx,0x17b
    80b6:	e8 25 1e 01 00       	call   19ee0 <free@@GLIBC_2.2.5+0x160>
    80bb:	48 8d 0d 46 92 01 00 	lea    rcx,[rip+0x19246]        # 21308 <realloc@@GLIBC_2.2.5+0x73d8>
    80c2:	31 d2                	xor    edx,edx
    80c4:	31 f6                	xor    esi,esi
    80c6:	bf 0c 00 00 00       	mov    edi,0xc
    80cb:	e8 20 80 00 00       	call   100f0 <_dl_rtld_di_serinfo@@GLIBC_PRIVATE+0x6c70>
    80d0:	49 83 fd 05          	cmp    r13,0x5
    80d4:	75 21                	jne    80f7 <free@plt+0x7647>
    80d6:	48 8d 3d b5 6a 01 00 	lea    rdi,[rip+0x16ab5]        # 1eb92 <realloc@@GLIBC_2.2.5+0x4c62>
    80dd:	ba 05 00 00 00       	mov    edx,0x5
    80e2:	4c 89 f6             	mov    rsi,r14
    80e5:	e8 e6 53 01 00       	call   1d4d0 <realloc@@GLIBC_2.2.5+0x35a0>
    80ea:	85 c0                	test   eax,eax
    80ec:	0f 85 65 fb ff ff    	jne    7c57 <free@plt+0x71a7>
    80f2:	e9 07 fe ff ff       	jmp    7efe <free@plt+0x744e>
    80f7:	49 83 fd 09          	cmp    r13,0x9
    80fb:	0f 85 56 fb ff ff    	jne    7c57 <free@plt+0x71a7>
    8101:	48 8d 3d 90 6a 01 00 	lea    rdi,[rip+0x16a90]        # 1eb98 <realloc@@GLIBC_2.2.5+0x4c68>
    8108:	ba 09 00 00 00       	mov    edx,0x9
    810d:	4c 89 f6             	mov    rsi,r14
    8110:	e8 bb 53 01 00       	call   1d4d0 <realloc@@GLIBC_2.2.5+0x35a0>
    8115:	85 c0                	test   eax,eax
    8117:	0f 85 3a fb ff ff    	jne    7c57 <free@plt+0x71a7>
    811d:	e9 dc fd ff ff       	jmp    7efe <free@plt+0x744e>
    8122:	0f 1f 40 00          	nop    DWORD PTR [rax+0x0]
    8126:	66 2e 0f 1f 84 00 00 	cs nop WORD PTR [rax+rax*1+0x0]
    812d:	00 00 00 
    8130:	41 57                	push   r15
    8132:	41 56                	push   r14
    8134:	41 55                	push   r13
    8136:	41 54                	push   r12
    8138:	55                   	push   rbp
    8139:	53                   	push   rbx
    813a:	48 83 ec 08          	sub    rsp,0x8
    813e:	48 8b 05 13 dc 21 00 	mov    rax,QWORD PTR [rip+0x21dc13]        # 225d58 <_rtld_global_ro@@GLIBC_PRIVATE+0xb8>
    8145:	48 8b 5a 08          	mov    rbx,QWORD PTR [rdx+0x8]
    8149:	48 85 c0             	test   rax,rax
    814c:	0f 85 d6 00 00 00    	jne    8228 <free@plt+0x7778>
    8152:	48 89 fd             	mov    rbp,rdi
    8155:	48 89 f7             	mov    rdi,rsi
    8158:	49 89 cd             	mov    r13,rcx
    815b:	49 89 d4             	mov    r12,rdx
    815e:	e8 0d 4c 01 00       	call   1cd70 <realloc@@GLIBC_2.2.5+0x2e40>
    8163:	48 85 c0             	test   rax,rax
    8166:	49 89 c6             	mov    r14,rax
    8169:	0f 84 4f 01 00 00    	je     82be <free@plt+0x780e>
    816f:	0f b6 00             	movzx  eax,BYTE PTR [rax]
    8172:	31 d2                	xor    edx,edx
    8174:	4c 89 f6             	mov    rsi,r14
    8177:	84 c0                	test   al,al
    8179:	0f 84 81 00 00 00    	je     8200 <free@plt+0x7750>
    817f:	90                   	nop
    8180:	3c 3a                	cmp    al,0x3a
    8182:	0f 94 c0             	sete   al
    8185:	48 83 c6 01          	add    rsi,0x1
    8189:	0f b6 c0             	movzx  eax,al
    818c:	48 01 c2             	add    rdx,rax
    818f:	0f b6 06             	movzx  eax,BYTE PTR [rsi]
    8192:	84 c0                	test   al,al
    8194:	75 ea                	jne    8180 <free@plt+0x76d0>
    8196:	48 8d 3c d5 10 00 00 	lea    rdi,[rdx*8+0x10]
    819d:	00 
    819e:	e8 dd 88 ff ff       	call   a80 <malloc@plt>
    81a3:	48 85 c0             	test   rax,rax
    81a6:	49 89 c7             	mov    r15,rax
    81a9:	0f 84 24 01 00 00    	je     82d3 <free@plt+0x7823>
    81af:	48 83 ec 08          	sub    rsp,0x8
    81b3:	48 8d 15 e6 74 01 00 	lea    rdx,[rip+0x174e6]        # 1f6a0 <realloc@@GLIBC_2.2.5+0x5770>
    81ba:	49 89 d9             	mov    r9,rbx
    81bd:	41 54                	push   r12
    81bf:	4d 89 e8             	mov    r8,r13
    81c2:	31 c9                	xor    ecx,ecx
    81c4:	48 89 c6             	mov    rsi,rax
    81c7:	4c 89 f7             	mov    rdi,r14
    81ca:	e8 91 f9 ff ff       	call   7b60 <free@plt+0x70b0>
    81cf:	4c 89 f7             	mov    rdi,r14
    81d2:	e8 d9 88 ff ff       	call   ab0 <free@plt>
    81d7:	4c 89 7d 00          	mov    QWORD PTR [rbp+0x0],r15
    81db:	c7 45 08 01 00 00 00 	mov    DWORD PTR [rbp+0x8],0x1
    81e2:	58                   	pop    rax
    81e3:	5a                   	pop    rdx
    81e4:	b8 01 00 00 00       	mov    eax,0x1
    81e9:	48 83 c4 08          	add    rsp,0x8
    81ed:	5b                   	pop    rbx
    81ee:	5d                   	pop    rbp
    81ef:	41 5c                	pop    r12
    81f1:	41 5d                	pop    r13
    81f3:	41 5e                	pop    r14
    81f5:	41 5f                	pop    r15
    81f7:	c3                   	ret
    81f8:	0f 1f 84 00 00 00 00 	nop    DWORD PTR [rax+rax*1+0x0]
    81ff:	00 
    8200:	4c 89 f7             	mov    rdi,r14
    8203:	e8 a8 88 ff ff       	call   ab0 <free@plt>
    8208:	48 c7 45 00 ff ff ff 	mov    QWORD PTR [rbp+0x0],0xffffffffffffffff
    820f:	ff 
    8210:	48 83 c4 08          	add    rsp,0x8
    8214:	31 c0                	xor    eax,eax
    8216:	5b                   	pop    rbx
    8217:	5d                   	pop    rbp
    8218:	41 5c                	pop    r12
    821a:	41 5d                	pop    r13
    821c:	41 5e                	pop    r14
    821e:	41 5f                	pop    r15
    8220:	c3                   	ret
    8221:	0f 1f 80 00 00 00 00 	nop    DWORD PTR [rax+0x0]
    8228:	44 8b 05 39 dc 21 00 	mov    r8d,DWORD PTR [rip+0x21dc39]        # 225e68 <__libc_enable_secure@@GLIBC_PRIVATE>
    822f:	45 85 c0             	test   r8d,r8d
    8232:	0f 85 1a ff ff ff    	jne    8152 <free@plt+0x76a2>
    8238:	44 0f b6 1b          	movzx  r11d,BYTE PTR [rbx]
    823c:	44 0f b6 08          	movzx  r9d,BYTE PTR [rax]
    8240:	45 38 d9             	cmp    r9b,r11b
    8243:	75 53                	jne    8298 <free@plt+0x77e8>
    8245:	45 84 db             	test   r11b,r11b
    8248:	74 66                	je     82b0 <free@plt+0x7800>
    824a:	49 89 da             	mov    r10,rbx
    824d:	eb 06                	jmp    8255 <free@plt+0x77a5>
    824f:	90                   	nop
    8250:	45 84 c9             	test   r9b,r9b
    8253:	74 5b                	je     82b0 <free@plt+0x7800>
    8255:	48 83 c0 01          	add    rax,0x1
    8259:	49 83 c2 01          	add    r10,0x1
    825d:	44 0f b6 08          	movzx  r9d,BYTE PTR [rax]
    8261:	45 0f b6 02          	movzx  r8d,BYTE PTR [r10]
    8265:	45 38 c1             	cmp    r9b,r8b
    8268:	74 e6                	je     8250 <free@plt+0x77a0>
    826a:	45 84 c0             	test   r8b,r8b
    826d:	74 2e                	je     829d <free@plt+0x77ed>
    826f:	90                   	nop
    8270:	44 0f b6 08          	movzx  r9d,BYTE PTR [rax]
    8274:	45 84 c9             	test   r9b,r9b
    8277:	0f 84 d5 fe ff ff    	je     8152 <free@plt+0x76a2>
    827d:	48 83 c0 01          	add    rax,0x1
    8281:	41 80 f9 3a          	cmp    r9b,0x3a
    8285:	75 e9                	jne    8270 <free@plt+0x77c0>
    8287:	44 0f b6 08          	movzx  r9d,BYTE PTR [rax]
    828b:	45 84 c9             	test   r9b,r9b
    828e:	75 b0                	jne    8240 <free@plt+0x7790>
    8290:	e9 bd fe ff ff       	jmp    8152 <free@plt+0x76a2>
    8295:	0f 1f 00             	nop    DWORD PTR [rax]
    8298:	45 89 d8             	mov    r8d,r11d
    829b:	eb cd                	jmp    826a <free@plt+0x77ba>
    829d:	45 84 c9             	test   r9b,r9b
    82a0:	74 0e                	je     82b0 <free@plt+0x7800>
    82a2:	41 80 f9 3a          	cmp    r9b,0x3a
    82a6:	75 c8                	jne    8270 <free@plt+0x77c0>
    82a8:	0f 1f 84 00 00 00 00 	nop    DWORD PTR [rax+rax*1+0x0]
    82af:	00 
    82b0:	48 c7 07 ff ff ff ff 	mov    QWORD PTR [rdi],0xffffffffffffffff
    82b7:	31 c0                	xor    eax,eax
    82b9:	e9 2b ff ff ff       	jmp    81e9 <free@plt+0x7739>
    82be:	48 8d 0d 6b 90 01 00 	lea    rcx,[rip+0x1906b]        # 21330 <realloc@@GLIBC_2.2.5+0x7400>
    82c5:	31 d2                	xor    edx,edx
    82c7:	31 f6                	xor    esi,esi
    82c9:	bf 0c 00 00 00       	mov    edi,0xc
    82ce:	e8 1d 7e 00 00       	call   100f0 <_dl_rtld_di_serinfo@@GLIBC_PRIVATE+0x6c70>
    82d3:	4c 89 f7             	mov    rdi,r14
    82d6:	e8 d5 87 ff ff       	call   ab0 <free@plt>
    82db:	48 8d 0d 26 90 01 00 	lea    rcx,[rip+0x19026]        # 21308 <realloc@@GLIBC_2.2.5+0x73d8>
    82e2:	eb e1                	jmp    82c5 <free@plt+0x7815>
    82e4:	66 90                	xchg   ax,ax
    82e6:	66 2e 0f 1f 84 00 00 	cs nop WORD PTR [rax+rax*1+0x0]
    82ed:	00 00 00 
    82f0:	55                   	push   rbp
    82f1:	48 8d 0d 28 db 21 00 	lea    rcx,[rip+0x21db28]        # 225e20 <_rtld_global_ro@@GLIBC_PRIVATE+0x180>
    82f8:	48 8d 15 29 db 21 00 	lea    rdx,[rip+0x21db29]        # 225e28 <_rtld_global_ro@@GLIBC_PRIVATE+0x188>
    82ff:	48 89 e5             	mov    rbp,rsp
    8302:	41 57                	push   r15
    8304:	41 56                	push   r14
    8306:	41 55                	push   r13
    8308:	41 54                	push   r12
    830a:	53                   	push   rbx
    830b:	48 89 fb             	mov    rbx,rdi
    830e:	48 83 ec 38          	sub    rsp,0x38
    8312:	48 8b 35 97 d9 21 00 	mov    rsi,QWORD PTR [rip+0x21d997]        # 225cb0 <_rtld_global_ro@@GLIBC_PRIVATE+0x10>
    8319:	48 8b 3d 88 d9 21 00 	mov    rdi,QWORD PTR [rip+0x21d988]        # 225ca8 <_rtld_global_ro@@GLIBC_PRIVATE+0x8>
    8320:	e8 cb 6c 00 00       	call   eff0 <_dl_rtld_di_serinfo@@GLIBC_PRIVATE+0x5b70>
    8325:	bf 28 00 00 00       	mov    edi,0x28
    832a:	48 89 05 ff da 21 00 	mov    QWORD PTR [rip+0x21daff],rax        # 225e30 <_rtld_global_ro@@GLIBC_PRIVATE+0x190>
    8331:	e8 4a 87 ff ff       	call   a80 <malloc@plt>
    8336:	48 85 c0             	test   rax,rax
    8339:	48 89 05 d0 da 21 00 	mov    QWORD PTR [rip+0x21dad0],rax        # 225e10 <_rtld_global_ro@@GLIBC_PRIVATE+0x170>
    8340:	0f 84 8c 04 00 00    	je     87d2 <free@plt+0x7d22>
    8346:	49 89 c7             	mov    r15,rax
    8349:	48 8b 05 d8 da 21 00 	mov    rax,QWORD PTR [rip+0x21dad8]        # 225e28 <_rtld_global_ro@@GLIBC_PRIVATE+0x188>
    8350:	48 ba cd cc cc cc cc 	movabs rdx,0xcccccccccccccccd
    8357:	cc cc cc 
    835a:	48 89 45 b8          	mov    QWORD PTR [rbp-0x48],rax
    835e:	48 c1 e0 02          	shl    rax,0x2
    8362:	4c 8d 60 4f          	lea    r12,[rax+0x4f]
    8366:	48 89 45 b0          	mov    QWORD PTR [rbp-0x50],rax
    836a:	4c 89 e0             	mov    rax,r12
    836d:	48 f7 e2             	mul    rdx
    8370:	48 c1 ea 05          	shr    rdx,0x5
    8374:	48 69 fa 50 0a 00 00 	imul   rdi,rdx,0xa50
    837b:	49 89 d4             	mov    r12,rdx
    837e:	e8 fd 86 ff ff       	call   a80 <malloc@plt>
    8383:	48 85 c0             	test   rax,rax
    8386:	49 89 07             	mov    QWORD PTR [r15],rax
    8389:	0f 84 58 04 00 00    	je     87e7 <free@plt+0x7d37>
    838f:	48 8d 35 24 76 01 00 	lea    rsi,[rip+0x17624]        # 1f9ba <realloc@@GLIBC_2.2.5+0x5a8a>
    8396:	4f 8d 24 a4          	lea    r12,[r12+r12*4]
    839a:	48 8d 3d bf 67 01 00 	lea    rdi,[rip+0x167bf]        # 1eb60 <realloc@@GLIBC_2.2.5+0x4c30>
    83a1:	4c 8d 68 28          	lea    r13,[rax+0x28]
    83a5:	48 83 7d b8 00       	cmp    QWORD PTR [rbp-0x48],0x0
    83aa:	48 89 05 17 e6 21 00 	mov    QWORD PTR [rip+0x21e617],rax        # 2269c8 <_rtld_global@@GLIBC_PRIVATE+0x988>
    83b1:	48 89 70 08          	mov    QWORD PTR [rax+0x8],rsi
    83b5:	4a 8d 34 e5 00 00 00 	lea    rsi,[r12*8+0x0]
    83bc:	00 
    83bd:	48 c7 40 10 00 00 00 	mov    QWORD PTR [rax+0x10],0x0
    83c4:	00 
    83c5:	48 89 78 18          	mov    QWORD PTR [rax+0x18],rdi
    83c9:	48 c7 40 20 16 00 00 	mov    QWORD PTR [rax+0x20],0x16
    83d0:	00 
    83d1:	4d 89 fe             	mov    r14,r15
    83d4:	4c 8d 44 30 08       	lea    r8,[rax+rsi*1+0x8]
    83d9:	49 8d 45 d8          	lea    rax,[r13-0x28]
    83dd:	c7 05 31 da 21 00 00 	mov    DWORD PTR [rip+0x21da31],0x0        # 225e18 <_rtld_global_ro@@GLIBC_PRIVATE+0x178>
    83e4:	00 00 00 
    83e7:	48 89 75 a8          	mov    QWORD PTR [rbp-0x58],rsi
    83eb:	4c 8d 25 4e 67 01 00 	lea    r12,[rip+0x1674e]        # 1eb40 <realloc@@GLIBC_2.2.5+0x4c10>
    83f2:	4c 8d 3d 7e 67 01 00 	lea    r15,[rip+0x1677e]        # 1eb77 <realloc@@GLIBC_2.2.5+0x4c47>
    83f9:	48 89 45 c0          	mov    QWORD PTR [rbp-0x40],rax
    83fd:	74 16                	je     8415 <free@plt+0x7965>
    83ff:	48 8b 55 b0          	mov    rdx,QWORD PTR [rbp-0x50]
    8403:	31 f6                	xor    esi,esi
    8405:	4c 89 ef             	mov    rdi,r13
    8408:	4c 89 45 c8          	mov    QWORD PTR [rbp-0x38],r8
    840c:	e8 1f 56 01 00       	call   1da30 <realloc@@GLIBC_2.2.5+0x3b00>
    8411:	4c 8b 45 c8          	mov    r8,QWORD PTR [rbp-0x38]
    8415:	48 8d 05 3c 67 01 00 	lea    rax,[rip+0x1673c]        # 1eb58 <realloc@@GLIBC_2.2.5+0x4c28>
    841c:	4c 39 e0             	cmp    rax,r12
    841f:	74 6f                	je     8490 <free@plt+0x79e0>
    8421:	49 8d 40 f8          	lea    rax,[r8-0x8]
    8425:	48 8b 4d a8          	mov    rcx,QWORD PTR [rbp-0x58]
    8429:	49 83 c6 08          	add    r14,0x8
    842d:	49 83 c4 08          	add    r12,0x8
    8431:	49 89 45 d8          	mov    QWORD PTR [r13-0x28],rax
    8435:	49 89 06             	mov    QWORD PTR [r14],rax
    8438:	48 8d 05 7b 75 01 00 	lea    rax,[rip+0x1757b]        # 1f9ba <realloc@@GLIBC_2.2.5+0x5a8a>
    843f:	49 c7 40 08 00 00 00 	mov    QWORD PTR [r8+0x8],0x0
    8446:	00 
    8447:	4d 89 78 10          	mov    QWORD PTR [r8+0x10],r15
    844b:	49 01 cd             	add    r13,rcx
    844e:	49 89 00             	mov    QWORD PTR [r8],rax
    8451:	49 8b 04 24          	mov    rax,QWORD PTR [r12]
    8455:	49 89 40 18          	mov    QWORD PTR [r8+0x18],rax
    8459:	49 01 c8             	add    r8,rcx
    845c:	41 80 3f 2f          	cmp    BYTE PTR [r15],0x2f
    8460:	49 8d 44 07 01       	lea    rax,[r15+rax*1+0x1]
    8465:	0f 85 48 03 00 00    	jne    87b3 <free@plt+0x7d03>
    846b:	48 83 7d b8 00       	cmp    QWORD PTR [rbp-0x48],0x0
    8470:	49 89 c7             	mov    r15,rax
    8473:	49 8d 45 d8          	lea    rax,[r13-0x28]
    8477:	48 89 45 c0          	mov    QWORD PTR [rbp-0x40],rax
    847b:	75 82                	jne    83ff <free@plt+0x794f>
    847d:	48 8d 05 d4 66 01 00 	lea    rax,[rip+0x166d4]        # 1eb58 <realloc@@GLIBC_2.2.5+0x4c28>
    8484:	4c 39 e0             	cmp    rax,r12
    8487:	75 98                	jne    8421 <free@plt+0x7971>
    8489:	0f 1f 80 00 00 00 00 	nop    DWORD PTR [rax+0x0]
    8490:	49 c7 46 08 00 00 00 	mov    QWORD PTR [r14+0x8],0x0
    8497:	00 
    8498:	4c 8b 35 a1 db 21 00 	mov    r14,QWORD PTR [rip+0x21dba1]        # 226040 <_rtld_global@@GLIBC_PRIVATE>
    849f:	48 8b 45 c0          	mov    rax,QWORD PTR [rbp-0x40]
    84a3:	48 c7 05 92 eb 21 00 	mov    QWORD PTR [rip+0x21eb92],0x1a        # 227040 <_rtld_global@@GLIBC_PRIVATE+0x1000>
    84aa:	1a 00 00 00 
    84ae:	4d 85 f6             	test   r14,r14
    84b1:	48 c7 00 00 00 00 00 	mov    QWORD PTR [rax],0x0
    84b8:	74 5b                	je     8515 <free@plt+0x7a65>
    84ba:	41 0f b6 86 14 03 00 	movzx  eax,BYTE PTR [r14+0x314]
    84c1:	00 
    84c2:	83 e0 03             	and    eax,0x3
    84c5:	3c 02                	cmp    al,0x2
    84c7:	0f 84 23 03 00 00    	je     87f0 <free@plt+0x7d40>
    84cd:	49 8b 86 28 01 00 00 	mov    rax,QWORD PTR [r14+0x128]
    84d4:	48 85 c0             	test   rax,rax
    84d7:	0f 84 53 01 00 00    	je     8630 <free@plt+0x7b80>
    84dd:	49 8b 56 68          	mov    rdx,QWORD PTR [r14+0x68]
    84e1:	48 8b 70 08          	mov    rsi,QWORD PTR [rax+0x8]
    84e5:	49 8d be a8 03 00 00 	lea    rdi,[r14+0x3a8]
    84ec:	48 8d 0d 0a 75 01 00 	lea    rcx,[rip+0x1750a]        # 1f9fd <realloc@@GLIBC_2.2.5+0x5acd>
    84f3:	48 03 72 08          	add    rsi,QWORD PTR [rdx+0x8]
    84f7:	4c 89 f2             	mov    rdx,r14
    84fa:	e8 31 fc ff ff       	call   8130 <free@plt+0x7680>
    84ff:	41 c7 86 b0 03 00 00 	mov    DWORD PTR [r14+0x3b0],0x0
    8506:	00 00 00 00 
    850a:	49 c7 86 18 03 00 00 	mov    QWORD PTR [r14+0x318],0xffffffffffffffff
    8511:	ff ff ff ff 
    8515:	48 85 db             	test   rbx,rbx
    8518:	0f 84 f2 00 00 00    	je     8610 <free@plt+0x7b60>
    851e:	44 0f b6 23          	movzx  r12d,BYTE PTR [rbx]
    8522:	45 84 e4             	test   r12b,r12b
    8525:	0f 84 e5 00 00 00    	je     8610 <free@plt+0x7b60>
    852b:	be 24 00 00 00       	mov    esi,0x24
    8530:	48 89 df             	mov    rdi,rbx
    8533:	e8 d8 31 01 00       	call   1b710 <realloc@@GLIBC_2.2.5+0x17e0>
    8538:	48 85 c0             	test   rax,rax
    853b:	0f 85 4f 01 00 00    	jne    8690 <free@plt+0x7be0>
    8541:	48 89 df             	mov    rdi,rbx
    8544:	e8 77 48 01 00       	call   1cdc0 <realloc@@GLIBC_2.2.5+0x2e90>
    8549:	48 8d 50 01          	lea    rdx,[rax+0x1]
    854d:	48 83 c0 1f          	add    rax,0x1f
    8551:	48 89 de             	mov    rsi,rbx
    8554:	48 83 e0 f0          	and    rax,0xfffffffffffffff0
    8558:	48 29 c4             	sub    rsp,rax
    855b:	48 8d 7c 24 0f       	lea    rdi,[rsp+0xf]
    8560:	48 83 e7 f0          	and    rdi,0xfffffffffffffff0
    8564:	e8 e7 57 01 00       	call   1dd50 <realloc@@GLIBC_2.2.5+0x3e20>
    8569:	49 89 c5             	mov    r13,rax
    856c:	b8 01 00 00 00       	mov    eax,0x1
    8571:	0f 1f 80 00 00 00 00 	nop    DWORD PTR [rax+0x0]
    8578:	41 83 ec 3a          	sub    r12d,0x3a
    857c:	31 d2                	xor    edx,edx
    857e:	41 80 fc 02          	cmp    r12b,0x2
    8582:	0f 92 c2             	setb   dl
    8585:	48 83 c3 01          	add    rbx,0x1
    8589:	44 0f b6 23          	movzx  r12d,BYTE PTR [rbx]
    858d:	48 01 d0             	add    rax,rdx
    8590:	45 84 e4             	test   r12b,r12b
    8593:	75 e3                	jne    8578 <free@plt+0x7ac8>
    8595:	48 8d 3c c5 08 00 00 	lea    rdi,[rax*8+0x8]
    859c:	00 
    859d:	e8 de 84 ff ff       	call   a80 <malloc@plt>
    85a2:	48 85 c0             	test   rax,rax
    85a5:	48 89 05 94 d8 21 00 	mov    QWORD PTR [rip+0x21d894],rax        # 225e40 <_rtld_global_ro@@GLIBC_PRIVATE+0x1a0>
    85ac:	0f 84 35 02 00 00    	je     87e7 <free@plt+0x7d37>
    85b2:	48 83 ec 08          	sub    rsp,0x8
    85b6:	8b 0d ac d8 21 00    	mov    ecx,DWORD PTR [rip+0x21d8ac]        # 225e68 <__libc_enable_secure@@GLIBC_PRIVATE>
    85bc:	48 8d 15 58 74 01 00 	lea    rdx,[rip+0x17458]        # 1fa1b <realloc@@GLIBC_2.2.5+0x5aeb>
    85c3:	41 56                	push   r14
    85c5:	4c 8d 05 3f 74 01 00 	lea    r8,[rip+0x1743f]        # 1fa0b <realloc@@GLIBC_2.2.5+0x5adb>
    85cc:	45 31 c9             	xor    r9d,r9d
    85cf:	4c 89 ef             	mov    rdi,r13
    85d2:	48 89 c6             	mov    rsi,rax
    85d5:	e8 86 f5 ff ff       	call   7b60 <free@plt+0x70b0>
    85da:	48 8b 3d 5f d8 21 00 	mov    rdi,QWORD PTR [rip+0x21d85f]        # 225e40 <_rtld_global_ro@@GLIBC_PRIVATE+0x1a0>
    85e1:	58                   	pop    rax
    85e2:	5a                   	pop    rdx
    85e3:	48 83 3f 00          	cmp    QWORD PTR [rdi],0x0
    85e7:	0f 84 53 01 00 00    	je     8740 <free@plt+0x7c90>
    85ed:	c7 05 51 d8 21 00 00 	mov    DWORD PTR [rip+0x21d851],0x0        # 225e48 <_rtld_global_ro@@GLIBC_PRIVATE+0x1a8>
    85f4:	00 00 00 
    85f7:	48 8d 65 d8          	lea    rsp,[rbp-0x28]
    85fb:	5b                   	pop    rbx
    85fc:	41 5c                	pop    r12
    85fe:	41 5d                	pop    r13
    8600:	41 5e                	pop    r14
    8602:	41 5f                	pop    r15
    8604:	5d                   	pop    rbp
    8605:	c3                   	ret
    8606:	66 2e 0f 1f 84 00 00 	cs nop WORD PTR [rax+rax*1+0x0]
    860d:	00 00 00 
    8610:	48 c7 05 25 d8 21 00 	mov    QWORD PTR [rip+0x21d825],0xffffffffffffffff        # 225e40 <_rtld_global_ro@@GLIBC_PRIVATE+0x1a0>
    8617:	ff ff ff ff 
    861b:	48 8d 65 d8          	lea    rsp,[rbp-0x28]
    861f:	5b                   	pop    rbx
    8620:	41 5c                	pop    r12
    8622:	41 5d                	pop    r13
    8624:	41 5e                	pop    r14
    8626:	41 5f                	pop    r15
    8628:	5d                   	pop    rbp
    8629:	c3                   	ret
    862a:	66 0f 1f 44 00 00    	nop    WORD PTR [rax+rax*1+0x0]
    8630:	49 8b 86 b8 00 00 00 	mov    rax,QWORD PTR [r14+0xb8]
    8637:	49 c7 86 a8 03 00 00 	mov    QWORD PTR [r14+0x3a8],0xffffffffffffffff
    863e:	ff ff ff ff 
    8642:	48 85 c0             	test   rax,rax
    8645:	74 39                	je     8680 <free@plt+0x7bd0>
    8647:	49 8b 56 68          	mov    rdx,QWORD PTR [r14+0x68]
    864b:	48 8b 70 08          	mov    rsi,QWORD PTR [rax+0x8]
    864f:	49 8d be 18 03 00 00 	lea    rdi,[r14+0x318]
    8656:	48 8d 0d a8 73 01 00 	lea    rcx,[rip+0x173a8]        # 1fa05 <realloc@@GLIBC_2.2.5+0x5ad5>
    865d:	48 03 72 08          	add    rsi,QWORD PTR [rdx+0x8]
    8661:	4c 89 f2             	mov    rdx,r14
    8664:	e8 c7 fa ff ff       	call   8130 <free@plt+0x7680>
    8669:	41 c7 86 20 03 00 00 	mov    DWORD PTR [r14+0x320],0x0
    8670:	00 00 00 00 
    8674:	e9 9c fe ff ff       	jmp    8515 <free@plt+0x7a65>
    8679:	0f 1f 80 00 00 00 00 	nop    DWORD PTR [rax+0x0]
    8680:	49 c7 86 18 03 00 00 	mov    QWORD PTR [r14+0x318],0xffffffffffffffff
    8687:	ff ff ff ff 
    868b:	e9 85 fe ff ff       	jmp    8515 <free@plt+0x7a65>
    8690:	be 01 00 00 00       	mov    esi,0x1
    8695:	48 89 c7             	mov    rdi,rax
    8698:	e8 a3 f0 ff ff       	call   7740 <free@plt+0x6c90>
    869d:	48 85 c0             	test   rax,rax
    86a0:	49 89 c5             	mov    r13,rax
    86a3:	0f 84 98 fe ff ff    	je     8541 <free@plt+0x7a91>
    86a9:	48 89 df             	mov    rdi,rbx
    86ac:	e8 0f 47 01 00       	call   1cdc0 <realloc@@GLIBC_2.2.5+0x2e90>
    86b1:	49 8b be 38 03 00 00 	mov    rdi,QWORD PTR [r14+0x338]
    86b8:	49 89 c4             	mov    r12,rax
    86bb:	48 85 ff             	test   rdi,rdi
    86be:	0f 84 98 00 00 00    	je     875c <free@plt+0x7cac>
    86c4:	48 83 ff ff          	cmp    rdi,0xffffffffffffffff
    86c8:	0f 84 87 00 00 00    	je     8755 <free@plt+0x7ca5>
    86ce:	e8 ed 46 01 00       	call   1cdc0 <realloc@@GLIBC_2.2.5+0x2e90>
    86d3:	48 83 3d d5 d5 21 00 	cmp    QWORD PTR [rip+0x21d5d5],0x14        # 225cb0 <_rtld_global_ro@@GLIBC_PRIVATE+0x10>
    86da:	14 
    86db:	ba 14 00 00 00       	mov    edx,0x14
    86e0:	4c 89 f7             	mov    rdi,r14
    86e3:	48 0f 43 15 c5 d5 21 	cmovae rdx,QWORD PTR [rip+0x21d5c5]        # 225cb0 <_rtld_global_ro@@GLIBC_PRIVATE+0x10>
    86ea:	00 
    86eb:	b9 01 00 00 00       	mov    ecx,0x1
    86f0:	48 89 de             	mov    rsi,rbx
    86f3:	48 39 c2             	cmp    rdx,rax
    86f6:	48 0f 43 c2          	cmovae rax,rdx
    86fa:	48 83 e8 04          	sub    rax,0x4
    86fe:	4c 0f af e8          	imul   r13,rax
    8702:	4b 8d 44 25 1f       	lea    rax,[r13+r12*1+0x1f]
    8707:	48 83 e0 f0          	and    rax,0xfffffffffffffff0
    870b:	48 29 c4             	sub    rsp,rax
    870e:	48 8d 54 24 0f       	lea    rdx,[rsp+0xf]
    8713:	48 83 e2 f0          	and    rdx,0xfffffffffffffff0
    8717:	e8 b4 f1 ff ff       	call   78d0 <free@plt+0x6e20>
    871c:	44 0f b6 23          	movzx  r12d,BYTE PTR [rbx]
    8720:	49 89 c5             	mov    r13,rax
    8723:	bf 10 00 00 00       	mov    edi,0x10
    8728:	45 84 e4             	test   r12b,r12b
    872b:	0f 84 6c fe ff ff    	je     859d <free@plt+0x7aed>
    8731:	e9 36 fe ff ff       	jmp    856c <free@plt+0x7abc>
    8736:	66 2e 0f 1f 84 00 00 	cs nop WORD PTR [rax+rax*1+0x0]
    873d:	00 00 00 
    8740:	e8 6b 83 ff ff       	call   ab0 <free@plt>
    8745:	48 c7 05 f0 d6 21 00 	mov    QWORD PTR [rip+0x21d6f0],0xffffffffffffffff        # 225e40 <_rtld_global_ro@@GLIBC_PRIVATE+0x1a0>
    874c:	ff ff ff ff 
    8750:	e9 98 fe ff ff       	jmp    85ed <free@plt+0x7b3d>
    8755:	31 c0                	xor    eax,eax
    8757:	e9 77 ff ff ff       	jmp    86d3 <free@plt+0x7c23>
    875c:	49 8b 46 08          	mov    rax,QWORD PTR [r14+0x8]
    8760:	80 38 00             	cmp    BYTE PTR [rax],0x0
    8763:	74 0c                	je     8771 <free@plt+0x7cc1>
    8765:	48 8d 05 6c e2 21 00 	lea    rax,[rip+0x21e26c]        # 2269d8 <_rtld_global@@GLIBC_PRIVATE+0x998>
    876c:	49 39 c6             	cmp    r14,rax
    876f:	75 23                	jne    8794 <free@plt+0x7ce4>
    8771:	e8 0a b5 00 00       	call   13c80 <__tls_get_addr@@GLIBC_2.3+0x1a0>
    8776:	48 8d 50 ff          	lea    rdx,[rax-0x1]
    877a:	49 89 86 38 03 00 00 	mov    QWORD PTR [r14+0x338],rax
    8781:	48 83 fa fd          	cmp    rdx,0xfffffffffffffffd
    8785:	77 ce                	ja     8755 <free@plt+0x7ca5>
    8787:	48 89 c7             	mov    rdi,rax
    878a:	e8 31 46 01 00       	call   1cdc0 <realloc@@GLIBC_2.2.5+0x2e90>
    878f:	e9 3f ff ff ff       	jmp    86d3 <free@plt+0x7c23>
    8794:	48 8d 0d bd 8c 01 00 	lea    rcx,[rip+0x18cbd]        # 21458 <realloc@@GLIBC_2.2.5+0x7528>
    879b:	48 8d 35 c2 71 01 00 	lea    rsi,[rip+0x171c2]        # 1f964 <realloc@@GLIBC_2.2.5+0x5a34>
    87a2:	48 8d 3d 37 8b 01 00 	lea    rdi,[rip+0x18b37]        # 212e0 <realloc@@GLIBC_2.2.5+0x73b0>
    87a9:	ba 17 03 00 00       	mov    edx,0x317
    87ae:	e8 2d 17 01 00       	call   19ee0 <free@@GLIBC_2.2.5+0x160>
    87b3:	48 8d 0d 9e 8c 01 00 	lea    rcx,[rip+0x18c9e]        # 21458 <realloc@@GLIBC_2.2.5+0x7528>
    87ba:	48 8d 35 a3 71 01 00 	lea    rsi,[rip+0x171a3]        # 1f964 <realloc@@GLIBC_2.2.5+0x5a34>
    87c1:	48 8d 3d 05 72 01 00 	lea    rdi,[rip+0x17205]        # 1f9cd <realloc@@GLIBC_2.2.5+0x5a9d>
    87c8:	ba cf 02 00 00       	mov    edx,0x2cf
    87cd:	e8 0e 17 01 00       	call   19ee0 <free@@GLIBC_2.2.5+0x160>
    87d2:	48 8d 0d 7f 8b 01 00 	lea    rcx,[rip+0x18b7f]        # 21358 <realloc@@GLIBC_2.2.5+0x7428>
    87d9:	31 d2                	xor    edx,edx
    87db:	31 f6                	xor    esi,esi
    87dd:	bf 0c 00 00 00       	mov    edi,0xc
    87e2:	e8 09 79 00 00       	call   100f0 <_dl_rtld_di_serinfo@@GLIBC_PRIVATE+0x6c70>
    87e7:	48 8d 0d 1a 8b 01 00 	lea    rcx,[rip+0x18b1a]        # 21308 <realloc@@GLIBC_2.2.5+0x73d8>
    87ee:	eb e9                	jmp    87d9 <free@plt+0x7d29>
    87f0:	48 8d 0d 61 8c 01 00 	lea    rcx,[rip+0x18c61]        # 21458 <realloc@@GLIBC_2.2.5+0x7528>
    87f7:	48 8d 35 66 71 01 00 	lea    rsi,[rip+0x17166]        # 1f964 <realloc@@GLIBC_2.2.5+0x5a34>
    87fe:	48 8d 3d e1 71 01 00 	lea    rdi,[rip+0x171e1]        # 1f9e6 <realloc@@GLIBC_2.2.5+0x5ab6>
    8805:	ba e1 02 00 00       	mov    edx,0x2e1
    880a:	e8 d1 16 01 00       	call   19ee0 <free@@GLIBC_2.2.5+0x160>
    880f:	90                   	nop
    8810:	41 57                	push   r15
    8812:	41 56                	push   r14
    8814:	41 55                	push   r13
    8816:	41 54                	push   r12
    8818:	55                   	push   rbp
    8819:	53                   	push   rbx
    881a:	48 81 ec c8 03 00 00 	sub    rsp,0x3c8
    8821:	4d 85 c9             	test   r9,r9
    8824:	89 54 24 04          	mov    DWORD PTR [rsp+0x4],edx
    8828:	89 4c 24 38          	mov    DWORD PTR [rsp+0x38],ecx
    882c:	0f 88 67 0b 00 00    	js     9399 <free@plt+0x88e9>
    8832:	4c 39 0d 07 e1 21 00 	cmp    QWORD PTR [rip+0x21e107],r9        # 226940 <_rtld_global@@GLIBC_PRIVATE+0x900>
    8839:	4c 89 cd             	mov    rbp,r9
    883c:	4c 8d 35 fd d7 21 00 	lea    r14,[rip+0x21d7fd]        # 226040 <_rtld_global@@GLIBC_PRIVATE>
    8843:	0f 86 8d 0b 00 00    	jbe    93d6 <free@plt+0x8926>
    8849:	4b 8d 04 c9          	lea    rax,[r9+r9*8]
    884d:	49 89 fc             	mov    r12,rdi
    8850:	48 89 f3             	mov    rbx,rsi
    8853:	45 89 c5             	mov    r13d,r8d
    8856:	48 c1 e0 04          	shl    rax,0x4
    885a:	4d 8b 3c 06          	mov    r15,QWORD PTR [r14+rax*1]
    885e:	4d 85 ff             	test   r15,r15
    8861:	75 1a                	jne    887d <free@plt+0x7dcd>
    8863:	e9 c0 00 00 00       	jmp    8928 <free@plt+0x7e78>
    8868:	0f 1f 84 00 00 00 00 	nop    DWORD PTR [rax+rax*1+0x0]
    886f:	00 
    8870:	4d 8b 7f 18          	mov    r15,QWORD PTR [r15+0x18]
    8874:	4d 85 ff             	test   r15,r15
    8877:	0f 84 ab 00 00 00    	je     8928 <free@plt+0x7e78>
    887d:	41 0f b6 87 15 03 00 	movzx  eax,BYTE PTR [r15+0x315]
    8884:	00 
    8885:	89 c2                	mov    edx,eax
    8887:	c0 e8 05             	shr    al,0x5
    888a:	d0 ea                	shr    dl,1
    888c:	09 d0                	or     eax,edx
    888e:	a8 01                	test   al,0x1
    8890:	75 de                	jne    8870 <free@plt+0x7dc0>
    8892:	4c 89 fe             	mov    rsi,r15
    8895:	48 89 df             	mov    rdi,rbx
    8898:	e8 13 8f 00 00       	call   117b0 <_dl_debug_state@@GLIBC_PRIVATE+0x920>
    889d:	85 c0                	test   eax,eax
    889f:	0f 85 bb 01 00 00    	jne    8a60 <free@plt+0x7fb0>
    88a5:	41 f6 87 15 03 00 00 	test   BYTE PTR [r15+0x315],0x1
    88ac:	01 
    88ad:	75 c1                	jne    8870 <free@plt+0x7dc0>
    88af:	49 8b 87 b0 00 00 00 	mov    rax,QWORD PTR [r15+0xb0]
    88b6:	48 85 c0             	test   rax,rax
    88b9:	74 b5                	je     8870 <free@plt+0x7dc0>
    88bb:	49 8b 57 68          	mov    rdx,QWORD PTR [r15+0x68]
    88bf:	48 8b 70 08          	mov    rsi,QWORD PTR [rax+0x8]
    88c3:	48 89 df             	mov    rdi,rbx
    88c6:	48 03 72 08          	add    rsi,QWORD PTR [rdx+0x8]
    88ca:	e8 61 30 01 00       	call   1b930 <realloc@@GLIBC_2.2.5+0x1a00>
    88cf:	85 c0                	test   eax,eax
    88d1:	75 9d                	jne    8870 <free@plt+0x7dc0>
    88d3:	49 8b 6f 38          	mov    rbp,QWORD PTR [r15+0x38]
    88d7:	48 85 ed             	test   rbp,rbp
    88da:	75 1c                	jne    88f8 <free@plt+0x7e48>
    88dc:	e9 95 08 00 00       	jmp    9176 <free@plt+0x86c6>
    88e1:	0f 1f 80 00 00 00 00 	nop    DWORD PTR [rax+0x0]
    88e8:	48 8b 45 08          	mov    rax,QWORD PTR [rbp+0x8]
    88ec:	48 85 c0             	test   rax,rax
    88ef:	0f 84 73 01 00 00    	je     8a68 <free@plt+0x7fb8>
    88f5:	48 89 c5             	mov    rbp,rax
    88f8:	48 8b 75 00          	mov    rsi,QWORD PTR [rbp+0x0]
    88fc:	48 89 df             	mov    rdi,rbx
    88ff:	e8 2c 30 01 00       	call   1b930 <realloc@@GLIBC_2.2.5+0x1a00>
    8904:	85 c0                	test   eax,eax
    8906:	75 e0                	jne    88e8 <free@plt+0x7e38>
    8908:	41 80 8f 15 03 00 00 	or     BYTE PTR [r15+0x315],0x1
    890f:	01 
    8910:	4c 89 f8             	mov    rax,r15
    8913:	48 81 c4 c8 03 00 00 	add    rsp,0x3c8
    891a:	5b                   	pop    rbx
    891b:	5d                   	pop    rbp
    891c:	41 5c                	pop    r12
    891e:	41 5d                	pop    r13
    8920:	41 5e                	pop    r14
    8922:	41 5f                	pop    r15
    8924:	c3                   	ret
    8925:	0f 1f 00             	nop    DWORD PTR [rax]
    8928:	4d 85 e4             	test   r12,r12
    892b:	0f 95 44 24 08       	setne  BYTE PTR [rsp+0x8]
    8930:	f6 05 69 d3 21 00 40 	test   BYTE PTR [rip+0x21d369],0x40        # 225ca0 <_rtld_global_ro@@GLIBC_PRIVATE>
    8937:	0f b6 44 24 08       	movzx  eax,BYTE PTR [rsp+0x8]
    893c:	74 3d                	je     897b <free@plt+0x7ecb>
    893e:	84 c0                	test   al,al
    8940:	74 39                	je     897b <free@plt+0x7ecb>
    8942:	49 8b 4c 24 08       	mov    rcx,QWORD PTR [r12+0x8]
    8947:	4d 8b 44 24 30       	mov    r8,QWORD PTR [r12+0x30]
    894c:	80 39 00             	cmp    BYTE PTR [rcx],0x0
    894f:	0f 84 77 03 00 00    	je     8ccc <free@plt+0x821c>
    8955:	48 8d 05 44 8a 01 00 	lea    rax,[rip+0x18a44]        # 213a0 <realloc@@GLIBC_2.2.5+0x7470>
    895c:	48 8d 3d 15 8a 01 00 	lea    rdi,[rip+0x18a15]        # 21378 <realloc@@GLIBC_2.2.5+0x7448>
    8963:	41 f7 c5 00 00 00 10 	test   r13d,0x10000000
    896a:	48 89 ea             	mov    rdx,rbp
    896d:	48 89 de             	mov    rsi,rbx
    8970:	48 0f 45 f8          	cmovne rdi,rax
    8974:	31 c0                	xor    eax,eax
    8976:	e8 35 8c 00 00       	call   115b0 <_dl_debug_state@@GLIBC_PRIVATE+0x720>
    897b:	8b 15 87 d4 21 00    	mov    edx,DWORD PTR [rip+0x21d487]        # 225e08 <_rtld_global_ro@@GLIBC_PRIVATE+0x168>
    8981:	48 c7 44 24 10 00 00 	mov    QWORD PTR [rsp+0x10],0x0
    8988:	00 00 
    898a:	85 d2                	test   edx,edx
    898c:	0f 85 4e 04 00 00    	jne    8de0 <free@plt+0x8330>
    8992:	be 2f 00 00 00       	mov    esi,0x2f
    8997:	48 89 df             	mov    rdi,rbx
    899a:	c6 44 24 5f 00       	mov    BYTE PTR [rsp+0x5f],0x0
    899f:	e8 6c 2d 01 00       	call   1b710 <realloc@@GLIBC_2.2.5+0x17e0>
    89a4:	48 85 c0             	test   rax,rax
    89a7:	0f 84 b2 01 00 00    	je     8b5f <free@plt+0x80af>
    89ad:	4d 85 e4             	test   r12,r12
    89b0:	0f 84 d0 02 00 00    	je     8c86 <free@plt+0x81d6>
    89b6:	be 24 00 00 00       	mov    esi,0x24
    89bb:	48 89 df             	mov    rdi,rbx
    89be:	e8 4d 2d 01 00       	call   1b710 <realloc@@GLIBC_2.2.5+0x17e0>
    89c3:	48 85 c0             	test   rax,rax
    89c6:	0f 85 de 04 00 00    	jne    8eaa <free@plt+0x83fa>
    89cc:	48 89 df             	mov    rdi,rbx
    89cf:	e8 9c 43 01 00       	call   1cd70 <realloc@@GLIBC_2.2.5+0x2e40>
    89d4:	48 85 c0             	test   rax,rax
    89d7:	48 89 44 24 60       	mov    QWORD PTR [rsp+0x60],rax
    89dc:	0f 84 e1 00 00 00    	je     8ac3 <free@plt+0x8013>
    89e2:	4c 89 e2             	mov    rdx,r12
    89e5:	4c 8d 7c 24 70       	lea    r15,[rsp+0x70]
    89ea:	48 83 ec 08          	sub    rsp,0x8
    89ee:	31 c9                	xor    ecx,ecx
    89f0:	6a 01                	push   0x1
    89f2:	45 89 e8             	mov    r8d,r13d
    89f5:	48 89 c7             	mov    rdi,rax
    89f8:	4c 89 fe             	mov    rsi,r15
    89fb:	4c 8d 4c 24 6f       	lea    r9,[rsp+0x6f]
    8a00:	e8 3b cb ff ff       	call   5540 <free@plt+0x4a90>
    8a05:	83 f8 ff             	cmp    eax,0xffffffff
    8a08:	89 c2                	mov    edx,eax
    8a0a:	59                   	pop    rcx
    8a0b:	5e                   	pop    rsi
    8a0c:	0f 84 89 04 00 00    	je     8e9b <free@plt+0x83eb>
    8a12:	41 f7 c5 00 00 00 10 	test   r13d,0x10000000
    8a19:	b8 00 00 00 00       	mov    eax,0x0
    8a1e:	4c 0f 45 e0          	cmovne r12,rax
    8a22:	48 8b 05 37 d4 21 00 	mov    rax,QWORD PTR [rip+0x21d437]        # 225e60 <__libc_stack_end@@GLIBC_2.2.5>
    8a29:	4d 89 e1             	mov    r9,r12
    8a2c:	4c 89 f9             	mov    rcx,r15
    8a2f:	48 89 df             	mov    rdi,rbx
    8a32:	48 89 44 24 68       	mov    QWORD PTR [rsp+0x68],rax
    8a37:	55                   	push   rbp
    8a38:	48 8d 44 24 70       	lea    rax,[rsp+0x70]
    8a3d:	50                   	push   rax
    8a3e:	41 55                	push   r13
    8a40:	8b 44 24 1c          	mov    eax,DWORD PTR [rsp+0x1c]
    8a44:	50                   	push   rax
    8a45:	4c 8b 84 24 80 00 00 	mov    r8,QWORD PTR [rsp+0x80]
    8a4c:	00 
    8a4d:	48 8b 74 24 30       	mov    rsi,QWORD PTR [rsp+0x30]
    8a52:	e8 09 d7 ff ff       	call   6160 <free@plt+0x56b0>
    8a57:	48 83 c4 20          	add    rsp,0x20
    8a5b:	e9 b3 fe ff ff       	jmp    8913 <free@plt+0x7e63>
    8a60:	4c 89 f8             	mov    rax,r15
    8a63:	e9 ab fe ff ff       	jmp    8913 <free@plt+0x7e63>
    8a68:	48 89 df             	mov    rdi,rbx
    8a6b:	e8 50 43 01 00       	call   1cdc0 <realloc@@GLIBC_2.2.5+0x2e90>
    8a70:	48 8d 78 19          	lea    rdi,[rax+0x19]
    8a74:	4c 8d 68 01          	lea    r13,[rax+0x1]
    8a78:	e8 03 80 ff ff       	call   a80 <malloc@plt>
    8a7d:	48 85 c0             	test   rax,rax
    8a80:	49 89 c4             	mov    r12,rax
    8a83:	0f 84 d7 06 00 00    	je     9160 <free@plt+0x86b0>
    8a89:	48 8d 78 18          	lea    rdi,[rax+0x18]
    8a8d:	4c 89 ea             	mov    rdx,r13
    8a90:	48 89 de             	mov    rsi,rbx
    8a93:	e8 b8 52 01 00       	call   1dd50 <realloc@@GLIBC_2.2.5+0x3e20>
    8a98:	49 c7 44 24 08 00 00 	mov    QWORD PTR [r12+0x8],0x0
    8a9f:	00 00 
    8aa1:	49 89 04 24          	mov    QWORD PTR [r12],rax
    8aa5:	41 c7 44 24 10 00 00 	mov    DWORD PTR [r12+0x10],0x0
    8aac:	00 00 
    8aae:	4c 89 65 08          	mov    QWORD PTR [rbp+0x8],r12
    8ab2:	e9 51 fe ff ff       	jmp    8908 <free@plt+0x7e58>
    8ab7:	44 8b 6c 24 18       	mov    r13d,DWORD PTR [rsp+0x18]
    8abc:	48 8b 6c 24 20       	mov    rbp,QWORD PTR [rsp+0x20]
    8ac1:	31 db                	xor    ebx,ebx
    8ac3:	41 f7 c5 00 00 00 10 	test   r13d,0x10000000
    8aca:	b8 00 00 00 00       	mov    eax,0x0
    8acf:	4c 0f 45 e0          	cmovne r12,rax
    8ad3:	8b 44 24 38          	mov    eax,DWORD PTR [rsp+0x38]
    8ad7:	85 c0                	test   eax,eax
    8ad9:	0f 84 cf 01 00 00    	je     8cae <free@plt+0x81fe>
    8adf:	f6 05 bb d1 21 00 08 	test   BYTE PTR [rip+0x21d1bb],0x8        # 225ca1 <_rtld_global_ro@@GLIBC_PRIVATE+0x1>
    8ae6:	0f 85 c2 01 00 00    	jne    8cae <free@plt+0x81fe>
    8aec:	48 89 df             	mov    rdi,rbx
    8aef:	e8 7c 42 01 00       	call   1cd70 <realloc@@GLIBC_2.2.5+0x2e40>
    8af4:	48 85 c0             	test   rax,rax
    8af7:	49 89 c6             	mov    r14,rax
    8afa:	0f 84 b8 08 00 00    	je     93b8 <free@plt+0x8908>
    8b00:	8b 54 24 04          	mov    edx,DWORD PTR [rsp+0x4]
    8b04:	49 89 e9             	mov    r9,rbp
    8b07:	45 89 e8             	mov    r8d,r13d
    8b0a:	4c 89 e1             	mov    rcx,r12
    8b0d:	48 89 de             	mov    rsi,rbx
    8b10:	48 89 c7             	mov    rdi,rax
    8b13:	e8 a8 2e 00 00       	call   b9c0 <_dl_rtld_di_serinfo@@GLIBC_PRIVATE+0x2540>
    8b18:	48 85 c0             	test   rax,rax
    8b1b:	49 89 c7             	mov    r15,rax
    8b1e:	0f 84 94 08 00 00    	je     93b8 <free@plt+0x8908>
    8b24:	80 88 15 03 00 00 02 	or     BYTE PTR [rax+0x315],0x2
    8b2b:	48 8d 05 4e 9b 01 00 	lea    rax,[rip+0x19b4e]        # 22680 <realloc@@GLIBC_2.2.5+0x8750>
    8b32:	41 c7 87 ec 02 00 00 	mov    DWORD PTR [r15+0x2ec],0x1
    8b39:	01 00 00 00 
    8b3d:	41 80 8f 14 03 00 00 	or     BYTE PTR [r15+0x314],0x4
    8b44:	04 
    8b45:	48 89 ee             	mov    rsi,rbp
    8b48:	4c 89 ff             	mov    rdi,r15
    8b4b:	49 89 87 08 03 00 00 	mov    QWORD PTR [r15+0x308],rax
    8b52:	e8 d9 2d 00 00       	call   b930 <_dl_rtld_di_serinfo@@GLIBC_PRIVATE+0x24b0>
    8b57:	4c 89 f8             	mov    rax,r15
    8b5a:	e9 b4 fd ff ff       	jmp    8913 <free@plt+0x7e63>
    8b5f:	48 89 df             	mov    rdi,rbx
    8b62:	e8 59 42 01 00       	call   1cdc0 <realloc@@GLIBC_2.2.5+0x2e90>
    8b67:	48 83 c0 01          	add    rax,0x1
    8b6b:	f6 05 2e d1 21 00 01 	test   BYTE PTR [rip+0x21d12e],0x1        # 225ca0 <_rtld_global_ro@@GLIBC_PRIVATE>
    8b72:	48 89 44 24 18       	mov    QWORD PTR [rsp+0x18],rax
    8b77:	0f 85 67 06 00 00    	jne    91e4 <free@plt+0x8734>
    8b7d:	4d 85 e4             	test   r12,r12
    8b80:	0f 84 63 01 00 00    	je     8ce9 <free@plt+0x8239>
    8b86:	49 83 bc 24 28 01 00 	cmp    QWORD PTR [r12+0x128],0x0
    8b8d:	00 00 
    8b8f:	0f 84 54 01 00 00    	je     8ce9 <free@plt+0x8239>
    8b95:	48 83 3d a3 d2 21 00 	cmp    QWORD PTR [rip+0x21d2a3],0xffffffffffffffff        # 225e40 <_rtld_global_ro@@GLIBC_PRIVATE+0x1a0>
    8b9c:	ff 
    8b9d:	0f 84 11 07 00 00    	je     92b4 <free@plt+0x8804>
    8ba3:	4d 85 e4             	test   r12,r12
    8ba6:	0f 84 da 06 00 00    	je     9286 <free@plt+0x87d6>
    8bac:	48 83 ec 08          	sub    rsp,0x8
    8bb0:	48 8d 0d 89 d2 21 00 	lea    rcx,[rip+0x21d289]        # 225e40 <_rtld_global_ro@@GLIBC_PRIVATE+0x1a0>
    8bb7:	44 89 ea             	mov    edx,r13d
    8bba:	48 8d 44 24 67       	lea    rax,[rsp+0x67]
    8bbf:	48 89 df             	mov    rdi,rbx
    8bc2:	50                   	push   rax
    8bc3:	6a 02                	push   0x2
    8bc5:	41 54                	push   r12
    8bc7:	48 8b 74 24 38       	mov    rsi,QWORD PTR [rsp+0x38]
    8bcc:	4c 8d 8c 24 90 00 00 	lea    r9,[rsp+0x90]
    8bd3:	00 
    8bd4:	4c 8d 84 24 80 00 00 	lea    r8,[rsp+0x80]
    8bdb:	00 
    8bdc:	e8 1f cf ff ff       	call   5b00 <free@plt+0x5050>
    8be1:	48 83 c4 20          	add    rsp,0x20
    8be5:	83 f8 ff             	cmp    eax,0xffffffff
    8be8:	89 c2                	mov    edx,eax
    8bea:	75 61                	jne    8c4d <free@plt+0x819d>
    8bec:	80 7c 24 08 00       	cmp    BYTE PTR [rsp+0x8],0x0
    8bf1:	74 5a                	je     8c4d <free@plt+0x819d>
    8bf3:	49 8b 84 24 a8 03 00 	mov    rax,QWORD PTR [r12+0x3a8]
    8bfa:	00 
    8bfb:	4d 8d bc 24 a8 03 00 	lea    r15,[r12+0x3a8]
    8c02:	00 
    8c03:	48 83 f8 ff          	cmp    rax,0xffffffffffffffff
    8c07:	0f 84 62 03 00 00    	je     8f6f <free@plt+0x84bf>
    8c0d:	48 85 c0             	test   rax,rax
    8c10:	0f 84 21 03 00 00    	je     8f37 <free@plt+0x8487>
    8c16:	48 83 ec 08          	sub    rsp,0x8
    8c1a:	4c 89 f9             	mov    rcx,r15
    8c1d:	48 8d 44 24 67       	lea    rax,[rsp+0x67]
    8c22:	50                   	push   rax
    8c23:	6a 04                	push   0x4
    8c25:	41 54                	push   r12
    8c27:	4c 8d 8c 24 90 00 00 	lea    r9,[rsp+0x90]
    8c2e:	00 
    8c2f:	4c 8d 84 24 80 00 00 	lea    r8,[rsp+0x80]
    8c36:	00 
    8c37:	48 8b 74 24 38       	mov    rsi,QWORD PTR [rsp+0x38]
    8c3c:	44 89 ea             	mov    edx,r13d
    8c3f:	48 89 df             	mov    rdi,rbx
    8c42:	e8 b9 ce ff ff       	call   5b00 <free@plt+0x5050>
    8c47:	48 83 c4 20          	add    rsp,0x20
    8c4b:	89 c2                	mov    edx,eax
    8c4d:	83 fa ff             	cmp    edx,0xffffffff
    8c50:	0f 84 19 03 00 00    	je     8f6f <free@plt+0x84bf>
    8c56:	f6 05 43 d0 21 00 01 	test   BYTE PTR [rip+0x21d043],0x1        # 225ca0 <_rtld_global_ro@@GLIBC_PRIVATE>
    8c5d:	0f 85 66 05 00 00    	jne    91c9 <free@plt+0x8719>
    8c63:	41 f7 c5 00 00 00 10 	test   r13d,0x10000000
    8c6a:	b8 00 00 00 00       	mov    eax,0x0
    8c6f:	4c 0f 45 e0          	cmovne r12,rax
    8c73:	83 fa ff             	cmp    edx,0xffffffff
    8c76:	0f 84 57 fe ff ff    	je     8ad3 <free@plt+0x8023>
    8c7c:	4c 8d 7c 24 70       	lea    r15,[rsp+0x70]
    8c81:	e9 9c fd ff ff       	jmp    8a22 <free@plt+0x7f72>
    8c86:	48 89 df             	mov    rdi,rbx
    8c89:	e8 e2 40 01 00       	call   1cd70 <realloc@@GLIBC_2.2.5+0x2e40>
    8c8e:	48 85 c0             	test   rax,rax
    8c91:	48 89 44 24 60       	mov    QWORD PTR [rsp+0x60],rax
    8c96:	0f 84 27 fe ff ff    	je     8ac3 <free@plt+0x8013>
    8c9c:	48 8d 54 ed 00       	lea    rdx,[rbp+rbp*8+0x0]
    8ca1:	48 c1 e2 04          	shl    rdx,0x4
    8ca5:	49 8b 14 16          	mov    rdx,QWORD PTR [r14+rdx*1]
    8ca9:	e9 37 fd ff ff       	jmp    89e5 <free@plt+0x7f35>
    8cae:	80 7c 24 5f 00       	cmp    BYTE PTR [rsp+0x5f],0x0
    8cb3:	0f 84 84 04 00 00    	je     913d <free@plt+0x868d>
    8cb9:	48 8d 0d 7a 6d 01 00 	lea    rcx,[rip+0x16d7a]        # 1fa3a <realloc@@GLIBC_2.2.5+0x5b0a>
    8cc0:	31 d2                	xor    edx,edx
    8cc2:	48 89 de             	mov    rsi,rbx
    8cc5:	31 ff                	xor    edi,edi
    8cc7:	e8 24 74 00 00       	call   100f0 <_dl_rtld_di_serinfo@@GLIBC_PRIVATE+0x6c70>
    8ccc:	48 8b 05 ad cf 21 00 	mov    rax,QWORD PTR [rip+0x21cfad]        # 225c80 <_dl_argv@@GLIBC_PRIVATE>
    8cd3:	48 8d 0d 43 67 01 00 	lea    rcx,[rip+0x16743]        # 1f41d <realloc@@GLIBC_2.2.5+0x54ed>
    8cda:	48 8b 00             	mov    rax,QWORD PTR [rax]
    8cdd:	48 85 c0             	test   rax,rax
    8ce0:	48 0f 45 c8          	cmovne rcx,rax
    8ce4:	e9 6c fc ff ff       	jmp    8955 <free@plt+0x7ea5>
    8ce9:	48 8b 05 50 d3 21 00 	mov    rax,QWORD PTR [rip+0x21d350]        # 226040 <_rtld_global@@GLIBC_PRIVATE>
    8cf0:	4d 85 e4             	test   r12,r12
    8cf3:	48 89 44 24 30       	mov    QWORD PTR [rsp+0x30],rax
    8cf8:	0f 84 95 03 00 00    	je     9093 <free@plt+0x85e3>
    8cfe:	48 8d 44 24 70       	lea    rax,[rsp+0x70]
    8d03:	48 89 6c 24 40       	mov    QWORD PTR [rsp+0x40],rbp
    8d08:	c6 44 24 3f 00       	mov    BYTE PTR [rsp+0x3f],0x0
    8d0d:	4c 89 e5             	mov    rbp,r12
    8d10:	48 89 44 24 20       	mov    QWORD PTR [rsp+0x20],rax
    8d15:	48 8d 44 24 60       	lea    rax,[rsp+0x60]
    8d1a:	48 89 44 24 28       	mov    QWORD PTR [rsp+0x28],rax
    8d1f:	48 8d 44 24 5f       	lea    rax,[rsp+0x5f]
    8d24:	49 89 c7             	mov    r15,rax
    8d27:	eb 57                	jmp    8d80 <free@plt+0x82d0>
    8d29:	0f 1f 80 00 00 00 00 	nop    DWORD PTR [rax+0x0]
    8d30:	48 83 ec 08          	sub    rsp,0x8
    8d34:	4c 89 d9             	mov    rcx,r11
    8d37:	44 89 ea             	mov    edx,r13d
    8d3a:	41 57                	push   r15
    8d3c:	6a 04                	push   0x4
    8d3e:	48 89 df             	mov    rdi,rbx
    8d41:	41 54                	push   r12
    8d43:	4c 8b 4c 24 40       	mov    r9,QWORD PTR [rsp+0x40]
    8d48:	4c 8b 44 24 48       	mov    r8,QWORD PTR [rsp+0x48]
    8d4d:	48 8b 74 24 38       	mov    rsi,QWORD PTR [rsp+0x38]
    8d52:	e8 a9 cd ff ff       	call   5b00 <free@plt+0x5050>
    8d57:	48 83 c4 20          	add    rsp,0x20
    8d5b:	83 f8 ff             	cmp    eax,0xffffffff
    8d5e:	0f 85 f0 03 00 00    	jne    9154 <free@plt+0x86a4>
    8d64:	48 39 6c 24 30       	cmp    QWORD PTR [rsp+0x30],rbp
    8d69:	0f 94 c0             	sete   al
    8d6c:	08 44 24 3f          	or     BYTE PTR [rsp+0x3f],al
    8d70:	48 8b ad d8 02 00 00 	mov    rbp,QWORD PTR [rbp+0x2d8]
    8d77:	48 85 ed             	test   rbp,rbp
    8d7a:	0f 84 03 03 00 00    	je     9083 <free@plt+0x85d3>
    8d80:	48 8b 85 18 03 00 00 	mov    rax,QWORD PTR [rbp+0x318]
    8d87:	4c 8d 9d 18 03 00 00 	lea    r11,[rbp+0x318]
    8d8e:	48 83 f8 ff          	cmp    rax,0xffffffffffffffff
    8d92:	74 dc                	je     8d70 <free@plt+0x82c0>
    8d94:	48 85 c0             	test   rax,rax
    8d97:	75 97                	jne    8d30 <free@plt+0x8280>
    8d99:	48 8b 85 b8 00 00 00 	mov    rax,QWORD PTR [rbp+0xb8]
    8da0:	48 85 c0             	test   rax,rax
    8da3:	0f 84 67 04 00 00    	je     9210 <free@plt+0x8760>
    8da9:	48 8b 55 68          	mov    rdx,QWORD PTR [rbp+0x68]
    8dad:	48 8b 70 08          	mov    rsi,QWORD PTR [rax+0x8]
    8db1:	48 8d 0d 4d 6c 01 00 	lea    rcx,[rip+0x16c4d]        # 1fa05 <realloc@@GLIBC_2.2.5+0x5ad5>
    8db8:	4c 89 df             	mov    rdi,r11
    8dbb:	4c 89 5c 24 48       	mov    QWORD PTR [rsp+0x48],r11
    8dc0:	48 03 72 08          	add    rsi,QWORD PTR [rdx+0x8]
    8dc4:	48 89 ea             	mov    rdx,rbp
    8dc7:	e8 64 f3 ff ff       	call   8130 <free@plt+0x7680>
    8dcc:	84 c0                	test   al,al
    8dce:	4c 8b 5c 24 48       	mov    r11,QWORD PTR [rsp+0x48]
    8dd3:	74 9b                	je     8d70 <free@plt+0x82c0>
    8dd5:	e9 56 ff ff ff       	jmp    8d30 <free@plt+0x8280>
    8dda:	66 0f 1f 44 00 00    	nop    WORD PTR [rax+rax*1+0x0]
    8de0:	4d 85 e4             	test   r12,r12
    8de3:	74 0f                	je     8df4 <free@plt+0x8344>
    8de5:	41 f6 84 24 15 03 00 	test   BYTE PTR [r12+0x315],0x8
    8dec:	00 08 
    8dee:	0f 85 9e fb ff ff    	jne    8992 <free@plt+0x7ee2>
    8df4:	4c 8b 05 05 d0 21 00 	mov    r8,QWORD PTR [rip+0x21d005]        # 225e00 <_rtld_global_ro@@GLIBC_PRIVATE+0x160>
    8dfb:	44 89 6c 24 18       	mov    DWORD PTR [rsp+0x18],r13d
    8e00:	45 31 ff             	xor    r15d,r15d
    8e03:	48 c7 44 24 10 00 00 	mov    QWORD PTR [rsp+0x10],0x0
    8e0a:	00 00 
    8e0c:	48 89 6c 24 20       	mov    QWORD PTR [rsp+0x20],rbp
    8e11:	4d 89 c5             	mov    r13,r8
    8e14:	eb 1a                	jmp    8e30 <free@plt+0x8380>
    8e16:	8b 15 ec cf 21 00    	mov    edx,DWORD PTR [rip+0x21cfec]        # 225e08 <_rtld_global_ro@@GLIBC_PRIVATE+0x168>
    8e1c:	48 89 eb             	mov    rbx,rbp
    8e1f:	41 83 c7 01          	add    r15d,0x1
    8e23:	4d 8b 6d 40          	mov    r13,QWORD PTR [r13+0x40]
    8e27:	41 39 d7             	cmp    r15d,edx
    8e2a:	0f 83 44 02 00 00    	jae    9074 <free@plt+0x85c4>
    8e30:	49 8b 45 08          	mov    rax,QWORD PTR [r13+0x8]
    8e34:	48 85 c0             	test   rax,rax
    8e37:	74 e6                	je     8e1f <free@plt+0x836f>
    8e39:	44 89 fe             	mov    esi,r15d
    8e3c:	ba 01 00 00 00       	mov    edx,0x1
    8e41:	48 89 df             	mov    rdi,rbx
    8e44:	48 83 c6 47          	add    rsi,0x47
    8e48:	48 c1 e6 04          	shl    rsi,0x4
    8e4c:	4c 01 e6             	add    rsi,r12
    8e4f:	ff d0                	call   rax
    8e51:	48 85 c0             	test   rax,rax
    8e54:	48 89 c5             	mov    rbp,rax
    8e57:	0f 84 5a fc ff ff    	je     8ab7 <free@plt+0x8007>
    8e5d:	48 39 d8             	cmp    rax,rbx
    8e60:	8b 15 a2 cf 21 00    	mov    edx,DWORD PTR [rip+0x21cfa2]        # 225e08 <_rtld_global_ro@@GLIBC_PRIVATE+0x168>
    8e66:	74 b7                	je     8e1f <free@plt+0x836f>
    8e68:	48 89 c6             	mov    rsi,rax
    8e6b:	48 89 df             	mov    rdi,rbx
    8e6e:	e8 bd 2a 01 00       	call   1b930 <realloc@@GLIBC_2.2.5+0x1a00>
    8e73:	85 c0                	test   eax,eax
    8e75:	74 9f                	je     8e16 <free@plt+0x8366>
    8e77:	f6 05 22 ce 21 00 40 	test   BYTE PTR [rip+0x21ce22],0x40        # 225ca0 <_rtld_global_ro@@GLIBC_PRIVATE>
    8e7e:	0f 85 2c 03 00 00    	jne    91b0 <free@plt+0x8700>
    8e84:	48 83 7c 24 10 00    	cmp    QWORD PTR [rsp+0x10],0x0
    8e8a:	8b 15 78 cf 21 00    	mov    edx,DWORD PTR [rip+0x21cf78]        # 225e08 <_rtld_global_ro@@GLIBC_PRIVATE+0x168>
    8e90:	0f 84 9a 02 00 00    	je     9130 <free@plt+0x8680>
    8e96:	48 89 eb             	mov    rbx,rbp
    8e99:	eb 84                	jmp    8e1f <free@plt+0x836f>
    8e9b:	48 8b 7c 24 60       	mov    rdi,QWORD PTR [rsp+0x60]
    8ea0:	e8 0b 7c ff ff       	call   ab0 <free@plt>
    8ea5:	e9 19 fc ff ff       	jmp    8ac3 <free@plt+0x8013>
    8eaa:	31 f6                	xor    esi,esi
    8eac:	48 89 c7             	mov    rdi,rax
    8eaf:	e8 8c e8 ff ff       	call   7740 <free@plt+0x6c90>
    8eb4:	48 85 c0             	test   rax,rax
    8eb7:	49 89 c6             	mov    r14,rax
    8eba:	0f 84 0c fb ff ff    	je     89cc <free@plt+0x7f1c>
    8ec0:	48 89 df             	mov    rdi,rbx
    8ec3:	e8 f8 3e 01 00       	call   1cdc0 <realloc@@GLIBC_2.2.5+0x2e90>
    8ec8:	49 8b bc 24 38 03 00 	mov    rdi,QWORD PTR [r12+0x338]
    8ecf:	00 
    8ed0:	49 89 c7             	mov    r15,rax
    8ed3:	48 85 ff             	test   rdi,rdi
    8ed6:	0f 84 6c 03 00 00    	je     9248 <free@plt+0x8798>
    8edc:	48 83 ff ff          	cmp    rdi,0xffffffffffffffff
    8ee0:	0f 84 3a 03 00 00    	je     9220 <free@plt+0x8770>
    8ee6:	e8 d5 3e 01 00       	call   1cdc0 <realloc@@GLIBC_2.2.5+0x2e90>
    8eeb:	48 83 3d bd cd 21 00 	cmp    QWORD PTR [rip+0x21cdbd],0x14        # 225cb0 <_rtld_global_ro@@GLIBC_PRIVATE+0x10>
    8ef2:	14 
    8ef3:	ba 14 00 00 00       	mov    edx,0x14
    8ef8:	48 0f 43 15 b0 cd 21 	cmovae rdx,QWORD PTR [rip+0x21cdb0]        # 225cb0 <_rtld_global_ro@@GLIBC_PRIVATE+0x10>
    8eff:	00 
    8f00:	48 39 c2             	cmp    rdx,rax
    8f03:	48 0f 43 c2          	cmovae rax,rdx
    8f07:	48 83 e8 04          	sub    rax,0x4
    8f0b:	4c 0f af f0          	imul   r14,rax
    8f0f:	4b 8d 7c 3e 01       	lea    rdi,[r14+r15*1+0x1]
    8f14:	e8 67 7b ff ff       	call   a80 <malloc@plt>
    8f19:	48 85 c0             	test   rax,rax
    8f1c:	0f 84 69 04 00 00    	je     938b <free@plt+0x88db>
    8f22:	31 c9                	xor    ecx,ecx
    8f24:	48 89 c2             	mov    rdx,rax
    8f27:	48 89 de             	mov    rsi,rbx
    8f2a:	4c 89 e7             	mov    rdi,r12
    8f2d:	e8 9e e9 ff ff       	call   78d0 <free@plt+0x6e20>
    8f32:	e9 9d fa ff ff       	jmp    89d4 <free@plt+0x7f24>
    8f37:	49 8b 84 24 28 01 00 	mov    rax,QWORD PTR [r12+0x128]
    8f3e:	00 
    8f3f:	48 85 c0             	test   rax,rax
    8f42:	0f 84 12 05 00 00    	je     945a <free@plt+0x89aa>
    8f48:	49 8b 54 24 68       	mov    rdx,QWORD PTR [r12+0x68]
    8f4d:	48 8b 70 08          	mov    rsi,QWORD PTR [rax+0x8]
    8f51:	48 8d 0d a5 6a 01 00 	lea    rcx,[rip+0x16aa5]        # 1f9fd <realloc@@GLIBC_2.2.5+0x5acd>
    8f58:	4c 89 ff             	mov    rdi,r15
    8f5b:	48 03 72 08          	add    rsi,QWORD PTR [rdx+0x8]
    8f5f:	4c 89 e2             	mov    rdx,r12
    8f62:	e8 c9 f1 ff ff       	call   8130 <free@plt+0x7680>
    8f67:	84 c0                	test   al,al
    8f69:	0f 85 a7 fc ff ff    	jne    8c16 <free@plt+0x8166>
    8f6f:	41 f7 c5 00 00 00 04 	test   r13d,0x4000000
    8f76:	48 c7 44 24 60 00 00 	mov    QWORD PTR [rsp+0x60],0x0
    8f7d:	00 00 
    8f7f:	0f 85 f1 03 00 00    	jne    9376 <free@plt+0x88c6>
    8f85:	44 8b 0d 34 cd 21 00 	mov    r9d,DWORD PTR [rip+0x21cd34]        # 225cc0 <_rtld_global_ro@@GLIBC_PRIVATE+0x20>
    8f8c:	45 85 c9             	test   r9d,r9d
    8f8f:	75 73                	jne    9004 <free@plt+0x8554>
    8f91:	48 89 df             	mov    rdi,rbx
    8f94:	e8 17 f1 00 00       	call   180b0 <_dl_find_dso_for_object@@GLIBC_PRIVATE+0x3690>
    8f99:	48 85 c0             	test   rax,rax
    8f9c:	48 89 44 24 08       	mov    QWORD PTR [rsp+0x8],rax
    8fa1:	74 61                	je     9004 <free@plt+0x8554>
    8fa3:	4d 85 e4             	test   r12,r12
    8fa6:	0f 84 1c 03 00 00    	je     92c8 <free@plt+0x8818>
    8fac:	41 f6 84 24 d5 03 00 	test   BYTE PTR [r12+0x3d5],0x8
    8fb3:	00 08 
    8fb5:	0f 85 2b 03 00 00    	jne    92e6 <free@plt+0x8836>
    8fbb:	4c 89 e2             	mov    rdx,r12
    8fbe:	4c 8d 7c 24 70       	lea    r15,[rsp+0x70]
    8fc3:	48 83 ec 08          	sub    rsp,0x8
    8fc7:	45 89 e8             	mov    r8d,r13d
    8fca:	6a 00                	push   0x0
    8fcc:	b9 08 00 00 00       	mov    ecx,0x8
    8fd1:	4c 89 fe             	mov    rsi,r15
    8fd4:	4c 8b 7c 24 18       	mov    r15,QWORD PTR [rsp+0x18]
    8fd9:	4c 8d 4c 24 6f       	lea    r9,[rsp+0x6f]
    8fde:	4c 89 ff             	mov    rdi,r15
    8fe1:	e8 5a c5 ff ff       	call   5540 <free@plt+0x4a90>
    8fe6:	83 f8 ff             	cmp    eax,0xffffffff
    8fe9:	89 c2                	mov    edx,eax
    8feb:	5f                   	pop    rdi
    8fec:	41 58                	pop    r8
    8fee:	74 0a                	je     8ffa <free@plt+0x854a>
    8ff0:	4c 89 7c 24 60       	mov    QWORD PTR [rsp+0x60],r15
    8ff5:	e9 5c fc ff ff       	jmp    8c56 <free@plt+0x81a6>
    8ffa:	48 8b 7c 24 08       	mov    rdi,QWORD PTR [rsp+0x8]
    8fff:	e8 ac 7a ff ff       	call   ab0 <free@plt>
    9004:	4d 85 e4             	test   r12,r12
    9007:	4c 89 e0             	mov    rax,r12
    900a:	0f 84 17 02 00 00    	je     9227 <free@plt+0x8777>
    9010:	f6 80 d5 03 00 00 08 	test   BYTE PTR [rax+0x3d5],0x8
    9017:	ba ff ff ff ff       	mov    edx,0xffffffff
    901c:	0f 85 34 fc ff ff    	jne    8c56 <free@plt+0x81a6>
    9022:	48 83 3d e6 cd 21 00 	cmp    QWORD PTR [rip+0x21cde6],0xffffffffffffffff        # 225e10 <_rtld_global_ro@@GLIBC_PRIVATE+0x170>
    9029:	ff 
    902a:	ba ff ff ff ff       	mov    edx,0xffffffff
    902f:	0f 84 21 fc ff ff    	je     8c56 <free@plt+0x81a6>
    9035:	48 83 ec 08          	sub    rsp,0x8
    9039:	48 8d 0d d0 cd 21 00 	lea    rcx,[rip+0x21cdd0]        # 225e10 <_rtld_global_ro@@GLIBC_PRIVATE+0x170>
    9040:	48 89 df             	mov    rdi,rbx
    9043:	48 8d 54 24 67       	lea    rdx,[rsp+0x67]
    9048:	52                   	push   rdx
    9049:	6a 40                	push   0x40
    904b:	44 89 ea             	mov    edx,r13d
    904e:	50                   	push   rax
    904f:	48 8b 74 24 38       	mov    rsi,QWORD PTR [rsp+0x38]
    9054:	4c 8d 8c 24 90 00 00 	lea    r9,[rsp+0x90]
    905b:	00 
    905c:	4c 8d 84 24 80 00 00 	lea    r8,[rsp+0x80]
    9063:	00 
    9064:	e8 97 ca ff ff       	call   5b00 <free@plt+0x5050>
    9069:	48 83 c4 20          	add    rsp,0x20
    906d:	89 c2                	mov    edx,eax
    906f:	e9 e2 fb ff ff       	jmp    8c56 <free@plt+0x81a6>
    9074:	44 8b 6c 24 18       	mov    r13d,DWORD PTR [rsp+0x18]
    9079:	48 8b 6c 24 20       	mov    rbp,QWORD PTR [rsp+0x20]
    907e:	e9 0f f9 ff ff       	jmp    8992 <free@plt+0x7ee2>
    9083:	80 7c 24 3f 00       	cmp    BYTE PTR [rsp+0x3f],0x0
    9088:	48 8b 6c 24 40       	mov    rbp,QWORD PTR [rsp+0x40]
    908d:	0f 85 6a 01 00 00    	jne    91fd <free@plt+0x874d>
    9093:	48 8b 4c 24 30       	mov    rcx,QWORD PTR [rsp+0x30]
    9098:	48 85 c9             	test   rcx,rcx
    909b:	0f 84 f4 fa ff ff    	je     8b95 <free@plt+0x80e5>
    90a1:	0f b6 81 14 03 00 00 	movzx  eax,BYTE PTR [rcx+0x314]
    90a8:	88 44 24 20          	mov    BYTE PTR [rsp+0x20],al
    90ac:	83 e0 03             	and    eax,0x3
    90af:	3c 02                	cmp    al,0x2
    90b1:	0f 84 de fa ff ff    	je     8b95 <free@plt+0x80e5>
    90b7:	48 8b 81 18 03 00 00 	mov    rax,QWORD PTR [rcx+0x318]
    90be:	4c 8d 91 18 03 00 00 	lea    r10,[rcx+0x318]
    90c5:	48 83 f8 ff          	cmp    rax,0xffffffffffffffff
    90c9:	0f 84 c6 fa ff ff    	je     8b95 <free@plt+0x80e5>
    90cf:	48 85 c0             	test   rax,rax
    90d2:	0f 84 1d 03 00 00    	je     93f5 <free@plt+0x8945>
    90d8:	48 8b 44 24 30       	mov    rax,QWORD PTR [rsp+0x30]
    90dd:	4d 85 e4             	test   r12,r12
    90e0:	4c 89 d1             	mov    rcx,r10
    90e3:	48 89 df             	mov    rdi,rbx
    90e6:	49 0f 45 c4          	cmovne rax,r12
    90ea:	48 83 ec 08          	sub    rsp,0x8
    90ee:	48 8d 54 24 67       	lea    rdx,[rsp+0x67]
    90f3:	52                   	push   rdx
    90f4:	6a 04                	push   0x4
    90f6:	44 89 ea             	mov    edx,r13d
    90f9:	50                   	push   rax
    90fa:	48 8b 74 24 38       	mov    rsi,QWORD PTR [rsp+0x38]
    90ff:	4c 8d 8c 24 90 00 00 	lea    r9,[rsp+0x90]
    9106:	00 
    9107:	4c 8d 84 24 80 00 00 	lea    r8,[rsp+0x80]
    910e:	00 
    910f:	e8 ec c9 ff ff       	call   5b00 <free@plt+0x5050>
    9114:	48 83 c4 20          	add    rsp,0x20
    9118:	83 f8 ff             	cmp    eax,0xffffffff
    911b:	89 c2                	mov    edx,eax
    911d:	0f 85 33 fb ff ff    	jne    8c56 <free@plt+0x81a6>
    9123:	e9 6d fa ff ff       	jmp    8b95 <free@plt+0x80e5>
    9128:	0f 1f 84 00 00 00 00 	nop    DWORD PTR [rax+rax*1+0x0]
    912f:	00 
    9130:	48 89 5c 24 10       	mov    QWORD PTR [rsp+0x10],rbx
    9135:	48 89 eb             	mov    rbx,rbp
    9138:	e9 e2 fc ff ff       	jmp    8e1f <free@plt+0x836f>
    913d:	8b 3d dd df 21 00    	mov    edi,DWORD PTR [rip+0x21dfdd]        # 227120 <_rtld_global@@GLIBC_PRIVATE+0x10e0>
    9143:	48 8d 0d de 82 01 00 	lea    rcx,[rip+0x182de]        # 21428 <realloc@@GLIBC_2.2.5+0x74f8>
    914a:	31 d2                	xor    edx,edx
    914c:	48 89 de             	mov    rsi,rbx
    914f:	e8 9c 6f 00 00       	call   100f0 <_dl_rtld_di_serinfo@@GLIBC_PRIVATE+0x6c70>
    9154:	89 c2                	mov    edx,eax
    9156:	48 8b 6c 24 40       	mov    rbp,QWORD PTR [rsp+0x40]
    915b:	e9 f6 fa ff ff       	jmp    8c56 <free@plt+0x81a6>
    9160:	48 8d 0d e1 67 01 00 	lea    rcx,[rip+0x167e1]        # 1f948 <realloc@@GLIBC_2.2.5+0x5a18>
    9167:	31 d2                	xor    edx,edx
    9169:	48 89 de             	mov    rsi,rbx
    916c:	bf 0c 00 00 00       	mov    edi,0xc
    9171:	e8 7a 6f 00 00       	call   100f0 <_dl_rtld_di_serinfo@@GLIBC_PRIVATE+0x6c70>
    9176:	48 89 df             	mov    rdi,rbx
    9179:	e8 42 3c 01 00       	call   1cdc0 <realloc@@GLIBC_2.2.5+0x2e90>
    917e:	48 8d 78 19          	lea    rdi,[rax+0x19]
    9182:	e8 f9 78 ff ff       	call   a80 <malloc@plt>
    9187:	48 85 c0             	test   rax,rax
    918a:	74 d4                	je     9160 <free@plt+0x86b0>
    918c:	48 8d 0d 2d 92 01 00 	lea    rcx,[rip+0x1922d]        # 223c0 <realloc@@GLIBC_2.2.5+0x8490>
    9193:	48 8d 35 ca 67 01 00 	lea    rsi,[rip+0x167ca]        # 1f964 <realloc@@GLIBC_2.2.5+0x5a34>
    919a:	48 8d 3d cd 67 01 00 	lea    rdi,[rip+0x167cd]        # 1f96e <realloc@@GLIBC_2.2.5+0x5a3e>
    91a1:	ba a0 01 00 00       	mov    edx,0x1a0
    91a6:	e8 35 0d 01 00       	call   19ee0 <free@@GLIBC_2.2.5+0x160>
    91ab:	0f 1f 44 00 00       	nop    DWORD PTR [rax+rax*1+0x0]
    91b0:	48 8d 3d 21 82 01 00 	lea    rdi,[rip+0x18221]        # 213d8 <realloc@@GLIBC_2.2.5+0x74a8>
    91b7:	48 89 ea             	mov    rdx,rbp
    91ba:	48 89 de             	mov    rsi,rbx
    91bd:	31 c0                	xor    eax,eax
    91bf:	e8 ec 83 00 00       	call   115b0 <_dl_debug_state@@GLIBC_PRIVATE+0x720>
    91c4:	e9 bb fc ff ff       	jmp    8e84 <free@plt+0x83d4>
    91c9:	48 8d 3d d5 64 01 00 	lea    rdi,[rip+0x164d5]        # 1f6a5 <realloc@@GLIBC_2.2.5+0x5775>
    91d0:	31 c0                	xor    eax,eax
    91d2:	89 54 24 08          	mov    DWORD PTR [rsp+0x8],edx
    91d6:	e8 d5 83 00 00       	call   115b0 <_dl_debug_state@@GLIBC_PRIVATE+0x720>
    91db:	8b 54 24 08          	mov    edx,DWORD PTR [rsp+0x8]
    91df:	e9 7f fa ff ff       	jmp    8c63 <free@plt+0x81b3>
    91e4:	48 8d 3d 15 82 01 00 	lea    rdi,[rip+0x18215]        # 21400 <realloc@@GLIBC_2.2.5+0x74d0>
    91eb:	48 89 ea             	mov    rdx,rbp
    91ee:	48 89 de             	mov    rsi,rbx
    91f1:	31 c0                	xor    eax,eax
    91f3:	e8 b8 83 00 00       	call   115b0 <_dl_debug_state@@GLIBC_PRIVATE+0x720>
    91f8:	e9 80 f9 ff ff       	jmp    8b7d <free@plt+0x80cd>
    91fd:	48 83 3d 3b cc 21 00 	cmp    QWORD PTR [rip+0x21cc3b],0xffffffffffffffff        # 225e40 <_rtld_global_ro@@GLIBC_PRIVATE+0x1a0>
    9204:	ff 
    9205:	0f 85 a1 f9 ff ff    	jne    8bac <free@plt+0x80fc>
    920b:	e9 e3 f9 ff ff       	jmp    8bf3 <free@plt+0x8143>
    9210:	48 c7 85 18 03 00 00 	mov    QWORD PTR [rbp+0x318],0xffffffffffffffff
    9217:	ff ff ff ff 
    921b:	e9 50 fb ff ff       	jmp    8d70 <free@plt+0x82c0>
    9220:	31 c0                	xor    eax,eax
    9222:	e9 c4 fc ff ff       	jmp    8eeb <free@plt+0x843b>
    9227:	48 8d 44 ed 00       	lea    rax,[rbp+rbp*8+0x0]
    922c:	48 c1 e0 04          	shl    rax,0x4
    9230:	49 8b 04 06          	mov    rax,QWORD PTR [r14+rax*1]
    9234:	48 85 c0             	test   rax,rax
    9237:	0f 84 e5 fd ff ff    	je     9022 <free@plt+0x8572>
    923d:	e9 ce fd ff ff       	jmp    9010 <free@plt+0x8560>
    9242:	66 0f 1f 44 00 00    	nop    WORD PTR [rax+rax*1+0x0]
    9248:	49 8b 44 24 08       	mov    rax,QWORD PTR [r12+0x8]
    924d:	80 38 00             	cmp    BYTE PTR [rax],0x0
    9250:	74 10                	je     9262 <free@plt+0x87b2>
    9252:	48 8d 05 7f d7 21 00 	lea    rax,[rip+0x21d77f]        # 2269d8 <_rtld_global@@GLIBC_PRIVATE+0x998>
    9259:	49 39 c4             	cmp    r12,rax
    925c:	0f 85 d9 01 00 00    	jne    943b <free@plt+0x898b>
    9262:	e8 19 aa 00 00       	call   13c80 <__tls_get_addr@@GLIBC_2.3+0x1a0>
    9267:	48 8d 50 ff          	lea    rdx,[rax-0x1]
    926b:	49 89 84 24 38 03 00 	mov    QWORD PTR [r12+0x338],rax
    9272:	00 
    9273:	48 83 fa fd          	cmp    rdx,0xfffffffffffffffd
    9277:	77 a7                	ja     9220 <free@plt+0x8770>
    9279:	48 89 c7             	mov    rdi,rax
    927c:	e8 3f 3b 01 00       	call   1cdc0 <realloc@@GLIBC_2.2.5+0x2e90>
    9281:	e9 65 fc ff ff       	jmp    8eeb <free@plt+0x843b>
    9286:	48 83 ec 08          	sub    rsp,0x8
    928a:	48 8d 0d af cb 21 00 	lea    rcx,[rip+0x21cbaf]        # 225e40 <_rtld_global_ro@@GLIBC_PRIVATE+0x1a0>
    9291:	48 8d 44 24 67       	lea    rax,[rsp+0x67]
    9296:	50                   	push   rax
    9297:	6a 02                	push   0x2
    9299:	ff 35 a1 cd 21 00    	push   QWORD PTR [rip+0x21cda1]        # 226040 <_rtld_global@@GLIBC_PRIVATE>
    929f:	4c 8d 8c 24 90 00 00 	lea    r9,[rsp+0x90]
    92a6:	00 
    92a7:	4c 8d 84 24 80 00 00 	lea    r8,[rsp+0x80]
    92ae:	00 
    92af:	e9 83 f9 ff ff       	jmp    8c37 <free@plt+0x8187>
    92b4:	4d 85 e4             	test   r12,r12
    92b7:	0f 85 36 f9 ff ff    	jne    8bf3 <free@plt+0x8143>
    92bd:	e9 ad fc ff ff       	jmp    8f6f <free@plt+0x84bf>
    92c2:	66 0f 1f 44 00 00    	nop    WORD PTR [rax+rax*1+0x0]
    92c8:	48 8b 05 71 cd 21 00 	mov    rax,QWORD PTR [rip+0x21cd71]        # 226040 <_rtld_global@@GLIBC_PRIVATE>
    92cf:	48 8d 15 02 d7 21 00 	lea    rdx,[rip+0x21d702]        # 2269d8 <_rtld_global@@GLIBC_PRIVATE+0x998>
    92d6:	48 85 c0             	test   rax,rax
    92d9:	48 0f 44 c2          	cmove  rax,rdx
    92dd:	f6 80 d5 03 00 00 08 	test   BYTE PTR [rax+0x3d5],0x8
    92e4:	74 7e                	je     9364 <free@plt+0x88b4>
    92e6:	4c 8b 7c 24 08       	mov    r15,QWORD PTR [rsp+0x8]
    92eb:	48 8d 35 6e 58 01 00 	lea    rsi,[rip+0x1586e]        # 1eb60 <realloc@@GLIBC_2.2.5+0x4c30>
    92f2:	ba 16 00 00 00       	mov    edx,0x16
    92f7:	4c 89 ff             	mov    rdi,r15
    92fa:	e8 d1 41 01 00       	call   1d4d0 <realloc@@GLIBC_2.2.5+0x35a0>
    92ff:	85 c0                	test   eax,eax
    9301:	0f 84 f3 fc ff ff    	je     8ffa <free@plt+0x854a>
    9307:	48 8d 35 69 58 01 00 	lea    rsi,[rip+0x15869]        # 1eb77 <realloc@@GLIBC_2.2.5+0x4c47>
    930e:	ba 1a 00 00 00       	mov    edx,0x1a
    9313:	4c 89 ff             	mov    rdi,r15
    9316:	e8 b5 41 01 00       	call   1d4d0 <realloc@@GLIBC_2.2.5+0x35a0>
    931b:	85 c0                	test   eax,eax
    931d:	0f 84 d7 fc ff ff    	je     8ffa <free@plt+0x854a>
    9323:	48 8d 35 68 58 01 00 	lea    rsi,[rip+0x15868]        # 1eb92 <realloc@@GLIBC_2.2.5+0x4c62>
    932a:	ba 05 00 00 00       	mov    edx,0x5
    932f:	4c 89 ff             	mov    rdi,r15
    9332:	e8 99 41 01 00       	call   1d4d0 <realloc@@GLIBC_2.2.5+0x35a0>
    9337:	85 c0                	test   eax,eax
    9339:	0f 84 bb fc ff ff    	je     8ffa <free@plt+0x854a>
    933f:	48 8d 35 52 58 01 00 	lea    rsi,[rip+0x15852]        # 1eb98 <realloc@@GLIBC_2.2.5+0x4c68>
    9346:	ba 09 00 00 00       	mov    edx,0x9
    934b:	4c 89 ff             	mov    rdi,r15
    934e:	e8 7d 41 01 00       	call   1d4d0 <realloc@@GLIBC_2.2.5+0x35a0>
    9353:	85 c0                	test   eax,eax
    9355:	0f 84 9f fc ff ff    	je     8ffa <free@plt+0x854a>
    935b:	4d 85 e4             	test   r12,r12
    935e:	0f 85 57 fc ff ff    	jne    8fbb <free@plt+0x850b>
    9364:	48 8d 44 ed 00       	lea    rax,[rbp+rbp*8+0x0]
    9369:	48 c1 e0 04          	shl    rax,0x4
    936d:	49 8b 14 06          	mov    rdx,QWORD PTR [r14+rax*1]
    9371:	e9 48 fc ff ff       	jmp    8fbe <free@plt+0x850e>
    9376:	44 8b 15 eb ca 21 00 	mov    r10d,DWORD PTR [rip+0x21caeb]        # 225e68 <__libc_enable_secure@@GLIBC_PRIVATE>
    937d:	45 85 d2             	test   r10d,r10d
    9380:	0f 85 7e fc ff ff    	jne    9004 <free@plt+0x8554>
    9386:	e9 fa fb ff ff       	jmp    8f85 <free@plt+0x84d5>
    938b:	48 c7 44 24 60 00 00 	mov    QWORD PTR [rsp+0x60],0x0
    9392:	00 00 
    9394:	e9 2a f7 ff ff       	jmp    8ac3 <free@plt+0x8013>
    9399:	48 8d 0d a8 80 01 00 	lea    rcx,[rip+0x180a8]        # 21448 <realloc@@GLIBC_2.2.5+0x7518>
    93a0:	48 8d 35 bd 65 01 00 	lea    rsi,[rip+0x165bd]        # 1f964 <realloc@@GLIBC_2.2.5+0x5a34>
    93a7:	48 8d 3d 70 66 01 00 	lea    rdi,[rip+0x16670]        # 1fa1e <realloc@@GLIBC_2.2.5+0x5aee>
    93ae:	ba 7f 08 00 00       	mov    edx,0x87f
    93b3:	e8 28 0b 01 00       	call   19ee0 <free@@GLIBC_2.2.5+0x160>
    93b8:	4c 89 f7             	mov    rdi,r14
    93bb:	e8 f0 76 ff ff       	call   ab0 <free@plt>
    93c0:	48 8d 0d 89 7c 01 00 	lea    rcx,[rip+0x17c89]        # 21050 <realloc@@GLIBC_2.2.5+0x7120>
    93c7:	31 d2                	xor    edx,edx
    93c9:	48 89 de             	mov    rsi,rbx
    93cc:	bf 0c 00 00 00       	mov    edi,0xc
    93d1:	e8 1a 6d 00 00       	call   100f0 <_dl_rtld_di_serinfo@@GLIBC_PRIVATE+0x6c70>
    93d6:	48 8d 0d 6b 80 01 00 	lea    rcx,[rip+0x1806b]        # 21448 <realloc@@GLIBC_2.2.5+0x7518>
    93dd:	48 8d 35 80 65 01 00 	lea    rsi,[rip+0x16580]        # 1f964 <realloc@@GLIBC_2.2.5+0x5a34>
    93e4:	48 8d 3d 3d 66 01 00 	lea    rdi,[rip+0x1663d]        # 1fa28 <realloc@@GLIBC_2.2.5+0x5af8>
    93eb:	ba 80 08 00 00       	mov    edx,0x880
    93f0:	e8 eb 0a 01 00       	call   19ee0 <free@@GLIBC_2.2.5+0x160>
    93f5:	48 8b 81 b8 00 00 00 	mov    rax,QWORD PTR [rcx+0xb8]
    93fc:	48 85 c0             	test   rax,rax
    93ff:	74 6a                	je     946b <free@plt+0x89bb>
    9401:	48 8b 7c 24 30       	mov    rdi,QWORD PTR [rsp+0x30]
    9406:	48 8b 70 08          	mov    rsi,QWORD PTR [rax+0x8]
    940a:	48 8d 0d f4 65 01 00 	lea    rcx,[rip+0x165f4]        # 1fa05 <realloc@@GLIBC_2.2.5+0x5ad5>
    9411:	4c 89 54 24 20       	mov    QWORD PTR [rsp+0x20],r10
    9416:	48 8b 57 68          	mov    rdx,QWORD PTR [rdi+0x68]
    941a:	48 03 72 08          	add    rsi,QWORD PTR [rdx+0x8]
    941e:	48 89 fa             	mov    rdx,rdi
    9421:	4c 89 d7             	mov    rdi,r10
    9424:	e8 07 ed ff ff       	call   8130 <free@plt+0x7680>
    9429:	84 c0                	test   al,al
    942b:	4c 8b 54 24 20       	mov    r10,QWORD PTR [rsp+0x20]
    9430:	0f 84 5f f7 ff ff    	je     8b95 <free@plt+0x80e5>
    9436:	e9 9d fc ff ff       	jmp    90d8 <free@plt+0x8628>
    943b:	48 8d 0d 9e 8f 01 00 	lea    rcx,[rip+0x18f9e]        # 223e0 <realloc@@GLIBC_2.2.5+0x84b0>
    9442:	48 8d 35 1b 65 01 00 	lea    rsi,[rip+0x1651b]        # 1f964 <realloc@@GLIBC_2.2.5+0x5a34>
    9449:	48 8d 3d 90 7e 01 00 	lea    rdi,[rip+0x17e90]        # 212e0 <realloc@@GLIBC_2.2.5+0x73b0>
    9450:	ba 7b 01 00 00       	mov    edx,0x17b
    9455:	e8 86 0a 01 00       	call   19ee0 <free@@GLIBC_2.2.5+0x160>
    945a:	49 c7 84 24 a8 03 00 	mov    QWORD PTR [r12+0x3a8],0xffffffffffffffff
    9461:	00 ff ff ff ff 
    9466:	e9 04 fb ff ff       	jmp    8f6f <free@plt+0x84bf>
    946b:	48 8b 44 24 30       	mov    rax,QWORD PTR [rsp+0x30]
    9470:	48 c7 80 18 03 00 00 	mov    QWORD PTR [rax+0x318],0xffffffffffffffff
    9477:	ff ff ff ff 
    947b:	e9 15 f7 ff ff       	jmp    8b95 <free@plt+0x80e5>

0000000000009480 <_dl_rtld_di_serinfo@@GLIBC_PRIVATE>:
    9480:	41 57                	push   r15
    9482:	41 56                	push   r14
    9484:	49 89 f7             	mov    r15,rsi
    9487:	41 55                	push   r13
    9489:	41 54                	push   r12
    948b:	41 89 d3             	mov    r11d,edx
    948e:	55                   	push   rbp
    948f:	53                   	push   rbx
    9490:	41 89 d4             	mov    r12d,edx
    9493:	48 83 ec 28          	sub    rsp,0x28
    9497:	84 d2                	test   dl,dl
    9499:	48 89 3c 24          	mov    QWORD PTR [rsp],rdi
    949d:	0f 85 fd 01 00 00    	jne    96a0 <_dl_rtld_di_serinfo@@GLIBC_PRIVATE+0x220>
    94a3:	44 8b 6e 08          	mov    r13d,DWORD PTR [rsi+0x8]
    94a7:	48 89 f8             	mov    rax,rdi
    94aa:	49 83 c5 01          	add    r13,0x1
    94ae:	45 31 f6             	xor    r14d,r14d
    94b1:	49 c1 e5 04          	shl    r13,0x4
    94b5:	4d 01 fd             	add    r13,r15
    94b8:	48 83 b8 28 01 00 00 	cmp    QWORD PTR [rax+0x128],0x0
    94bf:	00 
    94c0:	0f 84 0a 03 00 00    	je     97d0 <_dl_rtld_di_serinfo@@GLIBC_PRIVATE+0x350>
    94c6:	48 8b 2d 73 c9 21 00 	mov    rbp,QWORD PTR [rip+0x21c973]        # 225e40 <_rtld_global_ro@@GLIBC_PRIVATE+0x1a0>
    94cd:	48 83 fd ff          	cmp    rbp,0xffffffffffffffff
    94d1:	0f 84 b4 00 00 00    	je     958b <_dl_rtld_di_serinfo@@GLIBC_PRIVATE+0x10b>
    94d7:	45 84 e4             	test   r12b,r12b
    94da:	75 6c                	jne    9548 <_dl_rtld_di_serinfo@@GLIBC_PRIVATE+0xc8>
    94dc:	44 89 f3             	mov    ebx,r14d
    94df:	eb 2f                	jmp    9510 <_dl_rtld_di_serinfo@@GLIBC_PRIVATE+0x90>
    94e1:	0f 1f 80 00 00 00 00 	nop    DWORD PTR [rax+0x0]
    94e8:	48 8b 70 18          	mov    rsi,QWORD PTR [rax+0x18]
    94ec:	48 83 ea 01          	sub    rdx,0x1
    94f0:	4c 89 ef             	mov    rdi,r13
    94f3:	e8 28 46 01 00       	call   1db20 <realloc@@GLIBC_2.2.5+0x3bf0>
    94f8:	c6 00 00             	mov    BYTE PTR [rax],0x0
    94fb:	c7 43 18 00 00 00 00 	mov    DWORD PTR [rbx+0x18],0x0
    9502:	4c 8d 68 01          	lea    r13,[rax+0x1]
    9506:	48 83 7d 00 00       	cmp    QWORD PTR [rbp+0x0],0x0
    950b:	44 89 f3             	mov    ebx,r14d
    950e:	74 7b                	je     958b <_dl_rtld_di_serinfo@@GLIBC_PRIVATE+0x10b>
    9510:	48 83 c5 08          	add    rbp,0x8
    9514:	48 8b 45 f8          	mov    rax,QWORD PTR [rbp-0x8]
    9518:	48 c1 e3 04          	shl    rbx,0x4
    951c:	4c 01 fb             	add    rbx,r15
    951f:	41 83 c6 01          	add    r14d,0x1
    9523:	4c 89 6b 10          	mov    QWORD PTR [rbx+0x10],r13
    9527:	48 8b 50 20          	mov    rdx,QWORD PTR [rax+0x20]
    952b:	48 83 fa 01          	cmp    rdx,0x1
    952f:	77 b7                	ja     94e8 <_dl_rtld_di_serinfo@@GLIBC_PRIVATE+0x68>
    9531:	48 83 fa 01          	cmp    rdx,0x1
    9535:	49 8d 45 01          	lea    rax,[r13+0x1]
    9539:	19 d2                	sbb    edx,edx
    953b:	83 c2 2f             	add    edx,0x2f
    953e:	41 88 55 00          	mov    BYTE PTR [r13+0x0],dl
    9542:	eb b4                	jmp    94f8 <_dl_rtld_di_serinfo@@GLIBC_PRIVATE+0x78>
    9544:	0f 1f 40 00          	nop    DWORD PTR [rax+0x0]
    9548:	41 8b 47 08          	mov    eax,DWORD PTR [r15+0x8]
    954c:	49 8b 0f             	mov    rcx,QWORD PTR [r15]
    954f:	be 02 00 00 00       	mov    esi,0x2
    9554:	8d 50 01             	lea    edx,[rax+0x1]
    9557:	eb 09                	jmp    9562 <_dl_rtld_di_serinfo@@GLIBC_PRIVATE+0xe2>
    9559:	0f 1f 80 00 00 00 00 	nop    DWORD PTR [rax+0x0]
    9560:	89 c2                	mov    edx,eax
    9562:	48 83 c5 08          	add    rbp,0x8
    9566:	48 8b 45 f8          	mov    rax,QWORD PTR [rbp-0x8]
    956a:	48 89 f7             	mov    rdi,rsi
    956d:	48 83 78 20 02       	cmp    QWORD PTR [rax+0x20],0x2
    9572:	48 0f 43 78 20       	cmovae rdi,QWORD PTR [rax+0x20]
    9577:	8d 42 01             	lea    eax,[rdx+0x1]
    957a:	48 01 f9             	add    rcx,rdi
    957d:	48 83 7d 00 00       	cmp    QWORD PTR [rbp+0x0],0x0
    9582:	75 dc                	jne    9560 <_dl_rtld_di_serinfo@@GLIBC_PRIVATE+0xe0>
    9584:	41 89 57 08          	mov    DWORD PTR [r15+0x8],edx
    9588:	49 89 0f             	mov    QWORD PTR [r15],rcx
    958b:	48 8b 04 24          	mov    rax,QWORD PTR [rsp]
    958f:	48 8b 98 a8 03 00 00 	mov    rbx,QWORD PTR [rax+0x3a8]
    9596:	48 83 fb ff          	cmp    rbx,0xffffffffffffffff
    959a:	0f 84 d0 00 00 00    	je     9670 <_dl_rtld_di_serinfo@@GLIBC_PRIVATE+0x1f0>
    95a0:	48 85 db             	test   rbx,rbx
    95a3:	74 7b                	je     9620 <_dl_rtld_di_serinfo@@GLIBC_PRIVATE+0x1a0>
    95a5:	45 84 e4             	test   r12b,r12b
    95a8:	0f 85 d2 01 00 00    	jne    9780 <_dl_rtld_di_serinfo@@GLIBC_PRIVATE+0x300>
    95ae:	44 89 f5             	mov    ebp,r14d
    95b1:	eb 30                	jmp    95e3 <_dl_rtld_di_serinfo@@GLIBC_PRIVATE+0x163>
    95b3:	0f 1f 44 00 00       	nop    DWORD PTR [rax+rax*1+0x0]
    95b8:	48 8b 70 18          	mov    rsi,QWORD PTR [rax+0x18]
    95bc:	48 83 ea 01          	sub    rdx,0x1
    95c0:	4c 89 ef             	mov    rdi,r13
    95c3:	e8 58 45 01 00       	call   1db20 <realloc@@GLIBC_2.2.5+0x3bf0>
    95c8:	c6 00 00             	mov    BYTE PTR [rax],0x0
    95cb:	c7 45 18 00 00 00 00 	mov    DWORD PTR [rbp+0x18],0x0
    95d2:	4c 8d 68 01          	lea    r13,[rax+0x1]
    95d6:	48 83 3b 00          	cmp    QWORD PTR [rbx],0x0
    95da:	44 89 f5             	mov    ebp,r14d
    95dd:	0f 84 8d 00 00 00    	je     9670 <_dl_rtld_di_serinfo@@GLIBC_PRIVATE+0x1f0>
    95e3:	48 83 c3 08          	add    rbx,0x8
    95e7:	48 8b 43 f8          	mov    rax,QWORD PTR [rbx-0x8]
    95eb:	48 c1 e5 04          	shl    rbp,0x4
    95ef:	4c 01 fd             	add    rbp,r15
    95f2:	41 83 c6 01          	add    r14d,0x1
    95f6:	4c 89 6d 10          	mov    QWORD PTR [rbp+0x10],r13
    95fa:	48 8b 50 20          	mov    rdx,QWORD PTR [rax+0x20]
    95fe:	48 83 fa 01          	cmp    rdx,0x1
    9602:	77 b4                	ja     95b8 <_dl_rtld_di_serinfo@@GLIBC_PRIVATE+0x138>
    9604:	48 83 fa 01          	cmp    rdx,0x1
    9608:	49 8d 45 01          	lea    rax,[r13+0x1]
    960c:	19 d2                	sbb    edx,edx
    960e:	83 c2 2f             	add    edx,0x2f
    9611:	41 88 55 00          	mov    BYTE PTR [r13+0x0],dl
    9615:	eb b1                	jmp    95c8 <_dl_rtld_di_serinfo@@GLIBC_PRIVATE+0x148>
    9617:	66 0f 1f 84 00 00 00 	nop    WORD PTR [rax+rax*1+0x0]
    961e:	00 00 
    9620:	48 8b 80 28 01 00 00 	mov    rax,QWORD PTR [rax+0x128]
    9627:	48 85 c0             	test   rax,rax
    962a:	0f 84 e7 03 00 00    	je     9a17 <_dl_rtld_di_serinfo@@GLIBC_PRIVATE+0x597>
    9630:	48 8b 0c 24          	mov    rcx,QWORD PTR [rsp]
    9634:	48 8b 70 08          	mov    rsi,QWORD PTR [rax+0x8]
    9638:	48 8b 51 68          	mov    rdx,QWORD PTR [rcx+0x68]
    963c:	48 8d b9 a8 03 00 00 	lea    rdi,[rcx+0x3a8]
    9643:	48 03 72 08          	add    rsi,QWORD PTR [rdx+0x8]
    9647:	48 89 ca             	mov    rdx,rcx
    964a:	48 8d 0d ac 63 01 00 	lea    rcx,[rip+0x163ac]        # 1f9fd <realloc@@GLIBC_2.2.5+0x5acd>
    9651:	e8 da ea ff ff       	call   8130 <free@plt+0x7680>
    9656:	84 c0                	test   al,al
    9658:	74 16                	je     9670 <_dl_rtld_di_serinfo@@GLIBC_PRIVATE+0x1f0>
    965a:	48 8b 04 24          	mov    rax,QWORD PTR [rsp]
    965e:	48 8b 98 a8 03 00 00 	mov    rbx,QWORD PTR [rax+0x3a8]
    9665:	48 83 fb ff          	cmp    rbx,0xffffffffffffffff
    9669:	0f 85 36 ff ff ff    	jne    95a5 <_dl_rtld_di_serinfo@@GLIBC_PRIVATE+0x125>
    966f:	90                   	nop
    9670:	48 8b 04 24          	mov    rax,QWORD PTR [rsp]
    9674:	f6 80 d5 03 00 00 08 	test   BYTE PTR [rax+0x3d5],0x8
    967b:	74 43                	je     96c0 <_dl_rtld_di_serinfo@@GLIBC_PRIVATE+0x240>
    967d:	45 84 e4             	test   r12b,r12b
    9680:	74 0f                	je     9691 <_dl_rtld_di_serinfo@@GLIBC_PRIVATE+0x211>
    9682:	41 8b 47 08          	mov    eax,DWORD PTR [r15+0x8]
    9686:	48 83 c0 01          	add    rax,0x1
    968a:	48 c1 e0 04          	shl    rax,0x4
    968e:	49 01 07             	add    QWORD PTR [r15],rax
    9691:	48 83 c4 28          	add    rsp,0x28
    9695:	5b                   	pop    rbx
    9696:	5d                   	pop    rbp
    9697:	41 5c                	pop    r12
    9699:	41 5d                	pop    r13
    969b:	41 5e                	pop    r14
    969d:	41 5f                	pop    r15
    969f:	c3                   	ret
    96a0:	c7 46 08 00 00 00 00 	mov    DWORD PTR [rsi+0x8],0x0
    96a7:	48 c7 06 00 00 00 00 	mov    QWORD PTR [rsi],0x0
    96ae:	45 31 ed             	xor    r13d,r13d
    96b1:	48 89 f8             	mov    rax,rdi
    96b4:	e9 f1 fd ff ff       	jmp    94aa <_dl_rtld_di_serinfo@@GLIBC_PRIVATE+0x2a>
    96b9:	0f 1f 80 00 00 00 00 	nop    DWORD PTR [rax+0x0]
    96c0:	48 8b 2d 49 c7 21 00 	mov    rbp,QWORD PTR [rip+0x21c749]        # 225e10 <_rtld_global_ro@@GLIBC_PRIVATE+0x170>
    96c7:	48 83 fd ff          	cmp    rbp,0xffffffffffffffff
    96cb:	74 b0                	je     967d <_dl_rtld_di_serinfo@@GLIBC_PRIVATE+0x1fd>
    96cd:	45 84 e4             	test   r12b,r12b
    96d0:	74 7b                	je     974d <_dl_rtld_di_serinfo@@GLIBC_PRIVATE+0x2cd>
    96d2:	41 8b 47 08          	mov    eax,DWORD PTR [r15+0x8]
    96d6:	49 8b 0f             	mov    rcx,QWORD PTR [r15]
    96d9:	be 02 00 00 00       	mov    esi,0x2
    96de:	8d 50 01             	lea    edx,[rax+0x1]
    96e1:	eb 07                	jmp    96ea <_dl_rtld_di_serinfo@@GLIBC_PRIVATE+0x26a>
    96e3:	0f 1f 44 00 00       	nop    DWORD PTR [rax+rax*1+0x0]
    96e8:	89 c2                	mov    edx,eax
    96ea:	48 83 c5 08          	add    rbp,0x8
    96ee:	48 8b 45 f8          	mov    rax,QWORD PTR [rbp-0x8]
    96f2:	48 89 f7             	mov    rdi,rsi
    96f5:	48 83 78 20 02       	cmp    QWORD PTR [rax+0x20],0x2
    96fa:	48 0f 43 78 20       	cmovae rdi,QWORD PTR [rax+0x20]
    96ff:	8d 42 01             	lea    eax,[rdx+0x1]
    9702:	48 01 f9             	add    rcx,rdi
    9705:	48 83 7d 00 00       	cmp    QWORD PTR [rbp+0x0],0x0
    970a:	75 dc                	jne    96e8 <_dl_rtld_di_serinfo@@GLIBC_PRIVATE+0x268>
    970c:	41 89 57 08          	mov    DWORD PTR [r15+0x8],edx
    9710:	49 89 0f             	mov    QWORD PTR [r15],rcx
    9713:	e9 6a ff ff ff       	jmp    9682 <_dl_rtld_di_serinfo@@GLIBC_PRIVATE+0x202>
    9718:	0f 1f 84 00 00 00 00 	nop    DWORD PTR [rax+rax*1+0x0]
    971f:	00 
    9720:	48 8b 70 18          	mov    rsi,QWORD PTR [rax+0x18]
    9724:	48 83 ea 01          	sub    rdx,0x1
    9728:	4c 89 ef             	mov    rdi,r13
    972b:	e8 f0 43 01 00       	call   1db20 <realloc@@GLIBC_2.2.5+0x3bf0>
    9730:	c6 00 00             	mov    BYTE PTR [rax],0x0
    9733:	41 83 c6 01          	add    r14d,0x1
    9737:	c7 43 18 00 00 00 00 	mov    DWORD PTR [rbx+0x18],0x0
    973e:	48 83 7d 00 00       	cmp    QWORD PTR [rbp+0x0],0x0
    9743:	4c 8d 68 01          	lea    r13,[rax+0x1]
    9747:	0f 84 44 ff ff ff    	je     9691 <_dl_rtld_di_serinfo@@GLIBC_PRIVATE+0x211>
    974d:	48 83 c5 08          	add    rbp,0x8
    9751:	48 8b 45 f8          	mov    rax,QWORD PTR [rbp-0x8]
    9755:	44 89 f3             	mov    ebx,r14d
    9758:	48 c1 e3 04          	shl    rbx,0x4
    975c:	4c 01 fb             	add    rbx,r15
    975f:	48 8b 50 20          	mov    rdx,QWORD PTR [rax+0x20]
    9763:	4c 89 6b 10          	mov    QWORD PTR [rbx+0x10],r13
    9767:	48 83 fa 01          	cmp    rdx,0x1
    976b:	77 b3                	ja     9720 <_dl_rtld_di_serinfo@@GLIBC_PRIVATE+0x2a0>
    976d:	48 83 fa 01          	cmp    rdx,0x1
    9771:	49 8d 45 01          	lea    rax,[r13+0x1]
    9775:	19 d2                	sbb    edx,edx
    9777:	83 c2 2f             	add    edx,0x2f
    977a:	41 88 55 00          	mov    BYTE PTR [r13+0x0],dl
    977e:	eb b0                	jmp    9730 <_dl_rtld_di_serinfo@@GLIBC_PRIVATE+0x2b0>
    9780:	41 8b 47 08          	mov    eax,DWORD PTR [r15+0x8]
    9784:	49 8b 0f             	mov    rcx,QWORD PTR [r15]
    9787:	be 02 00 00 00       	mov    esi,0x2
    978c:	8d 50 01             	lea    edx,[rax+0x1]
    978f:	eb 09                	jmp    979a <_dl_rtld_di_serinfo@@GLIBC_PRIVATE+0x31a>
    9791:	0f 1f 80 00 00 00 00 	nop    DWORD PTR [rax+0x0]
    9798:	89 c2                	mov    edx,eax
    979a:	48 83 c3 08          	add    rbx,0x8
    979e:	48 8b 43 f8          	mov    rax,QWORD PTR [rbx-0x8]
    97a2:	48 89 f7             	mov    rdi,rsi
    97a5:	48 83 78 20 02       	cmp    QWORD PTR [rax+0x20],0x2
    97aa:	48 0f 43 78 20       	cmovae rdi,QWORD PTR [rax+0x20]
    97af:	8d 42 01             	lea    eax,[rdx+0x1]
    97b2:	48 01 f9             	add    rcx,rdi
    97b5:	48 83 3b 00          	cmp    QWORD PTR [rbx],0x0
    97b9:	75 dd                	jne    9798 <_dl_rtld_di_serinfo@@GLIBC_PRIVATE+0x318>
    97bb:	41 89 57 08          	mov    DWORD PTR [r15+0x8],edx
    97bf:	49 89 0f             	mov    QWORD PTR [r15],rcx
    97c2:	e9 a9 fe ff ff       	jmp    9670 <_dl_rtld_di_serinfo@@GLIBC_PRIVATE+0x1f0>
    97c7:	66 0f 1f 84 00 00 00 	nop    WORD PTR [rax+rax*1+0x0]
    97ce:	00 00 
    97d0:	49 89 c1             	mov    r9,rax
    97d3:	41 ba 02 00 00 00    	mov    r10d,0x2
    97d9:	0f 1f 80 00 00 00 00 	nop    DWORD PTR [rax+0x0]
    97e0:	49 8b 99 18 03 00 00 	mov    rbx,QWORD PTR [r9+0x318]
    97e7:	48 83 fb ff          	cmp    rbx,0xffffffffffffffff
    97eb:	0f 84 ff 00 00 00    	je     98f0 <_dl_rtld_di_serinfo@@GLIBC_PRIVATE+0x470>
    97f1:	48 85 db             	test   rbx,rbx
    97f4:	0f 84 96 00 00 00    	je     9890 <_dl_rtld_di_serinfo@@GLIBC_PRIVATE+0x410>
    97fa:	45 84 db             	test   r11b,r11b
    97fd:	0f 85 c5 01 00 00    	jne    99c8 <_dl_rtld_di_serinfo@@GLIBC_PRIVATE+0x548>
    9803:	44 89 f5             	mov    ebp,r14d
    9806:	eb 52                	jmp    985a <_dl_rtld_di_serinfo@@GLIBC_PRIVATE+0x3da>
    9808:	0f 1f 84 00 00 00 00 	nop    DWORD PTR [rax+rax*1+0x0]
    980f:	00 
    9810:	48 8b 70 18          	mov    rsi,QWORD PTR [rax+0x18]
    9814:	48 83 ea 01          	sub    rdx,0x1
    9818:	4c 89 ef             	mov    rdi,r13
    981b:	4c 89 54 24 18       	mov    QWORD PTR [rsp+0x18],r10
    9820:	44 88 5c 24 17       	mov    BYTE PTR [rsp+0x17],r11b
    9825:	4c 89 4c 24 08       	mov    QWORD PTR [rsp+0x8],r9
    982a:	e8 f1 42 01 00       	call   1db20 <realloc@@GLIBC_2.2.5+0x3bf0>
    982f:	44 0f b6 5c 24 17    	movzx  r11d,BYTE PTR [rsp+0x17]
    9835:	4c 8b 4c 24 08       	mov    r9,QWORD PTR [rsp+0x8]
    983a:	4c 8b 54 24 18       	mov    r10,QWORD PTR [rsp+0x18]
    983f:	c6 00 00             	mov    BYTE PTR [rax],0x0
    9842:	c7 45 18 00 00 00 00 	mov    DWORD PTR [rbp+0x18],0x0
    9849:	4c 8d 68 01          	lea    r13,[rax+0x1]
    984d:	48 83 3b 00          	cmp    QWORD PTR [rbx],0x0
    9851:	44 89 f5             	mov    ebp,r14d
    9854:	0f 84 96 00 00 00    	je     98f0 <_dl_rtld_di_serinfo@@GLIBC_PRIVATE+0x470>
    985a:	48 83 c3 08          	add    rbx,0x8
    985e:	48 8b 43 f8          	mov    rax,QWORD PTR [rbx-0x8]
    9862:	48 c1 e5 04          	shl    rbp,0x4
    9866:	4c 01 fd             	add    rbp,r15
    9869:	41 83 c6 01          	add    r14d,0x1
    986d:	4c 89 6d 10          	mov    QWORD PTR [rbp+0x10],r13
    9871:	48 8b 50 20          	mov    rdx,QWORD PTR [rax+0x20]
    9875:	48 83 fa 01          	cmp    rdx,0x1
    9879:	77 95                	ja     9810 <_dl_rtld_di_serinfo@@GLIBC_PRIVATE+0x390>
    987b:	48 83 fa 01          	cmp    rdx,0x1
    987f:	49 8d 45 01          	lea    rax,[r13+0x1]
    9883:	19 d2                	sbb    edx,edx
    9885:	83 c2 2f             	add    edx,0x2f
    9888:	41 88 55 00          	mov    BYTE PTR [r13+0x0],dl
    988c:	eb b1                	jmp    983f <_dl_rtld_di_serinfo@@GLIBC_PRIVATE+0x3bf>
    988e:	66 90                	xchg   ax,ax
    9890:	49 8b 81 b8 00 00 00 	mov    rax,QWORD PTR [r9+0xb8]
    9897:	48 85 c0             	test   rax,rax
    989a:	0f 84 8b 01 00 00    	je     9a2b <_dl_rtld_di_serinfo@@GLIBC_PRIVATE+0x5ab>
    98a0:	49 8b 51 68          	mov    rdx,QWORD PTR [r9+0x68]
    98a4:	48 8b 70 08          	mov    rsi,QWORD PTR [rax+0x8]
    98a8:	49 8d b9 18 03 00 00 	lea    rdi,[r9+0x318]
    98af:	48 8d 0d 4f 61 01 00 	lea    rcx,[rip+0x1614f]        # 1fa05 <realloc@@GLIBC_2.2.5+0x5ad5>
    98b6:	4c 89 54 24 18       	mov    QWORD PTR [rsp+0x18],r10
    98bb:	44 88 5c 24 17       	mov    BYTE PTR [rsp+0x17],r11b
    98c0:	4c 89 4c 24 08       	mov    QWORD PTR [rsp+0x8],r9
    98c5:	48 03 72 08          	add    rsi,QWORD PTR [rdx+0x8]
    98c9:	4c 89 ca             	mov    rdx,r9
    98cc:	e8 5f e8 ff ff       	call   8130 <free@plt+0x7680>
    98d1:	84 c0                	test   al,al
    98d3:	4c 8b 4c 24 08       	mov    r9,QWORD PTR [rsp+0x8]
    98d8:	44 0f b6 5c 24 17    	movzx  r11d,BYTE PTR [rsp+0x17]
    98de:	4c 8b 54 24 18       	mov    r10,QWORD PTR [rsp+0x18]
    98e3:	0f 85 e2 01 00 00    	jne    9acb <_dl_rtld_di_serinfo@@GLIBC_PRIVATE+0x64b>
    98e9:	0f 1f 80 00 00 00 00 	nop    DWORD PTR [rax+0x0]
    98f0:	4d 8b 89 d8 02 00 00 	mov    r9,QWORD PTR [r9+0x2d8]
    98f7:	4d 85 c9             	test   r9,r9
    98fa:	0f 85 e0 fe ff ff    	jne    97e0 <_dl_rtld_di_serinfo@@GLIBC_PRIVATE+0x360>
    9900:	48 8b 0c 24          	mov    rcx,QWORD PTR [rsp]
    9904:	48 83 79 30 00       	cmp    QWORD PTR [rcx+0x30],0x0
    9909:	0f 85 b7 fb ff ff    	jne    94c6 <_dl_rtld_di_serinfo@@GLIBC_PRIVATE+0x46>
    990f:	48 8b 2d 2a c7 21 00 	mov    rbp,QWORD PTR [rip+0x21c72a]        # 226040 <_rtld_global@@GLIBC_PRIVATE>
    9916:	48 85 ed             	test   rbp,rbp
    9919:	0f 84 a7 fb ff ff    	je     94c6 <_dl_rtld_di_serinfo@@GLIBC_PRIVATE+0x46>
    991f:	0f b6 85 14 03 00 00 	movzx  eax,BYTE PTR [rbp+0x314]
    9926:	83 e0 03             	and    eax,0x3
    9929:	3c 02                	cmp    al,0x2
    992b:	0f 84 95 fb ff ff    	je     94c6 <_dl_rtld_di_serinfo@@GLIBC_PRIVATE+0x46>
    9931:	48 39 e9             	cmp    rcx,rbp
    9934:	0f 84 8c fb ff ff    	je     94c6 <_dl_rtld_di_serinfo@@GLIBC_PRIVATE+0x46>
    993a:	48 8b 9d 18 03 00 00 	mov    rbx,QWORD PTR [rbp+0x318]
    9941:	48 83 fb ff          	cmp    rbx,0xffffffffffffffff
    9945:	0f 84 7b fb ff ff    	je     94c6 <_dl_rtld_di_serinfo@@GLIBC_PRIVATE+0x46>
    994b:	48 85 db             	test   rbx,rbx
    994e:	0f 84 2b 01 00 00    	je     9a7f <_dl_rtld_di_serinfo@@GLIBC_PRIVATE+0x5ff>
    9954:	45 84 e4             	test   r12b,r12b
    9957:	0f 85 de 00 00 00    	jne    9a3b <_dl_rtld_di_serinfo@@GLIBC_PRIVATE+0x5bb>
    995d:	44 89 f0             	mov    eax,r14d
    9960:	eb 2b                	jmp    998d <_dl_rtld_di_serinfo@@GLIBC_PRIVATE+0x50d>
    9962:	48 8b 71 18          	mov    rsi,QWORD PTR [rcx+0x18]
    9966:	48 83 ea 01          	sub    rdx,0x1
    996a:	4c 89 ef             	mov    rdi,r13
    996d:	e8 ae 41 01 00       	call   1db20 <realloc@@GLIBC_2.2.5+0x3bf0>
    9972:	c6 00 00             	mov    BYTE PTR [rax],0x0
    9975:	c7 45 18 00 00 00 00 	mov    DWORD PTR [rbp+0x18],0x0
    997c:	4c 8d 68 01          	lea    r13,[rax+0x1]
    9980:	48 83 3b 00          	cmp    QWORD PTR [rbx],0x0
    9984:	44 89 f0             	mov    eax,r14d
    9987:	0f 84 39 fb ff ff    	je     94c6 <_dl_rtld_di_serinfo@@GLIBC_PRIVATE+0x46>
    998d:	48 83 c3 08          	add    rbx,0x8
    9991:	48 8b 4b f8          	mov    rcx,QWORD PTR [rbx-0x8]
    9995:	48 c1 e0 04          	shl    rax,0x4
    9999:	49 8d 2c 07          	lea    rbp,[r15+rax*1]
    999d:	41 83 c6 01          	add    r14d,0x1
    99a1:	48 8b 51 20          	mov    rdx,QWORD PTR [rcx+0x20]
    99a5:	4c 89 6d 10          	mov    QWORD PTR [rbp+0x10],r13
    99a9:	48 83 fa 01          	cmp    rdx,0x1
    99ad:	77 b3                	ja     9962 <_dl_rtld_di_serinfo@@GLIBC_PRIVATE+0x4e2>
    99af:	48 83 fa 01          	cmp    rdx,0x1
    99b3:	49 8d 45 01          	lea    rax,[r13+0x1]
    99b7:	19 d2                	sbb    edx,edx
    99b9:	83 c2 2f             	add    edx,0x2f
    99bc:	41 88 55 00          	mov    BYTE PTR [r13+0x0],dl
    99c0:	eb b0                	jmp    9972 <_dl_rtld_di_serinfo@@GLIBC_PRIVATE+0x4f2>
    99c2:	66 0f 1f 44 00 00    	nop    WORD PTR [rax+rax*1+0x0]
    99c8:	41 8b 47 08          	mov    eax,DWORD PTR [r15+0x8]
    99cc:	49 8b 0f             	mov    rcx,QWORD PTR [r15]
    99cf:	8d 50 01             	lea    edx,[rax+0x1]
    99d2:	eb 06                	jmp    99da <_dl_rtld_di_serinfo@@GLIBC_PRIVATE+0x55a>
    99d4:	0f 1f 40 00          	nop    DWORD PTR [rax+0x0]
    99d8:	89 c2                	mov    edx,eax
    99da:	48 83 c3 08          	add    rbx,0x8
    99de:	48 8b 43 f8          	mov    rax,QWORD PTR [rbx-0x8]
    99e2:	4c 89 d6             	mov    rsi,r10
    99e5:	48 83 78 20 02       	cmp    QWORD PTR [rax+0x20],0x2
    99ea:	48 0f 43 70 20       	cmovae rsi,QWORD PTR [rax+0x20]
    99ef:	8d 42 01             	lea    eax,[rdx+0x1]
    99f2:	48 01 f1             	add    rcx,rsi
    99f5:	48 83 3b 00          	cmp    QWORD PTR [rbx],0x0
    99f9:	75 dd                	jne    99d8 <_dl_rtld_di_serinfo@@GLIBC_PRIVATE+0x558>
    99fb:	4d 8b 89 d8 02 00 00 	mov    r9,QWORD PTR [r9+0x2d8]
    9a02:	41 89 57 08          	mov    DWORD PTR [r15+0x8],edx
    9a06:	49 89 0f             	mov    QWORD PTR [r15],rcx
    9a09:	4d 85 c9             	test   r9,r9
    9a0c:	0f 85 ce fd ff ff    	jne    97e0 <_dl_rtld_di_serinfo@@GLIBC_PRIVATE+0x360>
    9a12:	e9 e9 fe ff ff       	jmp    9900 <_dl_rtld_di_serinfo@@GLIBC_PRIVATE+0x480>
    9a17:	48 8b 04 24          	mov    rax,QWORD PTR [rsp]
    9a1b:	48 c7 80 a8 03 00 00 	mov    QWORD PTR [rax+0x3a8],0xffffffffffffffff
    9a22:	ff ff ff ff 
    9a26:	e9 45 fc ff ff       	jmp    9670 <_dl_rtld_di_serinfo@@GLIBC_PRIVATE+0x1f0>
    9a2b:	49 c7 81 18 03 00 00 	mov    QWORD PTR [r9+0x318],0xffffffffffffffff
    9a32:	ff ff ff ff 
    9a36:	e9 b5 fe ff ff       	jmp    98f0 <_dl_rtld_di_serinfo@@GLIBC_PRIVATE+0x470>
    9a3b:	41 8b 47 08          	mov    eax,DWORD PTR [r15+0x8]
    9a3f:	49 8b 0f             	mov    rcx,QWORD PTR [r15]
    9a42:	be 02 00 00 00       	mov    esi,0x2
    9a47:	8d 50 01             	lea    edx,[rax+0x1]
    9a4a:	eb 06                	jmp    9a52 <_dl_rtld_di_serinfo@@GLIBC_PRIVATE+0x5d2>
    9a4c:	0f 1f 40 00          	nop    DWORD PTR [rax+0x0]
    9a50:	89 c2                	mov    edx,eax
    9a52:	48 83 c3 08          	add    rbx,0x8
    9a56:	48 8b 43 f8          	mov    rax,QWORD PTR [rbx-0x8]
    9a5a:	48 89 f7             	mov    rdi,rsi
    9a5d:	48 83 78 20 02       	cmp    QWORD PTR [rax+0x20],0x2
    9a62:	48 0f 43 78 20       	cmovae rdi,QWORD PTR [rax+0x20]
    9a67:	8d 42 01             	lea    eax,[rdx+0x1]
    9a6a:	48 01 f9             	add    rcx,rdi
    9a6d:	48 83 3b 00          	cmp    QWORD PTR [rbx],0x0
    9a71:	75 dd                	jne    9a50 <_dl_rtld_di_serinfo@@GLIBC_PRIVATE+0x5d0>
    9a73:	41 89 57 08          	mov    DWORD PTR [r15+0x8],edx
    9a77:	49 89 0f             	mov    QWORD PTR [r15],rcx
    9a7a:	e9 47 fa ff ff       	jmp    94c6 <_dl_rtld_di_serinfo@@GLIBC_PRIVATE+0x46>
    9a7f:	48 8b 85 b8 00 00 00 	mov    rax,QWORD PTR [rbp+0xb8]
    9a86:	48 85 c0             	test   rax,rax
    9a89:	74 56                	je     9ae1 <_dl_rtld_di_serinfo@@GLIBC_PRIVATE+0x661>
    9a8b:	48 8b 55 68          	mov    rdx,QWORD PTR [rbp+0x68]
    9a8f:	48 8b 70 08          	mov    rsi,QWORD PTR [rax+0x8]
    9a93:	48 8d bd 18 03 00 00 	lea    rdi,[rbp+0x318]
    9a9a:	48 8d 0d 64 5f 01 00 	lea    rcx,[rip+0x15f64]        # 1fa05 <realloc@@GLIBC_2.2.5+0x5ad5>
    9aa1:	48 03 72 08          	add    rsi,QWORD PTR [rdx+0x8]
    9aa5:	48 89 ea             	mov    rdx,rbp
    9aa8:	e8 83 e6 ff ff       	call   8130 <free@plt+0x7680>
    9aad:	84 c0                	test   al,al
    9aaf:	0f 84 11 fa ff ff    	je     94c6 <_dl_rtld_di_serinfo@@GLIBC_PRIVATE+0x46>
    9ab5:	48 8b 9d 18 03 00 00 	mov    rbx,QWORD PTR [rbp+0x318]
    9abc:	48 83 fb ff          	cmp    rbx,0xffffffffffffffff
    9ac0:	0f 84 00 fa ff ff    	je     94c6 <_dl_rtld_di_serinfo@@GLIBC_PRIVATE+0x46>
    9ac6:	e9 89 fe ff ff       	jmp    9954 <_dl_rtld_di_serinfo@@GLIBC_PRIVATE+0x4d4>
    9acb:	49 8b 99 18 03 00 00 	mov    rbx,QWORD PTR [r9+0x318]
    9ad2:	48 83 fb ff          	cmp    rbx,0xffffffffffffffff
    9ad6:	0f 84 14 fe ff ff    	je     98f0 <_dl_rtld_di_serinfo@@GLIBC_PRIVATE+0x470>
    9adc:	e9 19 fd ff ff       	jmp    97fa <_dl_rtld_di_serinfo@@GLIBC_PRIVATE+0x37a>
    9ae1:	48 c7 85 18 03 00 00 	mov    QWORD PTR [rbp+0x318],0xffffffffffffffff
    9ae8:	ff ff ff ff 
    9aec:	e9 d5 f9 ff ff       	jmp    94c6 <_dl_rtld_di_serinfo@@GLIBC_PRIVATE+0x46>
    9af1:	66 2e 0f 1f 84 00 00 	cs nop WORD PTR [rax+rax*1+0x0]
    9af8:	00 00 00 
    9afb:	0f 1f 44 00 00       	nop    DWORD PTR [rax+rax*1+0x0]
    9b00:	41 55                	push   r13
    9b02:	41 54                	push   r12
    9b04:	55                   	push   rbp
    9b05:	53                   	push   rbx
    9b06:	48 83 ec 08          	sub    rsp,0x8
    9b0a:	41 0f b6 41 04       	movzx  eax,BYTE PTR [r9+0x4]
    9b0f:	4c 8b 64 24 40       	mov    r12,QWORD PTR [rsp+0x40]
    9b14:	83 e0 0f             	and    eax,0xf
    9b17:	49 83 79 08 00       	cmp    QWORD PTR [r9+0x8],0x0
    9b1c:	75 08                	jne    9b26 <_dl_rtld_di_serinfo@@GLIBC_PRIVATE+0x6a6>
    9b1e:	3c 06                	cmp    al,0x6
    9b20:	0f 85 01 01 00 00    	jne    9c27 <_dl_rtld_di_serinfo@@GLIBC_PRIVATE+0x7a7>
    9b26:	45 31 d2             	xor    r10d,r10d
    9b29:	66 41 83 79 06 00    	cmp    WORD PTR [r9+0x6],0x0
    9b2f:	41 0f 94 c2          	sete   r10b
    9b33:	45 85 c2             	test   r10d,r8d
    9b36:	0f 85 eb 00 00 00    	jne    9c27 <_dl_rtld_di_serinfo@@GLIBC_PRIVATE+0x7a7>
    9b3c:	41 b8 67 04 00 00    	mov    r8d,0x467
    9b42:	41 0f a3 c0          	bt     r8d,eax
    9b46:	0f 83 db 00 00 00    	jae    9c27 <_dl_rtld_di_serinfo@@GLIBC_PRIVATE+0x7a7>
    9b4c:	48 89 f0             	mov    rax,rsi
    9b4f:	4c 89 cb             	mov    rbx,r9
    9b52:	41 89 cd             	mov    r13d,ecx
    9b55:	49 39 c1             	cmp    r9,rax
    9b58:	48 89 d5             	mov    rbp,rdx
    9b5b:	48 89 fe             	mov    rsi,rdi
    9b5e:	74 18                	je     9b78 <_dl_rtld_di_serinfo@@GLIBC_PRIVATE+0x6f8>
    9b60:	41 8b 01             	mov    eax,DWORD PTR [r9]
    9b63:	48 03 44 24 38       	add    rax,QWORD PTR [rsp+0x38]
    9b68:	48 89 c7             	mov    rdi,rax
    9b6b:	e8 c0 1d 01 00       	call   1b930 <realloc@@GLIBC_2.2.5+0x1a00>
    9b70:	85 c0                	test   eax,eax
    9b72:	0f 85 af 00 00 00    	jne    9c27 <_dl_rtld_di_serinfo@@GLIBC_PRIVATE+0x7a7>
    9b78:	48 85 ed             	test   rbp,rbp
    9b7b:	49 8b 84 24 30 03 00 	mov    rax,QWORD PTR [r12+0x330]
    9b82:	00 
    9b83:	74 5b                	je     9be0 <_dl_rtld_di_serinfo@@GLIBC_PRIVATE+0x760>
    9b85:	48 85 c0             	test   rax,rax
    9b88:	0f 84 ca 00 00 00    	je     9c58 <_dl_rtld_di_serinfo@@GLIBC_PRIVATE+0x7d8>
    9b8e:	8b 54 24 30          	mov    edx,DWORD PTR [rsp+0x30]
    9b92:	44 0f b7 2c 50       	movzx  r13d,WORD PTR [rax+rdx*2]
    9b97:	4c 89 e8             	mov    rax,r13
    9b9a:	25 ff 7f 00 00       	and    eax,0x7fff
    9b9f:	48 8d 14 40          	lea    rdx,[rax+rax*2]
    9ba3:	49 8b 84 24 e0 02 00 	mov    rax,QWORD PTR [r12+0x2e0]
    9baa:	00 
    9bab:	48 8d 04 d0          	lea    rax,[rax+rdx*8]
    9baf:	44 8b 60 08          	mov    r12d,DWORD PTR [rax+0x8]
    9bb3:	44 3b 65 08          	cmp    r12d,DWORD PTR [rbp+0x8]
    9bb7:	74 7f                	je     9c38 <_dl_rtld_di_serinfo@@GLIBC_PRIVATE+0x7b8>
    9bb9:	8b 45 0c             	mov    eax,DWORD PTR [rbp+0xc]
    9bbc:	85 c0                	test   eax,eax
    9bbe:	75 67                	jne    9c27 <_dl_rtld_di_serinfo@@GLIBC_PRIVATE+0x7a7>
    9bc0:	45 85 e4             	test   r12d,r12d
    9bc3:	75 62                	jne    9c27 <_dl_rtld_di_serinfo@@GLIBC_PRIVATE+0x7a7>
    9bc5:	66 45 85 ed          	test   r13w,r13w
    9bc9:	78 5c                	js     9c27 <_dl_rtld_di_serinfo@@GLIBC_PRIVATE+0x7a7>
    9bcb:	48 83 c4 08          	add    rsp,0x8
    9bcf:	48 89 d8             	mov    rax,rbx
    9bd2:	5b                   	pop    rbx
    9bd3:	5d                   	pop    rbp
    9bd4:	41 5c                	pop    r12
    9bd6:	41 5d                	pop    r13
    9bd8:	c3                   	ret
    9bd9:	0f 1f 80 00 00 00 00 	nop    DWORD PTR [rax+0x0]
    9be0:	48 85 c0             	test   rax,rax
    9be3:	74 e6                	je     9bcb <_dl_rtld_di_serinfo@@GLIBC_PRIVATE+0x74b>
    9be5:	8b 54 24 30          	mov    edx,DWORD PTR [rsp+0x30]
    9be9:	44 89 e9             	mov    ecx,r13d
    9bec:	c1 e1 1e             	shl    ecx,0x1e
    9bef:	c1 f9 1f             	sar    ecx,0x1f
    9bf2:	83 c1 03             	add    ecx,0x3
    9bf5:	0f b7 04 50          	movzx  eax,WORD PTR [rax+rdx*2]
    9bf9:	89 c2                	mov    edx,eax
    9bfb:	81 e2 ff 7f 00 00    	and    edx,0x7fff
    9c01:	39 d1                	cmp    ecx,edx
    9c03:	7f c6                	jg     9bcb <_dl_rtld_di_serinfo@@GLIBC_PRIVATE+0x74b>
    9c05:	66 85 c0             	test   ax,ax
    9c08:	78 1d                	js     9c27 <_dl_rtld_di_serinfo@@GLIBC_PRIVATE+0x7a7>
    9c0a:	48 8b 44 24 50       	mov    rax,QWORD PTR [rsp+0x50]
    9c0f:	48 8b 4c 24 50       	mov    rcx,QWORD PTR [rsp+0x50]
    9c14:	8b 00                	mov    eax,DWORD PTR [rax]
    9c16:	8d 50 01             	lea    edx,[rax+0x1]
    9c19:	85 c0                	test   eax,eax
    9c1b:	89 11                	mov    DWORD PTR [rcx],edx
    9c1d:	75 08                	jne    9c27 <_dl_rtld_di_serinfo@@GLIBC_PRIVATE+0x7a7>
    9c1f:	48 8b 44 24 48       	mov    rax,QWORD PTR [rsp+0x48]
    9c24:	48 89 18             	mov    QWORD PTR [rax],rbx
    9c27:	48 83 c4 08          	add    rsp,0x8
    9c2b:	31 c0                	xor    eax,eax
    9c2d:	5b                   	pop    rbx
    9c2e:	5d                   	pop    rbp
    9c2f:	41 5c                	pop    r12
    9c31:	41 5d                	pop    r13
    9c33:	c3                   	ret
    9c34:	0f 1f 40 00          	nop    DWORD PTR [rax+0x0]
    9c38:	48 8b 75 00          	mov    rsi,QWORD PTR [rbp+0x0]
    9c3c:	48 8b 38             	mov    rdi,QWORD PTR [rax]
    9c3f:	e8 ec 1c 01 00       	call   1b930 <realloc@@GLIBC_2.2.5+0x1a00>
    9c44:	85 c0                	test   eax,eax
    9c46:	0f 85 6d ff ff ff    	jne    9bb9 <_dl_rtld_di_serinfo@@GLIBC_PRIVATE+0x739>
    9c4c:	e9 7a ff ff ff       	jmp    9bcb <_dl_rtld_di_serinfo@@GLIBC_PRIVATE+0x74b>
    9c51:	0f 1f 80 00 00 00 00 	nop    DWORD PTR [rax+0x0]
    9c58:	48 8b 7d 10          	mov    rdi,QWORD PTR [rbp+0x10]
    9c5c:	48 85 ff             	test   rdi,rdi
    9c5f:	0f 84 66 ff ff ff    	je     9bcb <_dl_rtld_di_serinfo@@GLIBC_PRIVATE+0x74b>
    9c65:	4c 89 e6             	mov    rsi,r12
    9c68:	e8 43 7b 00 00       	call   117b0 <_dl_debug_state@@GLIBC_PRIVATE+0x920>
    9c6d:	85 c0                	test   eax,eax
    9c6f:	0f 84 56 ff ff ff    	je     9bcb <_dl_rtld_di_serinfo@@GLIBC_PRIVATE+0x74b>
    9c75:	48 8d 0d c4 79 01 00 	lea    rcx,[rip+0x179c4]        # 21640 <realloc@@GLIBC_2.2.5+0x7710>
    9c7c:	48 8d 35 d6 5d 01 00 	lea    rsi,[rip+0x15dd6]        # 1fa59 <realloc@@GLIBC_2.2.5+0x5b29>
    9c83:	48 8d 3d de 77 01 00 	lea    rdi,[rip+0x177de]        # 21468 <realloc@@GLIBC_2.2.5+0x7538>
    9c8a:	ba 80 00 00 00       	mov    edx,0x80
    9c8f:	e8 4c 02 01 00       	call   19ee0 <free@@GLIBC_2.2.5+0x160>
    9c94:	66 90                	xchg   ax,ax
    9c96:	66 2e 0f 1f 84 00 00 	cs nop WORD PTR [rax+rax*1+0x0]
    9c9d:	00 00 00 
    9ca0:	41 57                	push   r15
    9ca2:	41 56                	push   r14
    9ca4:	41 55                	push   r13
    9ca6:	41 54                	push   r12
    9ca8:	55                   	push   rbp
    9ca9:	53                   	push   rbx
    9caa:	48 81 ec 98 00 00 00 	sub    rsp,0x98
    9cb1:	45 8b 61 08          	mov    r12d,DWORD PTR [r9+0x8]
    9cb5:	48 89 7c 24 08       	mov    QWORD PTR [rsp+0x8],rdi
    9cba:	48 89 54 24 58       	mov    QWORD PTR [rsp+0x58],rdx
    9cbf:	48 89 4c 24 10       	mov    QWORD PTR [rsp+0x10],rcx
    9cc4:	4c 89 44 24 38       	mov    QWORD PTR [rsp+0x38],r8
    9cc9:	48 8b ac 24 d0 00 00 	mov    rbp,QWORD PTR [rsp+0xd0]
    9cd0:	00 
    9cd1:	48 89 f0             	mov    rax,rsi
    9cd4:	44 8b bc 24 f0 00 00 	mov    r15d,DWORD PTR [rsp+0xf0]
    9cdb:	00 
    9cdc:	4d 8b 31             	mov    r14,QWORD PTR [r9]
    9cdf:	48 c1 e8 06          	shr    rax,0x6
    9ce3:	4c 8b ac 24 e8 00 00 	mov    r13,QWORD PTR [rsp+0xe8]
    9cea:	00 
    9ceb:	48 89 74 24 20       	mov    QWORD PTR [rsp+0x20],rsi
    9cf0:	48 89 44 24 28       	mov    QWORD PTR [rsp+0x28],rax
    9cf5:	48 8d 84 24 84 00 00 	lea    rax,[rsp+0x84]
    9cfc:	00 
    9cfd:	41 83 e7 02          	and    r15d,0x2
    9d01:	48 89 44 24 50       	mov    QWORD PTR [rsp+0x50],rax
    9d06:	48 8d 84 24 88 00 00 	lea    rax,[rsp+0x88]
    9d0d:	00 
    9d0e:	48 89 44 24 18       	mov    QWORD PTR [rsp+0x18],rax
    9d13:	89 f0                	mov    eax,esi
    9d15:	83 e0 3f             	and    eax,0x3f
    9d18:	89 44 24 30          	mov    DWORD PTR [rsp+0x30],eax
    9d1c:	0f 1f 40 00          	nop    DWORD PTR [rax+0x0]
    9d20:	49 8b 04 ee          	mov    rax,QWORD PTR [r14+rbp*8]
    9d24:	48 8b 58 28          	mov    rbx,QWORD PTR [rax+0x28]
    9d28:	4c 39 eb             	cmp    rbx,r13
    9d2b:	0f 84 ef 00 00 00    	je     9e20 <_dl_rtld_di_serinfo@@GLIBC_PRIVATE+0x9a0>
    9d31:	45 85 ff             	test   r15d,r15d
    9d34:	74 0d                	je     9d43 <_dl_rtld_di_serinfo@@GLIBC_PRIVATE+0x8c3>
    9d36:	f6 83 14 03 00 00 03 	test   BYTE PTR [rbx+0x314],0x3
    9d3d:	0f 84 dd 00 00 00    	je     9e20 <_dl_rtld_di_serinfo@@GLIBC_PRIVATE+0x9a0>
    9d43:	f6 83 15 03 00 00 20 	test   BYTE PTR [rbx+0x315],0x20
    9d4a:	0f 85 d0 00 00 00    	jne    9e20 <_dl_rtld_di_serinfo@@GLIBC_PRIVATE+0x9a0>
    9d50:	f6 05 49 bf 21 00 08 	test   BYTE PTR [rip+0x21bf49],0x8        # 225ca0 <_rtld_global_ro@@GLIBC_PRIVATE>
    9d57:	0f 85 eb 00 00 00    	jne    9e48 <_dl_rtld_di_serinfo@@GLIBC_PRIVATE+0x9c8>
    9d5d:	8b 93 ec 02 00 00    	mov    edx,DWORD PTR [rbx+0x2ec]
    9d63:	85 d2                	test   edx,edx
    9d65:	0f 84 b5 00 00 00    	je     9e20 <_dl_rtld_di_serinfo@@GLIBC_PRIVATE+0x9a0>
    9d6b:	48 8b 43 70          	mov    rax,QWORD PTR [rbx+0x70]
    9d6f:	c7 84 24 84 00 00 00 	mov    DWORD PTR [rsp+0x84],0x0
    9d76:	00 00 00 00 
    9d7a:	48 c7 84 24 88 00 00 	mov    QWORD PTR [rsp+0x88],0x0
    9d81:	00 00 00 00 00 
    9d86:	48 8b 40 08          	mov    rax,QWORD PTR [rax+0x8]
    9d8a:	48 89 44 24 48       	mov    QWORD PTR [rsp+0x48],rax
    9d8f:	48 8b 43 68          	mov    rax,QWORD PTR [rbx+0x68]
    9d93:	48 8b 40 08          	mov    rax,QWORD PTR [rax+0x8]
    9d97:	48 89 44 24 40       	mov    QWORD PTR [rsp+0x40],rax
    9d9c:	48 8b 83 f8 02 00 00 	mov    rax,QWORD PTR [rbx+0x2f8]
    9da3:	48 85 c0             	test   rax,rax
    9da6:	0f 84 e4 00 00 00    	je     9e90 <_dl_rtld_di_serinfo@@GLIBC_PRIVATE+0xa10>
    9dac:	8b 4c 24 28          	mov    ecx,DWORD PTR [rsp+0x28]
    9db0:	23 8b f0 02 00 00    	and    ecx,DWORD PTR [rbx+0x2f0]
    9db6:	48 8b 74 24 20       	mov    rsi,QWORD PTR [rsp+0x20]
    9dbb:	48 8b 04 c8          	mov    rax,QWORD PTR [rax+rcx*8]
    9dbf:	8b 8b f4 02 00 00    	mov    ecx,DWORD PTR [rbx+0x2f4]
    9dc5:	48 d3 ee             	shr    rsi,cl
    9dc8:	48 89 f1             	mov    rcx,rsi
    9dcb:	48 89 c6             	mov    rsi,rax
    9dce:	48 d3 ee             	shr    rsi,cl
    9dd1:	0f b6 4c 24 30       	movzx  ecx,BYTE PTR [rsp+0x30]
    9dd6:	48 d3 e8             	shr    rax,cl
    9dd9:	48 21 f0             	and    rax,rsi
    9ddc:	a8 01                	test   al,0x1
    9dde:	0f 85 c4 05 00 00    	jne    a3a8 <_dl_rtld_di_serinfo@@GLIBC_PRIVATE+0xf28>
    9de4:	b8 01 00 00 00       	mov    eax,0x1
    9de9:	48 83 bc 24 d8 00 00 	cmp    QWORD PTR [rsp+0xd8],0x0
    9df0:	00 00 
    9df2:	74 2c                	je     9e20 <_dl_rtld_di_serinfo@@GLIBC_PRIVATE+0x9a0>
    9df4:	84 c0                	test   al,al
    9df6:	74 28                	je     9e20 <_dl_rtld_di_serinfo@@GLIBC_PRIVATE+0x9a0>
    9df8:	48 8b 84 24 d8 00 00 	mov    rax,QWORD PTR [rsp+0xd8]
    9dff:	00 
    9e00:	48 8b 78 10          	mov    rdi,QWORD PTR [rax+0x10]
    9e04:	48 85 ff             	test   rdi,rdi
    9e07:	74 17                	je     9e20 <_dl_rtld_di_serinfo@@GLIBC_PRIVATE+0x9a0>
    9e09:	48 89 de             	mov    rsi,rbx
    9e0c:	e8 9f 79 00 00       	call   117b0 <_dl_debug_state@@GLIBC_PRIVATE+0x920>
    9e11:	85 c0                	test   eax,eax
    9e13:	0f 85 04 08 00 00    	jne    a61d <_dl_rtld_di_serinfo@@GLIBC_PRIVATE+0x119d>
    9e19:	0f 1f 80 00 00 00 00 	nop    DWORD PTR [rax+0x0]
    9e20:	48 83 c5 01          	add    rbp,0x1
    9e24:	49 39 ec             	cmp    r12,rbp
    9e27:	0f 87 f3 fe ff ff    	ja     9d20 <_dl_rtld_di_serinfo@@GLIBC_PRIVATE+0x8a0>
    9e2d:	31 c0                	xor    eax,eax
    9e2f:	48 81 c4 98 00 00 00 	add    rsp,0x98
    9e36:	5b                   	pop    rbx
    9e37:	5d                   	pop    rbp
    9e38:	41 5c                	pop    r12
    9e3a:	41 5d                	pop    r13
    9e3c:	41 5e                	pop    r14
    9e3e:	41 5f                	pop    r15
    9e40:	c3                   	ret
    9e41:	0f 1f 80 00 00 00 00 	nop    DWORD PTR [rax+0x0]
    9e48:	48 8b 53 08          	mov    rdx,QWORD PTR [rbx+0x8]
    9e4c:	48 8b 4b 30          	mov    rcx,QWORD PTR [rbx+0x30]
    9e50:	80 3a 00             	cmp    BYTE PTR [rdx],0x0
    9e53:	74 1b                	je     9e70 <_dl_rtld_di_serinfo@@GLIBC_PRIVATE+0x9f0>
    9e55:	48 8b 74 24 08       	mov    rsi,QWORD PTR [rsp+0x8]
    9e5a:	48 8d 3d 57 76 01 00 	lea    rdi,[rip+0x17657]        # 214b8 <realloc@@GLIBC_2.2.5+0x7588>
    9e61:	31 c0                	xor    eax,eax
    9e63:	e8 48 77 00 00       	call   115b0 <_dl_debug_state@@GLIBC_PRIVATE+0x720>
    9e68:	e9 f0 fe ff ff       	jmp    9d5d <_dl_rtld_di_serinfo@@GLIBC_PRIVATE+0x8dd>
    9e6d:	0f 1f 00             	nop    DWORD PTR [rax]
    9e70:	48 8b 05 09 be 21 00 	mov    rax,QWORD PTR [rip+0x21be09]        # 225c80 <_dl_argv@@GLIBC_PRIVATE>
    9e77:	48 8d 15 9f 55 01 00 	lea    rdx,[rip+0x1559f]        # 1f41d <realloc@@GLIBC_2.2.5+0x54ed>
    9e7e:	48 8b 00             	mov    rax,QWORD PTR [rax]
    9e81:	48 85 c0             	test   rax,rax
    9e84:	48 0f 45 d0          	cmovne rdx,rax
    9e88:	eb cb                	jmp    9e55 <_dl_rtld_di_serinfo@@GLIBC_PRIVATE+0x9d5>
    9e8a:	66 0f 1f 44 00 00    	nop    WORD PTR [rax+rax*1+0x0]
    9e90:	48 8b 44 24 58       	mov    rax,QWORD PTR [rsp+0x58]
    9e95:	b9 ff ff ff ff       	mov    ecx,0xffffffff
    9e9a:	48 8b 00             	mov    rax,QWORD PTR [rax]
    9e9d:	48 39 c8             	cmp    rax,rcx
    9ea0:	0f 84 03 08 00 00    	je     a6a9 <_dl_rtld_di_serinfo@@GLIBC_PRIVATE+0x1229>
    9ea6:	89 d1                	mov    ecx,edx
    9ea8:	31 d2                	xor    edx,edx
    9eaa:	48 f7 f1             	div    rcx
    9ead:	48 8d 04 95 00 00 00 	lea    rax,[rdx*4+0x0]
    9eb4:	00 
    9eb5:	48 8b 93 08 03 00 00 	mov    rdx,QWORD PTR [rbx+0x308]
    9ebc:	44 8b 14 02          	mov    r10d,DWORD PTR [rdx+rax*1]
    9ec0:	45 85 d2             	test   r10d,r10d
    9ec3:	0f 84 1b ff ff ff    	je     9de4 <_dl_rtld_di_serinfo@@GLIBC_PRIVATE+0x964>
    9ec9:	4c 89 74 24 60       	mov    QWORD PTR [rsp+0x60],r14
    9ece:	44 89 7c 24 68       	mov    DWORD PTR [rsp+0x68],r15d
    9ed3:	49 89 de             	mov    r14,rbx
    9ed6:	4c 89 ac 24 e8 00 00 	mov    QWORD PTR [rsp+0xe8],r13
    9edd:	00 
    9ede:	4c 89 64 24 70       	mov    QWORD PTR [rsp+0x70],r12
    9ee3:	44 89 d3             	mov    ebx,r10d
    9ee6:	48 89 ac 24 d0 00 00 	mov    QWORD PTR [rsp+0xd0],rbp
    9eed:	00 
    9eee:	4c 8b 6c 24 40       	mov    r13,QWORD PTR [rsp+0x40]
    9ef3:	4c 8b 64 24 48       	mov    r12,QWORD PTR [rsp+0x48]
    9ef8:	4c 8b 7c 24 50       	mov    r15,QWORD PTR [rsp+0x50]
    9efd:	eb 13                	jmp    9f12 <_dl_rtld_di_serinfo@@GLIBC_PRIVATE+0xa92>
    9eff:	90                   	nop
    9f00:	49 8b 86 00 03 00 00 	mov    rax,QWORD PTR [r14+0x300]
    9f07:	8b 1c a8             	mov    ebx,DWORD PTR [rax+rbp*4]
    9f0a:	85 db                	test   ebx,ebx
    9f0c:	0f 84 86 05 00 00    	je     a498 <_dl_rtld_di_serinfo@@GLIBC_PRIVATE+0x1018>
    9f12:	89 dd                	mov    ebp,ebx
    9f14:	48 83 ec 08          	sub    rsp,0x8
    9f18:	48 8d 44 6d 00       	lea    rax,[rbp+rbp*2+0x0]
    9f1d:	41 57                	push   r15
    9f1f:	ff 74 24 28          	push   QWORD PTR [rsp+0x28]
    9f23:	41 56                	push   r14
    9f25:	41 55                	push   r13
    9f27:	53                   	push   rbx
    9f28:	44 8b 84 24 20 01 00 	mov    r8d,DWORD PTR [rsp+0x120]
    9f2f:	00 
    9f30:	4d 8d 0c c4          	lea    r9,[r12+rax*8]
    9f34:	8b 8c 24 10 01 00 00 	mov    ecx,DWORD PTR [rsp+0x110]
    9f3b:	48 8b 94 24 08 01 00 	mov    rdx,QWORD PTR [rsp+0x108]
    9f42:	00 
    9f43:	48 8b 74 24 40       	mov    rsi,QWORD PTR [rsp+0x40]
    9f48:	48 8b 7c 24 38       	mov    rdi,QWORD PTR [rsp+0x38]
    9f4d:	e8 ae fb ff ff       	call   9b00 <_dl_rtld_di_serinfo@@GLIBC_PRIVATE+0x680>
    9f52:	48 83 c4 30          	add    rsp,0x30
    9f56:	48 85 c0             	test   rax,rax
    9f59:	74 a5                	je     9f00 <_dl_rtld_di_serinfo@@GLIBC_PRIVATE+0xa80>
    9f5b:	41 89 da             	mov    r10d,ebx
    9f5e:	44 8b 7c 24 68       	mov    r15d,DWORD PTR [rsp+0x68]
    9f63:	4c 89 f3             	mov    rbx,r14
    9f66:	48 8b ac 24 d0 00 00 	mov    rbp,QWORD PTR [rsp+0xd0]
    9f6d:	00 
    9f6e:	4c 8b 74 24 60       	mov    r14,QWORD PTR [rsp+0x60]
    9f73:	49 89 c0             	mov    r8,rax
    9f76:	4c 8b ac 24 e8 00 00 	mov    r13,QWORD PTR [rsp+0xe8]
    9f7d:	00 
    9f7e:	4c 8b 64 24 70       	mov    r12,QWORD PTR [rsp+0x70]
    9f83:	0f 1f 44 00 00       	nop    DWORD PTR [rax+rax*1+0x0]
    9f88:	48 83 bc 24 f8 00 00 	cmp    QWORD PTR [rsp+0xf8],0x0
    9f8f:	00 00 
    9f91:	0f 84 e9 02 00 00    	je     a280 <_dl_rtld_di_serinfo@@GLIBC_PRIVATE+0xe00>
    9f97:	41 0f b6 40 04       	movzx  eax,BYTE PTR [r8+0x4]
    9f9c:	c0 e8 04             	shr    al,0x4
    9f9f:	3c 02                	cmp    al,0x2
    9fa1:	74 1d                	je     9fc0 <_dl_rtld_di_serinfo@@GLIBC_PRIVATE+0xb40>
    9fa3:	3c 0a                	cmp    al,0xa
    9fa5:	74 41                	je     9fe8 <_dl_rtld_di_serinfo@@GLIBC_PRIVATE+0xb68>
    9fa7:	3c 01                	cmp    al,0x1
    9fa9:	74 23                	je     9fce <_dl_rtld_di_serinfo@@GLIBC_PRIVATE+0xb4e>
    9fab:	45 85 d2             	test   r10d,r10d
    9fae:	0f 94 c0             	sete   al
    9fb1:	e9 33 fe ff ff       	jmp    9de9 <_dl_rtld_di_serinfo@@GLIBC_PRIVATE+0x969>
    9fb6:	66 2e 0f 1f 84 00 00 	cs nop WORD PTR [rax+rax*1+0x0]
    9fbd:	00 00 00 
    9fc0:	8b 05 26 bd 21 00    	mov    eax,DWORD PTR [rip+0x21bd26]        # 225cec <_rtld_global_ro@@GLIBC_PRIVATE+0x4c>
    9fc6:	85 c0                	test   eax,eax
    9fc8:	0f 85 2a 06 00 00    	jne    a5f8 <_dl_rtld_di_serinfo@@GLIBC_PRIVATE+0x1178>
    9fce:	48 8b 44 24 38       	mov    rax,QWORD PTR [rsp+0x38]
    9fd3:	4c 89 00             	mov    QWORD PTR [rax],r8
    9fd6:	48 89 58 08          	mov    QWORD PTR [rax+0x8],rbx
    9fda:	b8 01 00 00 00       	mov    eax,0x1
    9fdf:	e9 4b fe ff ff       	jmp    9e2f <_dl_rtld_di_serinfo@@GLIBC_PRIVATE+0x9af>
    9fe4:	0f 1f 40 00          	nop    DWORD PTR [rax+0x0]
    9fe8:	48 8b 43 30          	mov    rax,QWORD PTR [rbx+0x30]
    9fec:	4c 8b 6c 24 20       	mov    r13,QWORD PTR [rsp+0x20]
    9ff1:	4c 89 44 24 28       	mov    QWORD PTR [rsp+0x28],r8
    9ff6:	48 8d 2c c0          	lea    rbp,[rax+rax*8]
    9ffa:	48 89 44 24 20       	mov    QWORD PTR [rsp+0x20],rax
    9fff:	48 8d 05 3a c0 21 00 	lea    rax,[rip+0x21c03a]        # 226040 <_rtld_global@@GLIBC_PRIVATE>
    a006:	48 c1 e5 04          	shl    rbp,0x4
    a00a:	48 8d 44 28 20       	lea    rax,[rax+rbp*1+0x20]
    a00f:	48 89 44 24 30       	mov    QWORD PTR [rsp+0x30],rax
    a014:	48 89 c7             	mov    rdi,rax
    a017:	ff 15 2b cf 21 00    	call   QWORD PTR [rip+0x21cf2b]        # 226f48 <_rtld_global@@GLIBC_PRIVATE+0xf08>
    a01d:	48 8d 05 1c c0 21 00 	lea    rax,[rip+0x21c01c]        # 226040 <_rtld_global@@GLIBC_PRIVATE>
    a024:	48 01 c5             	add    rbp,rax
    a027:	48 8b 45 48          	mov    rax,QWORD PTR [rbp+0x48]
    a02b:	4c 8b 75 50          	mov    r14,QWORD PTR [rbp+0x50]
    a02f:	48 85 c0             	test   rax,rax
    a032:	48 89 44 24 18       	mov    QWORD PTR [rsp+0x18],rax
    a037:	0f 84 11 06 00 00    	je     a64e <_dl_rtld_di_serinfo@@GLIBC_PRIVATE+0x11ce>
    a03d:	4c 89 e8             	mov    rax,r13
    a040:	31 d2                	xor    edx,edx
    a042:	48 89 5c 24 50       	mov    QWORD PTR [rsp+0x50],rbx
    a047:	49 f7 f6             	div    r14
    a04a:	49 8d 46 fe          	lea    rax,[r14-0x2]
    a04e:	44 89 7c 24 58       	mov    DWORD PTR [rsp+0x58],r15d
    a053:	4c 89 f3             	mov    rbx,r14
    a056:	48 89 c7             	mov    rdi,rax
    a059:	48 89 44 24 48       	mov    QWORD PTR [rsp+0x48],rax
    a05e:	4c 89 e8             	mov    rax,r13
    a061:	49 89 d4             	mov    r12,rdx
    a064:	31 d2                	xor    edx,edx
    a066:	48 f7 f7             	div    rdi
    a069:	48 83 c2 01          	add    rdx,0x1
    a06d:	48 89 d1             	mov    rcx,rdx
    a070:	49 89 d6             	mov    r14,rdx
    a073:	48 c1 e1 05          	shl    rcx,0x5
    a077:	49 89 cf             	mov    r15,rcx
    a07a:	4c 89 e5             	mov    rbp,r12
    a07d:	4c 89 f8             	mov    rax,r15
    a080:	4d 01 f4             	add    r12,r14
    a083:	48 c1 e5 05          	shl    rbp,0x5
    a087:	4d 89 f7             	mov    r15,r14
    a08a:	48 03 6c 24 18       	add    rbp,QWORD PTR [rsp+0x18]
    a08f:	49 89 c6             	mov    r14,rax
    a092:	eb 1e                	jmp    a0b2 <_dl_rtld_di_serinfo@@GLIBC_PRIVATE+0xc32>
    a094:	0f 1f 40 00          	nop    DWORD PTR [rax+0x0]
    a098:	48 83 7d 08 00       	cmp    QWORD PTR [rbp+0x8],0x0
    a09d:	74 71                	je     a110 <_dl_rtld_di_serinfo@@GLIBC_PRIVATE+0xc90>
    a09f:	4c 01 f5             	add    rbp,r14
    a0a2:	49 39 dc             	cmp    r12,rbx
    a0a5:	4b 8d 04 3c          	lea    rax,[r12+r15*1]
    a0a9:	0f 83 b9 01 00 00    	jae    a268 <_dl_rtld_di_serinfo@@GLIBC_PRIVATE+0xde8>
    a0af:	49 89 c4             	mov    r12,rax
    a0b2:	8b 45 00             	mov    eax,DWORD PTR [rbp+0x0]
    a0b5:	49 39 c5             	cmp    r13,rax
    a0b8:	75 de                	jne    a098 <_dl_rtld_di_serinfo@@GLIBC_PRIVATE+0xc18>
    a0ba:	48 8b 7d 08          	mov    rdi,QWORD PTR [rbp+0x8]
    a0be:	48 8b 74 24 08       	mov    rsi,QWORD PTR [rsp+0x8]
    a0c3:	e8 68 18 01 00       	call   1b930 <realloc@@GLIBC_2.2.5+0x1a00>
    a0c8:	85 c0                	test   eax,eax
    a0ca:	75 d3                	jne    a09f <_dl_rtld_di_serinfo@@GLIBC_PRIVATE+0xc1f>
    a0cc:	44 8b 7c 24 58       	mov    r15d,DWORD PTR [rsp+0x58]
    a0d1:	48 8b 5c 24 50       	mov    rbx,QWORD PTR [rsp+0x50]
    a0d6:	45 85 ff             	test   r15d,r15d
    a0d9:	0f 85 34 05 00 00    	jne    a613 <_dl_rtld_di_serinfo@@GLIBC_PRIVATE+0x1193>
    a0df:	4c 8b 45 10          	mov    r8,QWORD PTR [rbp+0x10]
    a0e3:	48 8b 5d 18          	mov    rbx,QWORD PTR [rbp+0x18]
    a0e7:	48 8b 44 24 38       	mov    rax,QWORD PTR [rsp+0x38]
    a0ec:	48 8b 7c 24 30       	mov    rdi,QWORD PTR [rsp+0x30]
    a0f1:	48 89 58 08          	mov    QWORD PTR [rax+0x8],rbx
    a0f5:	4c 89 00             	mov    QWORD PTR [rax],r8
    a0f8:	ff 15 52 ce 21 00    	call   QWORD PTR [rip+0x21ce52]        # 226f50 <_rtld_global@@GLIBC_PRIVATE+0xf10>
    a0fe:	b8 01 00 00 00       	mov    eax,0x1
    a103:	e9 27 fd ff ff       	jmp    9e2f <_dl_rtld_di_serinfo@@GLIBC_PRIVATE+0x9af>
    a108:	0f 1f 84 00 00 00 00 	nop    DWORD PTR [rax+rax*1+0x0]
    a10f:	00 
    a110:	48 8b 44 24 20       	mov    rax,QWORD PTR [rsp+0x20]
    a115:	48 8d 3d 24 bf 21 00 	lea    rdi,[rip+0x21bf24]        # 226040 <_rtld_global@@GLIBC_PRIVATE>
    a11c:	49 89 de             	mov    r14,rbx
    a11f:	4b 8d 14 76          	lea    rdx,[r14+r14*2]
    a123:	44 8b 7c 24 58       	mov    r15d,DWORD PTR [rsp+0x58]
    a128:	48 8b 5c 24 50       	mov    rbx,QWORD PTR [rsp+0x50]
    a12d:	48 8d 04 c0          	lea    rax,[rax+rax*8]
    a131:	48 c1 e0 04          	shl    rax,0x4
    a135:	48 8b 44 07 58       	mov    rax,QWORD PTR [rdi+rax*1+0x58]
    a13a:	48 c1 e0 02          	shl    rax,0x2
    a13e:	48 39 c2             	cmp    rdx,rax
    a141:	0f 86 9a 03 00 00    	jbe    a4e1 <_dl_rtld_di_serinfo@@GLIBC_PRIVATE+0x1061>
    a147:	48 8b 44 24 28       	mov    rax,QWORD PTR [rsp+0x28]
    a14c:	44 89 ef             	mov    edi,r13d
    a14f:	31 d2                	xor    edx,edx
    a151:	4c 8b 44 24 18       	mov    r8,QWORD PTR [rsp+0x18]
    a156:	8b 30                	mov    esi,DWORD PTR [rax]
    a158:	48 89 f8             	mov    rax,rdi
    a15b:	49 f7 f6             	div    r14
    a15e:	48 89 f8             	mov    rax,rdi
    a161:	48 03 74 24 40       	add    rsi,QWORD PTR [rsp+0x40]
    a166:	48 89 d1             	mov    rcx,rdx
    a169:	31 d2                	xor    edx,edx
    a16b:	48 f7 74 24 48       	div    QWORD PTR [rsp+0x48]
    a170:	48 83 c2 01          	add    rdx,0x1
    a174:	48 89 d7             	mov    rdi,rdx
    a177:	48 c1 e7 05          	shl    rdi,0x5
    a17b:	45 85 ff             	test   r15d,r15d
    a17e:	0f 84 87 00 00 00    	je     a20b <_dl_rtld_di_serinfo@@GLIBC_PRIVATE+0xd8b>
    a184:	48 89 c8             	mov    rax,rcx
    a187:	48 c1 e0 05          	shl    rax,0x5
    a18b:	4c 01 c0             	add    rax,r8
    a18e:	eb 0f                	jmp    a19f <_dl_rtld_di_serinfo@@GLIBC_PRIVATE+0xd1f>
    a190:	48 01 d1             	add    rcx,rdx
    a193:	48 01 f8             	add    rax,rdi
    a196:	49 39 ce             	cmp    r14,rcx
    a199:	0f 86 f1 02 00 00    	jbe    a490 <_dl_rtld_di_serinfo@@GLIBC_PRIVATE+0x1010>
    a19f:	48 83 78 08 00       	cmp    QWORD PTR [rax+0x8],0x0
    a1a4:	75 ea                	jne    a190 <_dl_rtld_di_serinfo@@GLIBC_PRIVATE+0xd10>
    a1a6:	48 89 70 08          	mov    QWORD PTR [rax+0x8],rsi
    a1aa:	48 8b 74 24 10       	mov    rsi,QWORD PTR [rsp+0x10]
    a1af:	44 89 28             	mov    DWORD PTR [rax],r13d
    a1b2:	48 89 70 10          	mov    QWORD PTR [rax+0x10],rsi
    a1b6:	48 8b b4 24 f8 00 00 	mov    rsi,QWORD PTR [rsp+0xf8]
    a1bd:	00 
    a1be:	48 89 70 18          	mov    QWORD PTR [rax+0x18],rsi
    a1c2:	48 8b 44 24 20       	mov    rax,QWORD PTR [rsp+0x20]
    a1c7:	48 8d 35 72 be 21 00 	lea    rsi,[rip+0x21be72]        # 226040 <_rtld_global@@GLIBC_PRIVATE>
    a1ce:	48 8d 04 c0          	lea    rax,[rax+rax*8]
    a1d2:	48 c1 e0 04          	shl    rax,0x4
    a1d6:	48 83 44 06 58 01    	add    QWORD PTR [rsi+rax*1+0x58],0x1
    a1dc:	48 8b 7c 24 30       	mov    rdi,QWORD PTR [rsp+0x30]
    a1e1:	ff 15 69 cd 21 00    	call   QWORD PTR [rip+0x21cd69]        # 226f50 <_rtld_global@@GLIBC_PRIVATE+0xf10>
    a1e7:	48 8b 44 24 38       	mov    rax,QWORD PTR [rsp+0x38]
    a1ec:	48 8b 74 24 28       	mov    rsi,QWORD PTR [rsp+0x28]
    a1f1:	48 89 58 08          	mov    QWORD PTR [rax+0x8],rbx
    a1f5:	48 89 30             	mov    QWORD PTR [rax],rsi
    a1f8:	b8 01 00 00 00       	mov    eax,0x1
    a1fd:	e9 2d fc ff ff       	jmp    9e2f <_dl_rtld_di_serinfo@@GLIBC_PRIVATE+0x9af>
    a202:	66 0f 1f 44 00 00    	nop    WORD PTR [rax+rax*1+0x0]
    a208:	4c 29 f1             	sub    rcx,r14
    a20b:	48 89 c8             	mov    rax,rcx
    a20e:	48 c1 e0 05          	shl    rax,0x5
    a212:	4c 01 c0             	add    rax,r8
    a215:	eb 14                	jmp    a22b <_dl_rtld_di_serinfo@@GLIBC_PRIVATE+0xdab>
    a217:	66 0f 1f 84 00 00 00 	nop    WORD PTR [rax+rax*1+0x0]
    a21e:	00 00 
    a220:	48 01 d1             	add    rcx,rdx
    a223:	48 01 f8             	add    rax,rdi
    a226:	49 39 ce             	cmp    r14,rcx
    a229:	76 dd                	jbe    a208 <_dl_rtld_di_serinfo@@GLIBC_PRIVATE+0xd88>
    a22b:	48 83 78 08 00       	cmp    QWORD PTR [rax+0x8],0x0
    a230:	75 ee                	jne    a220 <_dl_rtld_di_serinfo@@GLIBC_PRIVATE+0xda0>
    a232:	48 89 70 08          	mov    QWORD PTR [rax+0x8],rsi
    a236:	48 8b 74 24 28       	mov    rsi,QWORD PTR [rsp+0x28]
    a23b:	44 89 28             	mov    DWORD PTR [rax],r13d
    a23e:	48 89 58 18          	mov    QWORD PTR [rax+0x18],rbx
    a242:	48 89 70 10          	mov    QWORD PTR [rax+0x10],rsi
    a246:	0f b6 83 14 03 00 00 	movzx  eax,BYTE PTR [rbx+0x314]
    a24d:	83 e0 03             	and    eax,0x3
    a250:	3c 02                	cmp    al,0x2
    a252:	0f 85 6a ff ff ff    	jne    a1c2 <_dl_rtld_di_serinfo@@GLIBC_PRIVATE+0xd42>
    a258:	83 8b d4 03 00 00 08 	or     DWORD PTR [rbx+0x3d4],0x8
    a25f:	e9 5e ff ff ff       	jmp    a1c2 <_dl_rtld_di_serinfo@@GLIBC_PRIVATE+0xd42>
    a264:	0f 1f 40 00          	nop    DWORD PTR [rax+0x0]
    a268:	4c 89 f0             	mov    rax,r14
    a26b:	49 29 dc             	sub    r12,rbx
    a26e:	4d 89 fe             	mov    r14,r15
    a271:	49 89 c7             	mov    r15,rax
    a274:	e9 01 fe ff ff       	jmp    a07a <_dl_rtld_di_serinfo@@GLIBC_PRIVATE+0xbfa>
    a279:	0f 1f 80 00 00 00 00 	nop    DWORD PTR [rax+0x0]
    a280:	f6 83 14 03 00 00 03 	test   BYTE PTR [rbx+0x314],0x3
    a287:	0f 85 0a fd ff ff    	jne    9f97 <_dl_rtld_di_serinfo@@GLIBC_PRIVATE+0xb17>
    a28d:	83 bc 24 f0 00 00 00 	cmp    DWORD PTR [rsp+0xf0],0x4
    a294:	04 
    a295:	0f 85 fc fc ff ff    	jne    9f97 <_dl_rtld_di_serinfo@@GLIBC_PRIVATE+0xb17>
    a29b:	48 8b 53 78          	mov    rdx,QWORD PTR [rbx+0x78]
    a29f:	48 85 d2             	test   rdx,rdx
    a2a2:	0f 84 ef fc ff ff    	je     9f97 <_dl_rtld_di_serinfo@@GLIBC_PRIVATE+0xb17>
    a2a8:	48 8b 83 80 00 00 00 	mov    rax,QWORD PTR [rbx+0x80]
    a2af:	48 85 c0             	test   rax,rax
    a2b2:	0f 84 df fc ff ff    	je     9f97 <_dl_rtld_di_serinfo@@GLIBC_PRIVATE+0xb17>
    a2b8:	48 8b 40 08          	mov    rax,QWORD PTR [rax+0x8]
    a2bc:	48 85 c0             	test   rax,rax
    a2bf:	0f 84 d2 fc ff ff    	je     9f97 <_dl_rtld_di_serinfo@@GLIBC_PRIVATE+0xb17>
    a2c5:	48 be ab aa aa aa aa 	movabs rsi,0xaaaaaaaaaaaaaaab
    a2cc:	aa aa aa 
    a2cf:	4c 8b 4a 08          	mov    r9,QWORD PTR [rdx+0x8]
    a2d3:	48 f7 e6             	mul    rsi
    a2d6:	48 89 d0             	mov    rax,rdx
    a2d9:	48 c1 e8 04          	shr    rax,0x4
    a2dd:	85 c0                	test   eax,eax
    a2df:	0f 84 b2 fc ff ff    	je     9f97 <_dl_rtld_di_serinfo@@GLIBC_PRIVATE+0xb17>
    a2e5:	83 e8 01             	sub    eax,0x1
    a2e8:	48 89 5c 24 68       	mov    QWORD PTR [rsp+0x68],rbx
    a2ed:	48 89 ac 24 d0 00 00 	mov    QWORD PTR [rsp+0xd0],rbp
    a2f4:	00 
    a2f5:	48 8d 04 40          	lea    rax,[rax+rax*2]
    a2f9:	49 bb 80 00 07 00 10 	movabs r11,0x1000070080
    a300:	00 00 00 
    a303:	4c 89 44 24 78       	mov    QWORD PTR [rsp+0x78],r8
    a308:	44 89 54 24 70       	mov    DWORD PTR [rsp+0x70],r10d
    a30d:	4c 89 cb             	mov    rbx,r9
    a310:	49 8d 54 c1 18       	lea    rdx,[r9+rax*8+0x18]
    a315:	48 89 d5             	mov    rbp,rdx
    a318:	eb 19                	jmp    a333 <_dl_rtld_di_serinfo@@GLIBC_PRIVATE+0xeb3>
    a31a:	31 c0                	xor    eax,eax
    a31c:	48 83 fe 06          	cmp    rsi,0x6
    a320:	0f 84 79 03 00 00    	je     a69f <_dl_rtld_di_serinfo@@GLIBC_PRIVATE+0x121f>
    a326:	48 83 c3 18          	add    rbx,0x18
    a32a:	48 39 eb             	cmp    rbx,rbp
    a32d:	0f 84 59 04 00 00    	je     a78c <_dl_rtld_di_serinfo@@GLIBC_PRIVATE+0x130c>
    a333:	48 8b 4b 08          	mov    rcx,QWORD PTR [rbx+0x8]
    a337:	89 ce                	mov    esi,ecx
    a339:	48 83 fe 24          	cmp    rsi,0x24
    a33d:	77 db                	ja     a31a <_dl_rtld_di_serinfo@@GLIBC_PRIVATE+0xe9a>
    a33f:	4c 89 d8             	mov    rax,r11
    a342:	48 d3 e8             	shr    rax,cl
    a345:	83 e0 01             	and    eax,0x1
    a348:	48 83 fe 05          	cmp    rsi,0x5
    a34c:	75 ce                	jne    a31c <_dl_rtld_di_serinfo@@GLIBC_PRIVATE+0xe9c>
    a34e:	83 c8 02             	or     eax,0x2
    a351:	31 f6                	xor    esi,esi
    a353:	09 f0                	or     eax,esi
    a355:	83 f8 02             	cmp    eax,0x2
    a358:	75 cc                	jne    a326 <_dl_rtld_di_serinfo@@GLIBC_PRIVATE+0xea6>
    a35a:	48 c1 e9 20          	shr    rcx,0x20
    a35e:	48 8b 74 24 48       	mov    rsi,QWORD PTR [rsp+0x48]
    a363:	4c 89 5c 24 60       	mov    QWORD PTR [rsp+0x60],r11
    a368:	48 8d 04 49          	lea    rax,[rcx+rcx*2]
    a36c:	8b 3c c6             	mov    edi,DWORD PTR [rsi+rax*8]
    a36f:	48 8b 74 24 08       	mov    rsi,QWORD PTR [rsp+0x8]
    a374:	48 03 7c 24 40       	add    rdi,QWORD PTR [rsp+0x40]
    a379:	e8 b2 15 01 00       	call   1b930 <realloc@@GLIBC_2.2.5+0x1a00>
    a37e:	85 c0                	test   eax,eax
    a380:	4c 8b 5c 24 60       	mov    r11,QWORD PTR [rsp+0x60]
    a385:	75 9f                	jne    a326 <_dl_rtld_di_serinfo@@GLIBC_PRIVATE+0xea6>
    a387:	44 8b 54 24 70       	mov    r10d,DWORD PTR [rsp+0x70]
    a38c:	48 8b 5c 24 68       	mov    rbx,QWORD PTR [rsp+0x68]
    a391:	48 8b ac 24 d0 00 00 	mov    rbp,QWORD PTR [rsp+0xd0]
    a398:	00 
    a399:	45 85 d2             	test   r10d,r10d
    a39c:	0f 94 c0             	sete   al
    a39f:	e9 45 fa ff ff       	jmp    9de9 <_dl_rtld_di_serinfo@@GLIBC_PRIVATE+0x969>
    a3a4:	0f 1f 40 00          	nop    DWORD PTR [rax+0x0]
    a3a8:	48 8b 44 24 20       	mov    rax,QWORD PTR [rsp+0x20]
    a3ad:	89 d1                	mov    ecx,edx
    a3af:	31 d2                	xor    edx,edx
    a3b1:	48 f7 f1             	div    rcx
    a3b4:	48 8b 83 00 03 00 00 	mov    rax,QWORD PTR [rbx+0x300]
    a3bb:	8b 04 90             	mov    eax,DWORD PTR [rax+rdx*4]
    a3be:	85 c0                	test   eax,eax
    a3c0:	0f 84 1e fa ff ff    	je     9de4 <_dl_rtld_di_serinfo@@GLIBC_PRIVATE+0x964>
    a3c6:	48 8b 93 08 03 00 00 	mov    rdx,QWORD PTR [rbx+0x308]
    a3cd:	4c 89 74 24 60       	mov    QWORD PTR [rsp+0x60],r14
    a3d2:	44 89 7c 24 68       	mov    DWORD PTR [rsp+0x68],r15d
    a3d7:	48 89 ac 24 d0 00 00 	mov    QWORD PTR [rsp+0xd0],rbp
    a3de:	00 
    a3df:	48 89 dd             	mov    rbp,rbx
    a3e2:	4c 89 ac 24 e8 00 00 	mov    QWORD PTR [rsp+0xe8],r13
    a3e9:	00 
    a3ea:	4c 89 64 24 70       	mov    QWORD PTR [rsp+0x70],r12
    a3ef:	4c 8d 1c 82          	lea    r11,[rdx+rax*4]
    a3f3:	4c 8b 7c 24 20       	mov    r15,QWORD PTR [rsp+0x20]
    a3f8:	4c 8b 6c 24 40       	mov    r13,QWORD PTR [rsp+0x40]
    a3fd:	4c 8b 64 24 48       	mov    r12,QWORD PTR [rsp+0x48]
    a402:	4d 89 de             	mov    r14,r11
    a405:	eb 16                	jmp    a41d <_dl_rtld_di_serinfo@@GLIBC_PRIVATE+0xf9d>
    a407:	66 0f 1f 84 00 00 00 	nop    WORD PTR [rax+rax*1+0x0]
    a40e:	00 00 
    a410:	49 83 c6 04          	add    r14,0x4
    a414:	83 e2 01             	and    edx,0x1
    a417:	0f 85 0a 02 00 00    	jne    a627 <_dl_rtld_di_serinfo@@GLIBC_PRIVATE+0x11a7>
    a41d:	41 8b 06             	mov    eax,DWORD PTR [r14]
    a420:	48 89 c2             	mov    rdx,rax
    a423:	4c 31 f8             	xor    rax,r15
    a426:	48 d1 e8             	shr    rax,1
    a429:	75 e5                	jne    a410 <_dl_rtld_di_serinfo@@GLIBC_PRIVATE+0xf90>
    a42b:	4c 89 f0             	mov    rax,r14
    a42e:	48 2b 85 08 03 00 00 	sub    rax,QWORD PTR [rbp+0x308]
    a435:	48 83 ec 08          	sub    rsp,0x8
    a439:	ff 74 24 58          	push   QWORD PTR [rsp+0x58]
    a43d:	ff 74 24 28          	push   QWORD PTR [rsp+0x28]
    a441:	55                   	push   rbp
    a442:	41 55                	push   r13
    a444:	48 c1 f8 02          	sar    rax,0x2
    a448:	89 c2                	mov    edx,eax
    a44a:	50                   	push   rax
    a44b:	44 8b 84 24 20 01 00 	mov    r8d,DWORD PTR [rsp+0x120]
    a452:	00 
    a453:	48 8d 14 52          	lea    rdx,[rdx+rdx*2]
    a457:	8b 8c 24 10 01 00 00 	mov    ecx,DWORD PTR [rsp+0x110]
    a45e:	48 8b 74 24 40       	mov    rsi,QWORD PTR [rsp+0x40]
    a463:	48 8b 7c 24 38       	mov    rdi,QWORD PTR [rsp+0x38]
    a468:	89 c3                	mov    ebx,eax
    a46a:	4d 8d 0c d4          	lea    r9,[r12+rdx*8]
    a46e:	48 8b 94 24 08 01 00 	mov    rdx,QWORD PTR [rsp+0x108]
    a475:	00 
    a476:	e8 85 f6 ff ff       	call   9b00 <_dl_rtld_di_serinfo@@GLIBC_PRIVATE+0x680>
    a47b:	48 83 c4 30          	add    rsp,0x30
    a47f:	48 85 c0             	test   rax,rax
    a482:	0f 85 d7 02 00 00    	jne    a75f <_dl_rtld_di_serinfo@@GLIBC_PRIVATE+0x12df>
    a488:	41 8b 16             	mov    edx,DWORD PTR [r14]
    a48b:	eb 83                	jmp    a410 <_dl_rtld_di_serinfo@@GLIBC_PRIVATE+0xf90>
    a48d:	0f 1f 00             	nop    DWORD PTR [rax]
    a490:	4c 29 f1             	sub    rcx,r14
    a493:	e9 ec fc ff ff       	jmp    a184 <_dl_rtld_di_serinfo@@GLIBC_PRIVATE+0xd04>
    a498:	4c 89 f3             	mov    rbx,r14
    a49b:	44 8b 7c 24 68       	mov    r15d,DWORD PTR [rsp+0x68]
    a4a0:	4c 8b 74 24 60       	mov    r14,QWORD PTR [rsp+0x60]
    a4a5:	48 8b ac 24 d0 00 00 	mov    rbp,QWORD PTR [rsp+0xd0]
    a4ac:	00 
    a4ad:	4c 8b ac 24 e8 00 00 	mov    r13,QWORD PTR [rsp+0xe8]
    a4b4:	00 
    a4b5:	4c 8b 64 24 70       	mov    r12,QWORD PTR [rsp+0x70]
    a4ba:	83 bc 24 84 00 00 00 	cmp    DWORD PTR [rsp+0x84],0x1
    a4c1:	01 
    a4c2:	0f 85 1c f9 ff ff    	jne    9de4 <_dl_rtld_di_serinfo@@GLIBC_PRIVATE+0x964>
    a4c8:	4c 8b 84 24 88 00 00 	mov    r8,QWORD PTR [rsp+0x88]
    a4cf:	00 
    a4d0:	4d 85 c0             	test   r8,r8
    a4d3:	0f 84 0b f9 ff ff    	je     9de4 <_dl_rtld_di_serinfo@@GLIBC_PRIVATE+0x964>
    a4d9:	45 31 d2             	xor    r10d,r10d
    a4dc:	e9 a7 fa ff ff       	jmp    9f88 <_dl_rtld_di_serinfo@@GLIBC_PRIVATE+0xb08>
    a4e1:	49 8d 7e 01          	lea    rdi,[r14+0x1]
    a4e5:	e8 36 73 00 00       	call   11820 <_dl_debug_state@@GLIBC_PRIVATE+0x990>
    a4ea:	bf 20 00 00 00       	mov    edi,0x20
    a4ef:	48 89 c6             	mov    rsi,rax
    a4f2:	48 89 c5             	mov    rbp,rax
    a4f5:	e8 96 65 ff ff       	call   a90 <calloc@plt>
    a4fa:	48 85 c0             	test   rax,rax
    a4fd:	49 89 c4             	mov    r12,rax
    a500:	0f 84 ce 02 00 00    	je     a7d4 <_dl_rtld_di_serinfo@@GLIBC_PRIVATE+0x1354>
    a506:	48 8d 45 fe          	lea    rax,[rbp-0x2]
    a50a:	4d 85 f6             	test   r14,r14
    a50d:	48 89 44 24 48       	mov    QWORD PTR [rsp+0x48],rax
    a512:	0f 84 8f 00 00 00    	je     a5a7 <_dl_rtld_di_serinfo@@GLIBC_PRIVATE+0x1127>
    a518:	48 8b 7c 24 18       	mov    rdi,QWORD PTR [rsp+0x18]
    a51d:	49 c1 e6 05          	shl    r14,0x5
    a521:	48 89 5c 24 08       	mov    QWORD PTR [rsp+0x8],rbx
    a526:	49 89 c2             	mov    r10,rax
    a529:	4e 8d 04 37          	lea    r8,[rdi+r14*1]
    a52d:	48 89 fe             	mov    rsi,rdi
    a530:	48 8b 7e 08          	mov    rdi,QWORD PTR [rsi+0x8]
    a534:	48 85 ff             	test   rdi,rdi
    a537:	74 60                	je     a599 <_dl_rtld_di_serinfo@@GLIBC_PRIVATE+0x1119>
    a539:	44 8b 36             	mov    r14d,DWORD PTR [rsi]
    a53c:	31 d2                	xor    edx,edx
    a53e:	4c 8b 5e 18          	mov    r11,QWORD PTR [rsi+0x18]
    a542:	48 8b 5e 10          	mov    rbx,QWORD PTR [rsi+0x10]
    a546:	4c 89 f0             	mov    rax,r14
    a549:	4d 89 f1             	mov    r9,r14
    a54c:	48 f7 f5             	div    rbp
    a54f:	4c 89 f0             	mov    rax,r14
    a552:	48 89 d1             	mov    rcx,rdx
    a555:	31 d2                	xor    edx,edx
    a557:	49 f7 f2             	div    r10
    a55a:	48 83 c2 01          	add    rdx,0x1
    a55e:	49 89 d6             	mov    r14,rdx
    a561:	49 c1 e6 05          	shl    r14,0x5
    a565:	48 89 c8             	mov    rax,rcx
    a568:	48 c1 e0 05          	shl    rax,0x5
    a56c:	4c 01 e0             	add    rax,r12
    a56f:	eb 12                	jmp    a583 <_dl_rtld_di_serinfo@@GLIBC_PRIVATE+0x1103>
    a571:	0f 1f 80 00 00 00 00 	nop    DWORD PTR [rax+0x0]
    a578:	48 01 d1             	add    rcx,rdx
    a57b:	4c 01 f0             	add    rax,r14
    a57e:	48 39 cd             	cmp    rbp,rcx
    a581:	76 6d                	jbe    a5f0 <_dl_rtld_di_serinfo@@GLIBC_PRIVATE+0x1170>
    a583:	48 83 78 08 00       	cmp    QWORD PTR [rax+0x8],0x0
    a588:	75 ee                	jne    a578 <_dl_rtld_di_serinfo@@GLIBC_PRIVATE+0x10f8>
    a58a:	44 89 08             	mov    DWORD PTR [rax],r9d
    a58d:	48 89 78 08          	mov    QWORD PTR [rax+0x8],rdi
    a591:	48 89 58 10          	mov    QWORD PTR [rax+0x10],rbx
    a595:	4c 89 58 18          	mov    QWORD PTR [rax+0x18],r11
    a599:	48 83 c6 20          	add    rsi,0x20
    a59d:	49 39 f0             	cmp    r8,rsi
    a5a0:	75 8e                	jne    a530 <_dl_rtld_di_serinfo@@GLIBC_PRIVATE+0x10b0>
    a5a2:	48 8b 5c 24 08       	mov    rbx,QWORD PTR [rsp+0x8]
    a5a7:	48 8b 44 24 20       	mov    rax,QWORD PTR [rsp+0x20]
    a5ac:	48 8b 7c 24 18       	mov    rdi,QWORD PTR [rsp+0x18]
    a5b1:	4c 8d 34 c0          	lea    r14,[rax+rax*8]
    a5b5:	48 8d 05 84 ba 21 00 	lea    rax,[rip+0x21ba84]        # 226040 <_rtld_global@@GLIBC_PRIVATE>
    a5bc:	49 c1 e6 04          	shl    r14,0x4
    a5c0:	49 01 c6             	add    r14,rax
    a5c3:	41 ff 56 60          	call   QWORD PTR [r14+0x60]
    a5c7:	48 8b 05 1a ba 21 00 	mov    rax,QWORD PTR [rip+0x21ba1a]        # 225fe8 <free@@GLIBC_2.2.5+0x20c268>
    a5ce:	49 89 6e 50          	mov    QWORD PTR [r14+0x50],rbp
    a5d2:	4d 89 66 48          	mov    QWORD PTR [r14+0x48],r12
    a5d6:	4c 89 64 24 18       	mov    QWORD PTR [rsp+0x18],r12
    a5db:	49 89 46 60          	mov    QWORD PTR [r14+0x60],rax
    a5df:	49 89 ee             	mov    r14,rbp
    a5e2:	e9 60 fb ff ff       	jmp    a147 <_dl_rtld_di_serinfo@@GLIBC_PRIVATE+0xcc7>
    a5e7:	66 0f 1f 84 00 00 00 	nop    WORD PTR [rax+rax*1+0x0]
    a5ee:	00 00 
    a5f0:	48 29 e9             	sub    rcx,rbp
    a5f3:	e9 6d ff ff ff       	jmp    a565 <_dl_rtld_di_serinfo@@GLIBC_PRIVATE+0x10e5>
    a5f8:	48 8b 44 24 38       	mov    rax,QWORD PTR [rsp+0x38]
    a5fd:	48 83 38 00          	cmp    QWORD PTR [rax],0x0
    a601:	0f 85 a4 f9 ff ff    	jne    9fab <_dl_rtld_di_serinfo@@GLIBC_PRIVATE+0xb2b>
    a607:	4c 89 00             	mov    QWORD PTR [rax],r8
    a60a:	48 89 58 08          	mov    QWORD PTR [rax+0x8],rbx
    a60e:	e9 98 f9 ff ff       	jmp    9fab <_dl_rtld_di_serinfo@@GLIBC_PRIVATE+0xb2b>
    a613:	4c 8b 44 24 28       	mov    r8,QWORD PTR [rsp+0x28]
    a618:	e9 ca fa ff ff       	jmp    a0e7 <_dl_rtld_di_serinfo@@GLIBC_PRIVATE+0xc67>
    a61d:	b8 ff ff ff ff       	mov    eax,0xffffffff
    a622:	e9 08 f8 ff ff       	jmp    9e2f <_dl_rtld_di_serinfo@@GLIBC_PRIVATE+0x9af>
    a627:	48 89 eb             	mov    rbx,rbp
    a62a:	4c 8b 74 24 60       	mov    r14,QWORD PTR [rsp+0x60]
    a62f:	44 8b 7c 24 68       	mov    r15d,DWORD PTR [rsp+0x68]
    a634:	48 8b ac 24 d0 00 00 	mov    rbp,QWORD PTR [rsp+0xd0]
    a63b:	00 
    a63c:	4c 8b ac 24 e8 00 00 	mov    r13,QWORD PTR [rsp+0xe8]
    a643:	00 
    a644:	4c 8b 64 24 70       	mov    r12,QWORD PTR [rsp+0x70]
    a649:	e9 6c fe ff ff       	jmp    a4ba <_dl_rtld_di_serinfo@@GLIBC_PRIVATE+0x103a>
    a64e:	4d 85 f6             	test   r14,r14
    a651:	0f 85 51 01 00 00    	jne    a7a8 <_dl_rtld_di_serinfo@@GLIBC_PRIVATE+0x1328>
    a657:	be 1f 00 00 00       	mov    esi,0x1f
    a65c:	bf 20 00 00 00       	mov    edi,0x20
    a661:	e8 2a 64 ff ff       	call   a90 <calloc@plt>
    a666:	48 85 c0             	test   rax,rax
    a669:	48 89 44 24 18       	mov    QWORD PTR [rsp+0x18],rax
    a66e:	0f 84 60 01 00 00    	je     a7d4 <_dl_rtld_di_serinfo@@GLIBC_PRIVATE+0x1354>
    a674:	48 89 45 48          	mov    QWORD PTR [rbp+0x48],rax
    a678:	48 8b 05 69 b9 21 00 	mov    rax,QWORD PTR [rip+0x21b969]        # 225fe8 <free@@GLIBC_2.2.5+0x20c268>
    a67f:	41 be 1f 00 00 00    	mov    r14d,0x1f
    a685:	48 c7 45 50 1f 00 00 	mov    QWORD PTR [rbp+0x50],0x1f
    a68c:	00 
    a68d:	48 c7 44 24 48 1d 00 	mov    QWORD PTR [rsp+0x48],0x1d
    a694:	00 00 
    a696:	48 89 45 60          	mov    QWORD PTR [rbp+0x60],rax
    a69a:	e9 a8 fa ff ff       	jmp    a147 <_dl_rtld_di_serinfo@@GLIBC_PRIVATE+0xcc7>
    a69f:	be 04 00 00 00       	mov    esi,0x4
    a6a4:	e9 aa fc ff ff       	jmp    a353 <_dl_rtld_di_serinfo@@GLIBC_PRIVATE+0xed3>
    a6a9:	48 8b 7c 24 08       	mov    rdi,QWORD PTR [rsp+0x8]
    a6ae:	31 c0                	xor    eax,eax
    a6b0:	0f b6 37             	movzx  esi,BYTE PTR [rdi]
    a6b3:	48 85 f6             	test   rsi,rsi
    a6b6:	0f 84 96 00 00 00    	je     a752 <_dl_rtld_di_serinfo@@GLIBC_PRIVATE+0x12d2>
    a6bc:	0f b6 47 01          	movzx  eax,BYTE PTR [rdi+0x1]
    a6c0:	84 c0                	test   al,al
    a6c2:	74 7c                	je     a740 <_dl_rtld_di_serinfo@@GLIBC_PRIVATE+0x12c0>
    a6c4:	48 c1 e6 04          	shl    rsi,0x4
    a6c8:	48 01 c6             	add    rsi,rax
    a6cb:	48 8b 44 24 08       	mov    rax,QWORD PTR [rsp+0x8]
    a6d0:	0f b6 40 02          	movzx  eax,BYTE PTR [rax+0x2]
    a6d4:	84 c0                	test   al,al
    a6d6:	74 68                	je     a740 <_dl_rtld_di_serinfo@@GLIBC_PRIVATE+0x12c0>
    a6d8:	48 c1 e6 04          	shl    rsi,0x4
    a6dc:	48 01 c6             	add    rsi,rax
    a6df:	48 8b 44 24 08       	mov    rax,QWORD PTR [rsp+0x8]
    a6e4:	0f b6 40 03          	movzx  eax,BYTE PTR [rax+0x3]
    a6e8:	84 c0                	test   al,al
    a6ea:	74 54                	je     a740 <_dl_rtld_di_serinfo@@GLIBC_PRIVATE+0x12c0>
    a6ec:	48 c1 e6 04          	shl    rsi,0x4
    a6f0:	48 01 c6             	add    rsi,rax
    a6f3:	48 8b 44 24 08       	mov    rax,QWORD PTR [rsp+0x8]
    a6f8:	0f b6 40 04          	movzx  eax,BYTE PTR [rax+0x4]
    a6fc:	84 c0                	test   al,al
    a6fe:	74 40                	je     a740 <_dl_rtld_di_serinfo@@GLIBC_PRIVATE+0x12c0>
    a700:	48 c1 e6 04          	shl    rsi,0x4
    a704:	48 01 c6             	add    rsi,rax
    a707:	48 8b 44 24 08       	mov    rax,QWORD PTR [rsp+0x8]
    a70c:	48 8d 48 05          	lea    rcx,[rax+0x5]
    a710:	0f b6 40 05          	movzx  eax,BYTE PTR [rax+0x5]
    a714:	84 c0                	test   al,al
    a716:	74 22                	je     a73a <_dl_rtld_di_serinfo@@GLIBC_PRIVATE+0x12ba>
    a718:	48 c1 e6 04          	shl    rsi,0x4
    a71c:	48 83 c1 01          	add    rcx,0x1
    a720:	48 01 f0             	add    rax,rsi
    a723:	48 89 c6             	mov    rsi,rax
    a726:	81 e6 00 00 00 f0    	and    esi,0xf0000000
    a72c:	48 c1 ee 18          	shr    rsi,0x18
    a730:	48 31 c6             	xor    rsi,rax
    a733:	0f b6 01             	movzx  eax,BYTE PTR [rcx]
    a736:	84 c0                	test   al,al
    a738:	75 de                	jne    a718 <_dl_rtld_di_serinfo@@GLIBC_PRIVATE+0x1298>
    a73a:	81 e6 ff ff ff 0f    	and    esi,0xfffffff
    a740:	89 d1                	mov    ecx,edx
    a742:	48 89 f0             	mov    rax,rsi
    a745:	31 d2                	xor    edx,edx
    a747:	48 f7 f1             	div    rcx
    a74a:	48 8d 04 95 00 00 00 	lea    rax,[rdx*4+0x0]
    a751:	00 
    a752:	48 8b 7c 24 58       	mov    rdi,QWORD PTR [rsp+0x58]
    a757:	48 89 37             	mov    QWORD PTR [rdi],rsi
    a75a:	e9 56 f7 ff ff       	jmp    9eb5 <_dl_rtld_di_serinfo@@GLIBC_PRIVATE+0xa35>
    a75f:	41 89 da             	mov    r10d,ebx
    a762:	49 89 c0             	mov    r8,rax
    a765:	48 89 eb             	mov    rbx,rbp
    a768:	4c 8b 74 24 60       	mov    r14,QWORD PTR [rsp+0x60]
    a76d:	44 8b 7c 24 68       	mov    r15d,DWORD PTR [rsp+0x68]
    a772:	48 8b ac 24 d0 00 00 	mov    rbp,QWORD PTR [rsp+0xd0]
    a779:	00 
    a77a:	4c 8b ac 24 e8 00 00 	mov    r13,QWORD PTR [rsp+0xe8]
    a781:	00 
    a782:	4c 8b 64 24 70       	mov    r12,QWORD PTR [rsp+0x70]
    a787:	e9 fc f7 ff ff       	jmp    9f88 <_dl_rtld_di_serinfo@@GLIBC_PRIVATE+0xb08>
    a78c:	4c 8b 44 24 78       	mov    r8,QWORD PTR [rsp+0x78]
    a791:	48 8b 5c 24 68       	mov    rbx,QWORD PTR [rsp+0x68]
    a796:	44 8b 54 24 70       	mov    r10d,DWORD PTR [rsp+0x70]
    a79b:	48 8b ac 24 d0 00 00 	mov    rbp,QWORD PTR [rsp+0xd0]
    a7a2:	00 
    a7a3:	e9 ef f7 ff ff       	jmp    9f97 <_dl_rtld_di_serinfo@@GLIBC_PRIVATE+0xb17>
    a7a8:	f6 05 f2 b4 21 00 08 	test   BYTE PTR [rip+0x21b4f2],0x8        # 225ca1 <_rtld_global_ro@@GLIBC_PRIVATE+0x1>
    a7af:	0f 85 27 fa ff ff    	jne    a1dc <_dl_rtld_di_serinfo@@GLIBC_PRIVATE+0xd5c>
    a7b5:	48 8d 0d 44 7c 01 00 	lea    rcx,[rip+0x17c44]        # 22400 <realloc@@GLIBC_2.2.5+0x84d0>
    a7bc:	48 8d 35 96 52 01 00 	lea    rsi,[rip+0x15296]        # 1fa59 <realloc@@GLIBC_2.2.5+0x5b29>
    a7c3:	48 8d 3d 16 6d 01 00 	lea    rdi,[rip+0x16d16]        # 214e0 <realloc@@GLIBC_2.2.5+0x75b0>
    a7ca:	ba 31 01 00 00       	mov    edx,0x131
    a7cf:	e8 0c f7 00 00       	call   19ee0 <free@@GLIBC_2.2.5+0x160>
    a7d4:	48 8b 7c 24 30       	mov    rdi,QWORD PTR [rsp+0x30]
    a7d9:	ff 15 71 c7 21 00    	call   QWORD PTR [rip+0x21c771]        # 226f50 <_rtld_global@@GLIBC_PRIVATE+0xf10>
    a7df:	48 8d 35 29 4e 01 00 	lea    rsi,[rip+0x14e29]        # 1f60f <realloc@@GLIBC_2.2.5+0x56df>
    a7e6:	bf 02 00 00 00       	mov    edi,0x2
    a7eb:	31 c0                	xor    eax,eax
    a7ed:	e8 1e 6f 00 00       	call   11710 <_dl_debug_state@@GLIBC_PRIVATE+0x880>
    a7f2:	bf 7f 00 00 00       	mov    edi,0x7f
    a7f7:	e8 a4 0b 01 00       	call   1b3a0 <realloc@@GLIBC_2.2.5+0x1470>
    a7fc:	0f 1f 40 00          	nop    DWORD PTR [rax+0x0]
    a800:	55                   	push   rbp
    a801:	48 89 e5             	mov    rbp,rsp
    a804:	41 57                	push   r15
    a806:	41 56                	push   r14
    a808:	41 55                	push   r13
    a80a:	41 54                	push   r12
    a80c:	49 89 d7             	mov    r15,rdx
    a80f:	53                   	push   rbx
    a810:	49 89 f6             	mov    r14,rsi
    a813:	4d 89 c4             	mov    r12,r8
    a816:	48 81 ec c8 00 00 00 	sub    rsp,0xc8
    a81d:	0f b6 17             	movzx  edx,BYTE PTR [rdi]
    a820:	48 89 bd 58 ff ff ff 	mov    QWORD PTR [rbp-0xa8],rdi
    a827:	48 89 8d 30 ff ff ff 	mov    QWORD PTR [rbp-0xd0],rcx
    a82e:	44 89 8d 44 ff ff ff 	mov    DWORD PTR [rbp-0xbc],r9d
    a835:	4c 8b 6d 18          	mov    r13,QWORD PTR [rbp+0x18]
    a839:	84 d2                	test   dl,dl
    a83b:	0f 84 ef 02 00 00    	je     ab30 <_dl_rtld_di_serinfo@@GLIBC_PRIVATE+0x16b0>
    a841:	48 89 f9             	mov    rcx,rdi
    a844:	b8 05 15 00 00       	mov    eax,0x1505
    a849:	0f 1f 80 00 00 00 00 	nop    DWORD PTR [rax+0x0]
    a850:	48 89 c6             	mov    rsi,rax
    a853:	48 83 c1 01          	add    rcx,0x1
    a857:	48 c1 e6 05          	shl    rsi,0x5
    a85b:	48 01 f0             	add    rax,rsi
    a85e:	48 01 d0             	add    rax,rdx
    a861:	0f b6 11             	movzx  edx,BYTE PTR [rcx]
    a864:	84 d2                	test   dl,dl
    a866:	75 e8                	jne    a850 <_dl_rtld_di_serinfo@@GLIBC_PRIVATE+0x13d0>
    a868:	89 c0                	mov    eax,eax
    a86a:	48 89 85 50 ff ff ff 	mov    QWORD PTR [rbp-0xb0],rax
    a871:	b8 ff ff ff ff       	mov    eax,0xffffffff
    a876:	48 83 05 3a c1 21 00 	add    QWORD PTR [rip+0x21c13a],0x1        # 2269b8 <_rtld_global@@GLIBC_PRIVATE+0x978>
    a87d:	01 
    a87e:	4d 85 e4             	test   r12,r12
    a881:	48 89 85 60 ff ff ff 	mov    QWORD PTR [rbp-0xa0],rax
    a888:	48 c7 85 70 ff ff ff 	mov    QWORD PTR [rbp-0x90],0x0
    a88f:	00 00 00 00 
    a893:	48 c7 85 78 ff ff ff 	mov    QWORD PTR [rbp-0x88],0x0
    a89a:	00 00 00 00 
    a89e:	74 0d                	je     a8ad <_dl_rtld_di_serinfo@@GLIBC_PRIVATE+0x142d>
    a8a0:	f7 45 10 fa ff ff ff 	test   DWORD PTR [rbp+0x10],0xfffffffa
    a8a7:	0f 85 c7 0e 00 00    	jne    b774 <_dl_rtld_di_serinfo@@GLIBC_PRIVATE+0x22f4>
    a8ad:	48 8b 85 30 ff ff ff 	mov    rax,QWORD PTR [rbp-0xd0]
    a8b4:	4d 85 ed             	test   r13,r13
    a8b7:	4c 8b 08             	mov    r9,QWORD PTR [rax]
    a8ba:	0f 85 1e 02 00 00    	jne    aade <_dl_rtld_di_serinfo@@GLIBC_PRIVATE+0x165e>
    a8c0:	4d 85 c9             	test   r9,r9
    a8c3:	48 c7 85 28 ff ff ff 	mov    QWORD PTR [rbp-0xd8],0x0
    a8ca:	00 00 00 00 
    a8ce:	0f 84 32 02 00 00    	je     ab06 <_dl_rtld_di_serinfo@@GLIBC_PRIVATE+0x1686>
    a8d4:	48 8d 8d 70 ff ff ff 	lea    rcx,[rbp-0x90]
    a8db:	48 8b 85 28 ff ff ff 	mov    rax,QWORD PTR [rbp-0xd8]
    a8e2:	48 8b 9d 30 ff ff ff 	mov    rbx,QWORD PTR [rbp-0xd0]
    a8e9:	48 89 8d 38 ff ff ff 	mov    QWORD PTR [rbp-0xc8],rcx
    a8f0:	48 8d 8d 60 ff ff ff 	lea    rcx,[rbp-0xa0]
    a8f7:	48 89 8d 48 ff ff ff 	mov    QWORD PTR [rbp-0xb8],rcx
    a8fe:	eb 19                	jmp    a919 <_dl_rtld_di_serinfo@@GLIBC_PRIVATE+0x1499>
    a900:	74 09                	je     a90b <_dl_rtld_di_serinfo@@GLIBC_PRIVATE+0x148b>
    a902:	4d 85 ed             	test   r13,r13
    a905:	0f 84 1d 05 00 00    	je     ae28 <_dl_rtld_di_serinfo@@GLIBC_PRIVATE+0x19a8>
    a90b:	48 83 c3 08          	add    rbx,0x8
    a90f:	4c 8b 0b             	mov    r9,QWORD PTR [rbx]
    a912:	31 c0                	xor    eax,eax
    a914:	4d 85 c9             	test   r9,r9
    a917:	74 3f                	je     a958 <_dl_rtld_di_serinfo@@GLIBC_PRIVATE+0x14d8>
    a919:	8b bd 44 ff ff ff    	mov    edi,DWORD PTR [rbp-0xbc]
    a91f:	8b 75 10             	mov    esi,DWORD PTR [rbp+0x10]
    a922:	41 56                	push   r14
    a924:	4c 8b 85 38 ff ff ff 	mov    r8,QWORD PTR [rbp-0xc8]
    a92b:	49 8b 0f             	mov    rcx,QWORD PTR [r15]
    a92e:	48 8b 95 48 ff ff ff 	mov    rdx,QWORD PTR [rbp-0xb8]
    a935:	57                   	push   rdi
    a936:	48 8b bd 58 ff ff ff 	mov    rdi,QWORD PTR [rbp-0xa8]
    a93d:	41 55                	push   r13
    a93f:	56                   	push   rsi
    a940:	48 8b b5 50 ff ff ff 	mov    rsi,QWORD PTR [rbp-0xb0]
    a947:	41 54                	push   r12
    a949:	50                   	push   rax
    a94a:	e8 51 f3 ff ff       	call   9ca0 <_dl_rtld_di_serinfo@@GLIBC_PRIVATE+0x820>
    a94f:	48 83 c4 30          	add    rsp,0x30
    a953:	83 f8 00             	cmp    eax,0x0
    a956:	7e a8                	jle    a900 <_dl_rtld_di_serinfo@@GLIBC_PRIVATE+0x1480>
    a958:	48 83 bd 70 ff ff ff 	cmp    QWORD PTR [rbp-0x90],0x0
    a95f:	00 
    a960:	0f 84 a0 01 00 00    	je     ab06 <_dl_rtld_di_serinfo@@GLIBC_PRIVATE+0x1686>
    a966:	49 8b 0f             	mov    rcx,QWORD PTR [r15]
    a969:	48 85 c9             	test   rcx,rcx
    a96c:	74 0b                	je     a979 <_dl_rtld_di_serinfo@@GLIBC_PRIVATE+0x14f9>
    a96e:	0f b6 41 05          	movzx  eax,BYTE PTR [rcx+0x5]
    a972:	83 e0 03             	and    eax,0x3
    a975:	3c 03                	cmp    al,0x3
    a977:	74 5f                	je     a9d8 <_dl_rtld_di_serinfo@@GLIBC_PRIVATE+0x1558>
    a979:	4c 8b 8d 78 ff ff ff 	mov    r9,QWORD PTR [rbp-0x88]
    a980:	31 db                	xor    ebx,ebx
    a982:	41 0f b6 91 14 03 00 	movzx  edx,BYTE PTR [r9+0x314]
    a989:	00 
    a98a:	4c 89 c8             	mov    rax,r9
    a98d:	83 e2 03             	and    edx,0x3
    a990:	80 fa 02             	cmp    dl,0x2
    a993:	0f 84 01 03 00 00    	je     ac9a <_dl_rtld_di_serinfo@@GLIBC_PRIVATE+0x181a>
    a999:	8b b8 cc 03 00 00    	mov    edi,DWORD PTR [rax+0x3cc]
    a99f:	85 ff                	test   edi,edi
    a9a1:	0f 84 6d 03 00 00    	je     ad14 <_dl_rtld_di_serinfo@@GLIBC_PRIVATE+0x1894>
    a9a7:	8b 15 f3 b2 21 00    	mov    edx,DWORD PTR [rip+0x21b2f3]        # 225ca0 <_rtld_global_ro@@GLIBC_PRIVATE>
    a9ad:	f7 c2 04 08 00 00    	test   edx,0x804
    a9b3:	0f 85 87 01 00 00    	jne    ab40 <_dl_rtld_di_serinfo@@GLIBC_PRIVATE+0x16c0>
    a9b9:	48 8b 95 70 ff ff ff 	mov    rdx,QWORD PTR [rbp-0x90]
    a9c0:	49 89 17             	mov    QWORD PTR [r15],rdx
    a9c3:	48 8d 65 d8          	lea    rsp,[rbp-0x28]
    a9c7:	5b                   	pop    rbx
    a9c8:	41 5c                	pop    r12
    a9ca:	41 5d                	pop    r13
    a9cc:	41 5e                	pop    r14
    a9ce:	41 5f                	pop    r15
    a9d0:	5d                   	pop    rbp
    a9d1:	c3                   	ret
    a9d2:	66 0f 1f 44 00 00    	nop    WORD PTR [rax+rax*1+0x0]
    a9d8:	83 bd 44 ff ff ff 01 	cmp    DWORD PTR [rbp-0xbc],0x1
    a9df:	0f 84 3e 03 00 00    	je     ad23 <_dl_rtld_di_serinfo@@GLIBC_PRIVATE+0x18a3>
    a9e5:	48 8b 85 30 ff ff ff 	mov    rax,QWORD PTR [rbp-0xd0]
    a9ec:	48 c7 45 90 00 00 00 	mov    QWORD PTR [rbp-0x70],0x0
    a9f3:	00 
    a9f4:	48 c7 45 98 00 00 00 	mov    QWORD PTR [rbp-0x68],0x0
    a9fb:	00 
    a9fc:	4c 8b 08             	mov    r9,QWORD PTR [rax]
    a9ff:	4d 85 c9             	test   r9,r9
    aa02:	0f 84 43 03 00 00    	je     ad4b <_dl_rtld_di_serinfo@@GLIBC_PRIVATE+0x18cb>
    aa08:	83 bd 44 ff ff ff 04 	cmp    DWORD PTR [rbp-0xbc],0x4
    aa0f:	49 89 c2             	mov    r10,rax
    aa12:	48 8d 45 90          	lea    rax,[rbp-0x70]
    aa16:	48 8b 95 28 ff ff ff 	mov    rdx,QWORD PTR [rbp-0xd8]
    aa1d:	8b 5d 10             	mov    ebx,DWORD PTR [rbp+0x10]
    aa20:	4c 89 b5 28 ff ff ff 	mov    QWORD PTR [rbp-0xd8],r14
    aa27:	48 89 85 38 ff ff ff 	mov    QWORD PTR [rbp-0xc8],rax
    aa2e:	4d 89 d6             	mov    r14,r10
    aa31:	0f 94 85 20 ff ff ff 	sete   BYTE PTR [rbp-0xe0]
    aa38:	eb 17                	jmp    aa51 <_dl_rtld_di_serinfo@@GLIBC_PRIVATE+0x15d1>
    aa3a:	66 0f 1f 44 00 00    	nop    WORD PTR [rax+rax*1+0x0]
    aa40:	49 83 c6 08          	add    r14,0x8
    aa44:	4d 8b 0e             	mov    r9,QWORD PTR [r14]
    aa47:	4d 85 c9             	test   r9,r9
    aa4a:	74 55                	je     aaa1 <_dl_rtld_di_serinfo@@GLIBC_PRIVATE+0x1621>
    aa4c:	49 8b 0f             	mov    rcx,QWORD PTR [r15]
    aa4f:	31 d2                	xor    edx,edx
    aa51:	0f b6 41 04          	movzx  eax,BYTE PTR [rcx+0x4]
    aa55:	83 e0 0f             	and    eax,0xf
    aa58:	3c 01                	cmp    al,0x1
    aa5a:	75 0e                	jne    aa6a <_dl_rtld_di_serinfo@@GLIBC_PRIVATE+0x15ea>
    aa5c:	80 bd 20 ff ff ff 00 	cmp    BYTE PTR [rbp-0xe0],0x0
    aa63:	b8 04 00 00 00       	mov    eax,0x4
    aa68:	75 05                	jne    aa6f <_dl_rtld_di_serinfo@@GLIBC_PRIVATE+0x15ef>
    aa6a:	b8 01 00 00 00       	mov    eax,0x1
    aa6f:	6a 00                	push   0x0
    aa71:	4c 8b 85 38 ff ff ff 	mov    r8,QWORD PTR [rbp-0xc8]
    aa78:	50                   	push   rax
    aa79:	48 8b b5 50 ff ff ff 	mov    rsi,QWORD PTR [rbp-0xb0]
    aa80:	41 55                	push   r13
    aa82:	48 8b bd 58 ff ff ff 	mov    rdi,QWORD PTR [rbp-0xa8]
    aa89:	53                   	push   rbx
    aa8a:	41 54                	push   r12
    aa8c:	52                   	push   rdx
    aa8d:	48 8b 95 48 ff ff ff 	mov    rdx,QWORD PTR [rbp-0xb8]
    aa94:	e8 07 f2 ff ff       	call   9ca0 <_dl_rtld_di_serinfo@@GLIBC_PRIVATE+0x820>
    aa99:	48 83 c4 30          	add    rsp,0x30
    aa9d:	85 c0                	test   eax,eax
    aa9f:	74 9f                	je     aa40 <_dl_rtld_di_serinfo@@GLIBC_PRIVATE+0x15c0>
    aaa1:	48 83 7d 90 00       	cmp    QWORD PTR [rbp-0x70],0x0
    aaa6:	4c 8b b5 28 ff ff ff 	mov    r14,QWORD PTR [rbp-0xd8]
    aaad:	0f 84 98 02 00 00    	je     ad4b <_dl_rtld_di_serinfo@@GLIBC_PRIVATE+0x18cb>
    aab3:	4c 3b 75 98          	cmp    r14,QWORD PTR [rbp-0x68]
    aab7:	0f 84 8e 02 00 00    	je     ad4b <_dl_rtld_di_serinfo@@GLIBC_PRIVATE+0x18cb>
    aabd:	49 8b 07             	mov    rax,QWORD PTR [r15]
    aac0:	4c 89 b5 78 ff ff ff 	mov    QWORD PTR [rbp-0x88],r14
    aac7:	48 89 85 70 ff ff ff 	mov    QWORD PTR [rbp-0x90],rax
    aace:	4c 89 f0             	mov    rax,r14
    aad1:	49 89 c1             	mov    r9,rax
    aad4:	bb 01 00 00 00       	mov    ebx,0x1
    aad9:	e9 a4 fe ff ff       	jmp    a982 <_dl_rtld_di_serinfo@@GLIBC_PRIVATE+0x1502>
    aade:	49 8b 01             	mov    rax,QWORD PTR [r9]
    aae1:	4c 3b 28             	cmp    r13,QWORD PTR [rax]
    aae4:	0f 84 7d 06 00 00    	je     b167 <_dl_rtld_di_serinfo@@GLIBC_PRIVATE+0x1ce7>
    aaea:	31 d2                	xor    edx,edx
    aaec:	0f 1f 40 00          	nop    DWORD PTR [rax+0x0]
    aaf0:	48 83 c2 01          	add    rdx,0x1
    aaf4:	4c 3b 2c d0          	cmp    r13,QWORD PTR [rax+rdx*8]
    aaf8:	75 f6                	jne    aaf0 <_dl_rtld_di_serinfo@@GLIBC_PRIVATE+0x1670>
    aafa:	48 89 95 28 ff ff ff 	mov    QWORD PTR [rbp-0xd8],rdx
    ab01:	e9 ce fd ff ff       	jmp    a8d4 <_dl_rtld_di_serinfo@@GLIBC_PRIVATE+0x1454>
    ab06:	49 8b 07             	mov    rax,QWORD PTR [r15]
    ab09:	48 85 c0             	test   rax,rax
    ab0c:	74 0b                	je     ab19 <_dl_rtld_di_serinfo@@GLIBC_PRIVATE+0x1699>
    ab0e:	0f b6 40 04          	movzx  eax,BYTE PTR [rax+0x4]
    ab12:	c0 e8 04             	shr    al,0x4
    ab15:	3c 02                	cmp    al,0x2
    ab17:	74 09                	je     ab22 <_dl_rtld_di_serinfo@@GLIBC_PRIVATE+0x16a2>
    ab19:	4d 85 ed             	test   r13,r13
    ab1c:	0f 84 f9 04 00 00    	je     b01b <_dl_rtld_di_serinfo@@GLIBC_PRIVATE+0x1b9b>
    ab22:	49 c7 07 00 00 00 00 	mov    QWORD PTR [r15],0x0
    ab29:	31 c0                	xor    eax,eax
    ab2b:	e9 93 fe ff ff       	jmp    a9c3 <_dl_rtld_di_serinfo@@GLIBC_PRIVATE+0x1543>
    ab30:	48 c7 85 50 ff ff ff 	mov    QWORD PTR [rbp-0xb0],0x1505
    ab37:	05 15 00 00 
    ab3b:	e9 31 fd ff ff       	jmp    a871 <_dl_rtld_di_serinfo@@GLIBC_PRIVATE+0x13f1>
    ab40:	f6 c2 04             	test   dl,0x4
    ab43:	0f 84 9c 00 00 00    	je     abe5 <_dl_rtld_di_serinfo@@GLIBC_PRIVATE+0x1765>
    ab49:	48 8d 0d 40 4f 01 00 	lea    rcx,[rip+0x14f40]        # 1fa90 <realloc@@GLIBC_2.2.5+0x5b60>
    ab50:	48 8d 15 2f 4f 01 00 	lea    rdx,[rip+0x14f2f]        # 1fa86 <realloc@@GLIBC_2.2.5+0x5b56>
    ab57:	85 db                	test   ebx,ebx
    ab59:	4c 8b 40 30          	mov    r8,QWORD PTR [rax+0x30]
    ab5d:	48 0f 44 d1          	cmove  rdx,rcx
    ab61:	48 8b 48 08          	mov    rcx,QWORD PTR [rax+0x8]
    ab65:	49 89 d1             	mov    r9,rdx
    ab68:	80 39 00             	cmp    BYTE PTR [rcx],0x0
    ab6b:	75 18                	jne    ab85 <_dl_rtld_di_serinfo@@GLIBC_PRIVATE+0x1705>
    ab6d:	48 8b 05 0c b1 21 00 	mov    rax,QWORD PTR [rip+0x21b10c]        # 225c80 <_dl_argv@@GLIBC_PRIVATE>
    ab74:	48 8d 0d a2 48 01 00 	lea    rcx,[rip+0x148a2]        # 1f41d <realloc@@GLIBC_2.2.5+0x54ed>
    ab7b:	48 8b 00             	mov    rax,QWORD PTR [rax]
    ab7e:	48 85 c0             	test   rax,rax
    ab81:	48 0f 45 c8          	cmovne rcx,rax
    ab85:	49 8b 76 08          	mov    rsi,QWORD PTR [r14+0x8]
    ab89:	49 8b 56 30          	mov    rdx,QWORD PTR [r14+0x30]
    ab8d:	80 3e 00             	cmp    BYTE PTR [rsi],0x0
    ab90:	75 18                	jne    abaa <_dl_rtld_di_serinfo@@GLIBC_PRIVATE+0x172a>
    ab92:	48 8b 05 e7 b0 21 00 	mov    rax,QWORD PTR [rip+0x21b0e7]        # 225c80 <_dl_argv@@GLIBC_PRIVATE>
    ab99:	48 8d 35 7d 48 01 00 	lea    rsi,[rip+0x1487d]        # 1f41d <realloc@@GLIBC_2.2.5+0x54ed>
    aba0:	48 8b 00             	mov    rax,QWORD PTR [rax]
    aba3:	48 85 c0             	test   rax,rax
    aba6:	48 0f 45 f0          	cmovne rsi,rax
    abaa:	48 83 ec 08          	sub    rsp,0x8
    abae:	48 8d 3d eb 69 01 00 	lea    rdi,[rip+0x169eb]        # 215a0 <realloc@@GLIBC_2.2.5+0x7670>
    abb5:	ff b5 58 ff ff ff    	push   QWORD PTR [rbp-0xa8]
    abbb:	31 c0                	xor    eax,eax
    abbd:	e8 ee 69 00 00       	call   115b0 <_dl_debug_state@@GLIBC_PRIVATE+0x720>
    abc2:	4d 85 e4             	test   r12,r12
    abc5:	59                   	pop    rcx
    abc6:	5e                   	pop    rsi
    abc7:	0f 84 e7 06 00 00    	je     b2b4 <_dl_rtld_di_serinfo@@GLIBC_PRIVATE+0x1e34>
    abcd:	49 8b 34 24          	mov    rsi,QWORD PTR [r12]
    abd1:	48 8d 3d 3f 4f 01 00 	lea    rdi,[rip+0x14f3f]        # 1fb17 <realloc@@GLIBC_2.2.5+0x5be7>
    abd8:	31 c0                	xor    eax,eax
    abda:	e8 81 6a 00 00       	call   11660 <_dl_debug_state@@GLIBC_PRIVATE+0x7d0>
    abdf:	8b 15 bb b0 21 00    	mov    edx,DWORD PTR [rip+0x21b0bb]        # 225ca0 <_rtld_global_ro@@GLIBC_PRIVATE>
    abe5:	80 e6 08             	and    dh,0x8
    abe8:	0f 84 67 03 00 00    	je     af55 <_dl_rtld_di_serinfo@@GLIBC_PRIVATE+0x1ad5>
    abee:	48 8b 05 93 b1 21 00 	mov    rax,QWORD PTR [rip+0x21b193]        # 225d88 <_rtld_global_ro@@GLIBC_PRIVATE+0xe8>
    abf5:	48 c7 45 80 00 00 00 	mov    QWORD PTR [rbp-0x80],0x0
    abfc:	00 
    abfd:	48 c7 45 88 00 00 00 	mov    QWORD PTR [rbp-0x78],0x0
    ac04:	00 
    ac05:	48 8b 15 34 b4 21 00 	mov    rdx,QWORD PTR [rip+0x21b434]        # 226040 <_rtld_global@@GLIBC_PRIVATE>
    ac0c:	48 85 c0             	test   rax,rax
    ac0f:	0f 84 42 01 00 00    	je     ad57 <_dl_rtld_di_serinfo@@GLIBC_PRIVATE+0x18d7>
    ac15:	48 39 d0             	cmp    rax,rdx
    ac18:	0f 84 39 01 00 00    	je     ad57 <_dl_rtld_di_serinfo@@GLIBC_PRIVATE+0x18d7>
    ac1e:	48 8b 95 70 ff ff ff 	mov    rdx,QWORD PTR [rbp-0x90]
    ac25:	31 c0                	xor    eax,eax
    ac27:	48 85 d2             	test   rdx,rdx
    ac2a:	0f 84 47 05 00 00    	je     b177 <_dl_rtld_di_serinfo@@GLIBC_PRIVATE+0x1cf7>
    ac30:	0f b6 4a 04          	movzx  ecx,BYTE PTR [rdx+0x4]
    ac34:	83 a5 44 ff ff ff 03 	and    DWORD PTR [rbp-0xbc],0x3
    ac3b:	8b 9d 44 ff ff ff    	mov    ebx,DWORD PTR [rbp-0xbc]
    ac41:	83 e1 0f             	and    ecx,0xf
    ac44:	80 f9 06             	cmp    cl,0x6
    ac47:	0f 84 80 06 00 00    	je     b2cd <_dl_rtld_di_serinfo@@GLIBC_PRIVATE+0x1e4d>
    ac4d:	89 de                	mov    esi,ebx
    ac4f:	83 ce 08             	or     esi,0x8
    ac52:	80 f9 0a             	cmp    cl,0xa
    ac55:	0f 45 f3             	cmovne esi,ebx
    ac58:	89 b5 44 ff ff ff    	mov    DWORD PTR [rbp-0xbc],esi
    ac5e:	85 c0                	test   eax,eax
    ac60:	0f 85 fb 02 00 00    	jne    af61 <_dl_rtld_di_serinfo@@GLIBC_PRIVATE+0x1ae1>
    ac66:	48 8b 05 1b b1 21 00 	mov    rax,QWORD PTR [rip+0x21b11b]        # 225d88 <_rtld_global_ro@@GLIBC_PRIVATE+0xe8>
    ac6d:	48 85 c0             	test   rax,rax
    ac70:	0f 94 c1             	sete   cl
    ac73:	49 39 c6             	cmp    r14,rax
    ac76:	0f 94 c0             	sete   al
    ac79:	08 c1                	or     cl,al
    ac7b:	0f 85 85 04 00 00    	jne    b106 <_dl_rtld_di_serinfo@@GLIBC_PRIVATE+0x1c86>
    ac81:	83 bd 44 ff ff ff 03 	cmp    DWORD PTR [rbp-0xbc],0x3
    ac88:	0f 8f 78 04 00 00    	jg     b106 <_dl_rtld_di_serinfo@@GLIBC_PRIVATE+0x1c86>
    ac8e:	48 8b 85 78 ff ff ff 	mov    rax,QWORD PTR [rbp-0x88]
    ac95:	e9 26 fd ff ff       	jmp    a9c0 <_dl_rtld_di_serinfo@@GLIBC_PRIVATE+0x1540>
    ac9a:	f6 45 10 01          	test   BYTE PTR [rbp+0x10],0x1
    ac9e:	0f 84 f5 fc ff ff    	je     a999 <_dl_rtld_di_serinfo@@GLIBC_PRIVATE+0x1519>
    aca4:	4d 39 ce             	cmp    r14,r9
    aca7:	0f 84 2f 06 00 00    	je     b2dc <_dl_rtld_di_serinfo@@GLIBC_PRIVATE+0x1e5c>
    acad:	41 f6 81 d4 03 00 00 	test   BYTE PTR [r9+0x3d4],0x8
    acb4:	08 
    acb5:	0f 85 de fc ff ff    	jne    a999 <_dl_rtld_di_serinfo@@GLIBC_PRIVATE+0x1519>
    acbb:	49 8b 86 c0 03 00 00 	mov    rax,QWORD PTR [r14+0x3c0]
    acc2:	48 89 85 48 ff ff ff 	mov    QWORD PTR [rbp-0xb8],rax
    acc9:	4d 8b 86 b8 03 00 00 	mov    r8,QWORD PTR [r14+0x3b8]
    acd0:	4d 85 c0             	test   r8,r8
    acd3:	0f 84 bc 04 00 00    	je     b195 <_dl_rtld_di_serinfo@@GLIBC_PRIVATE+0x1d15>
    acd9:	49 8b 10             	mov    rdx,QWORD PTR [r8]
    acdc:	48 85 d2             	test   rdx,rdx
    acdf:	0f 84 b0 04 00 00    	je     b195 <_dl_rtld_di_serinfo@@GLIBC_PRIVATE+0x1d15>
    ace5:	31 c0                	xor    eax,eax
    ace7:	eb 1a                	jmp    ad03 <_dl_rtld_di_serinfo@@GLIBC_PRIVATE+0x1883>
    ace9:	0f 1f 80 00 00 00 00 	nop    DWORD PTR [rax+0x0]
    acf0:	8d 50 01             	lea    edx,[rax+0x1]
    acf3:	48 89 d0             	mov    rax,rdx
    acf6:	49 8b 14 d0          	mov    rdx,QWORD PTR [r8+rdx*8]
    acfa:	48 85 d2             	test   rdx,rdx
    acfd:	0f 84 92 04 00 00    	je     b195 <_dl_rtld_di_serinfo@@GLIBC_PRIVATE+0x1d15>
    ad03:	4c 39 ca             	cmp    rdx,r9
    ad06:	75 e8                	jne    acf0 <_dl_rtld_di_serinfo@@GLIBC_PRIVATE+0x1870>
    ad08:	48 8b 85 78 ff ff ff 	mov    rax,QWORD PTR [rbp-0x88]
    ad0f:	e9 85 fc ff ff       	jmp    a999 <_dl_rtld_di_serinfo@@GLIBC_PRIVATE+0x1519>
    ad14:	c7 80 cc 03 00 00 01 	mov    DWORD PTR [rax+0x3cc],0x1
    ad1b:	00 00 00 
    ad1e:	e9 84 fc ff ff       	jmp    a9a7 <_dl_rtld_di_serinfo@@GLIBC_PRIVATE+0x1527>
    ad23:	4c 3b b5 78 ff ff ff 	cmp    r14,QWORD PTR [rbp-0x88]
    ad2a:	0f 84 b4 05 00 00    	je     b2e4 <_dl_rtld_di_serinfo@@GLIBC_PRIVATE+0x1e64>
    ad30:	48 89 8d 70 ff ff ff 	mov    QWORD PTR [rbp-0x90],rcx
    ad37:	4c 89 b5 78 ff ff ff 	mov    QWORD PTR [rbp-0x88],r14
    ad3e:	4d 89 f1             	mov    r9,r14
    ad41:	bb 01 00 00 00       	mov    ebx,0x1
    ad46:	e9 37 fc ff ff       	jmp    a982 <_dl_rtld_di_serinfo@@GLIBC_PRIVATE+0x1502>
    ad4b:	48 8b 85 78 ff ff ff 	mov    rax,QWORD PTR [rbp-0x88]
    ad52:	e9 7a fd ff ff       	jmp    aad1 <_dl_rtld_di_serinfo@@GLIBC_PRIVATE+0x1651>
    ad57:	49 39 d6             	cmp    r14,rdx
    ad5a:	0f 84 be fe ff ff    	je     ac1e <_dl_rtld_di_serinfo@@GLIBC_PRIVATE+0x179e>
    ad60:	48 8b 85 58 ff ff ff 	mov    rax,QWORD PTR [rbp-0xa8]
    ad67:	0f b6 10             	movzx  edx,BYTE PTR [rax]
    ad6a:	84 d2                	test   dl,dl
    ad6c:	0f 84 87 06 00 00    	je     b3f9 <_dl_rtld_di_serinfo@@GLIBC_PRIVATE+0x1f79>
    ad72:	48 89 c1             	mov    rcx,rax
    ad75:	bb 05 15 00 00       	mov    ebx,0x1505
    ad7a:	48 89 d8             	mov    rax,rbx
    ad7d:	48 83 c1 01          	add    rcx,0x1
    ad81:	48 c1 e0 05          	shl    rax,0x5
    ad85:	48 01 c3             	add    rbx,rax
    ad88:	48 01 d3             	add    rbx,rdx
    ad8b:	0f b6 11             	movzx  edx,BYTE PTR [rcx]
    ad8e:	84 d2                	test   dl,dl
    ad90:	75 e8                	jne    ad7a <_dl_rtld_di_serinfo@@GLIBC_PRIVATE+0x18fa>
    ad92:	48 8b bd 58 ff ff ff 	mov    rdi,QWORD PTR [rbp-0xa8]
    ad99:	89 db                	mov    ebx,ebx
    ad9b:	b8 ff ff ff ff       	mov    eax,0xffffffff
    ada0:	8b 8d 44 ff ff ff    	mov    ecx,DWORD PTR [rbp-0xbc]
    ada6:	41 56                	push   r14
    ada8:	48 89 85 68 ff ff ff 	mov    QWORD PTR [rbp-0x98],rax
    adaf:	48 8b 05 d2 b2 21 00 	mov    rax,QWORD PTR [rip+0x21b2d2]        # 226088 <_rtld_global@@GLIBC_PRIVATE+0x48>
    adb6:	4c 8d 45 80          	lea    r8,[rbp-0x80]
    adba:	48 c7 05 c3 b2 21 00 	mov    QWORD PTR [rip+0x21b2c3],0x0        # 226088 <_rtld_global@@GLIBC_PRIVATE+0x48>
    adc1:	00 00 00 00 
    adc5:	48 89 de             	mov    rsi,rbx
    adc8:	51                   	push   rcx
    adc9:	49 8b 0f             	mov    rcx,QWORD PTR [r15]
    adcc:	6a 00                	push   0x0
    adce:	48 89 85 50 ff ff ff 	mov    QWORD PTR [rbp-0xb0],rax
    add5:	48 8d 85 68 ff ff ff 	lea    rax,[rbp-0x98]
    addc:	6a 00                	push   0x0
    adde:	41 54                	push   r12
    ade0:	4d 8b 8e 88 03 00 00 	mov    r9,QWORD PTR [r14+0x388]
    ade7:	6a 00                	push   0x0
    ade9:	48 89 c2             	mov    rdx,rax
    adec:	48 89 85 48 ff ff ff 	mov    QWORD PTR [rbp-0xb8],rax
    adf3:	e8 a8 ee ff ff       	call   9ca0 <_dl_rtld_di_serinfo@@GLIBC_PRIVATE+0x820>
    adf8:	48 8b 75 80          	mov    rsi,QWORD PTR [rbp-0x80]
    adfc:	48 8b 95 70 ff ff ff 	mov    rdx,QWORD PTR [rbp-0x90]
    ae03:	48 83 c4 30          	add    rsp,0x30
    ae07:	b8 01 00 00 00       	mov    eax,0x1
    ae0c:	48 39 d6             	cmp    rsi,rdx
    ae0f:	0f 84 dc 04 00 00    	je     b2f1 <_dl_rtld_di_serinfo@@GLIBC_PRIVATE+0x1e71>
    ae15:	48 8b 9d 50 ff ff ff 	mov    rbx,QWORD PTR [rbp-0xb0]
    ae1c:	48 89 1d 65 b2 21 00 	mov    QWORD PTR [rip+0x21b265],rbx        # 226088 <_rtld_global@@GLIBC_PRIVATE+0x48>
    ae23:	e9 ff fd ff ff       	jmp    ac27 <_dl_rtld_di_serinfo@@GLIBC_PRIVATE+0x17a7>
    ae28:	4d 85 e4             	test   r12,r12
    ae2b:	0f 84 05 07 00 00    	je     b536 <_dl_rtld_di_serinfo@@GLIBC_PRIVATE+0x20b6>
    ae31:	4d 85 f6             	test   r14,r14
    ae34:	48 8d 1d 6b 48 01 00 	lea    rbx,[rip+0x1486b]        # 1f6a6 <realloc@@GLIBC_2.2.5+0x5776>
    ae3b:	74 04                	je     ae41 <_dl_rtld_di_serinfo@@GLIBC_PRIVATE+0x19c1>
    ae3d:	49 8b 5e 08          	mov    rbx,QWORD PTR [r14+0x8]
    ae41:	48 8d 3d 33 4c 01 00 	lea    rdi,[rip+0x14c33]        # 1fa7b <realloc@@GLIBC_2.2.5+0x5b4b>
    ae48:	48 8d 0d 58 4c 01 00 	lea    rcx,[rip+0x14c58]        # 1faa7 <realloc@@GLIBC_2.2.5+0x5b77>
    ae4f:	83 f8 fe             	cmp    eax,0xfffffffe
    ae52:	4d 8b 2c 24          	mov    r13,QWORD PTR [r12]
    ae56:	4d 8b 74 24 10       	mov    r14,QWORD PTR [r12+0x10]
    ae5b:	48 8d 05 44 48 01 00 	lea    rax,[rip+0x14844]        # 1f6a6 <realloc@@GLIBC_2.2.5+0x5776>
    ae62:	48 89 7d a0          	mov    QWORD PTR [rbp-0x60],rdi
    ae66:	48 8d 3d 42 4c 01 00 	lea    rdi,[rip+0x14c42]        # 1faaf <realloc@@GLIBC_2.2.5+0x5b7f>
    ae6d:	48 89 4d 90          	mov    QWORD PTR [rbp-0x70],rcx
    ae71:	48 8b 8d 58 ff ff ff 	mov    rcx,QWORD PTR [rbp-0xa8]
    ae78:	4c 8d 25 e6 4b 01 00 	lea    r12,[rip+0x14be6]        # 1fa65 <realloc@@GLIBC_2.2.5+0x5b35>
    ae7f:	48 89 7d b0          	mov    QWORD PTR [rbp-0x50],rdi
    ae83:	48 8d 3d 3b 4c 01 00 	lea    rdi,[rip+0x14c3b]        # 1fac5 <realloc@@GLIBC_2.2.5+0x5b95>
    ae8a:	4c 89 6d a8          	mov    QWORD PTR [rbp-0x58],r13
    ae8e:	4c 0f 45 e0          	cmovne r12,rax
    ae92:	4c 89 75 b8          	mov    QWORD PTR [rbp-0x48],r14
    ae96:	48 89 7d c0          	mov    QWORD PTR [rbp-0x40],rdi
    ae9a:	48 89 cf             	mov    rdi,rcx
    ae9d:	48 89 4d 98          	mov    QWORD PTR [rbp-0x68],rcx
    aea1:	4c 89 65 c8          	mov    QWORD PTR [rbp-0x38],r12
    aea5:	e8 16 1f 01 00       	call   1cdc0 <realloc@@GLIBC_2.2.5+0x2e90>
    aeaa:	4c 89 ef             	mov    rdi,r13
    aead:	48 83 c0 12          	add    rax,0x12
    aeb1:	48 89 85 58 ff ff ff 	mov    QWORD PTR [rbp-0xa8],rax
    aeb8:	e8 03 1f 01 00       	call   1cdc0 <realloc@@GLIBC_2.2.5+0x2e90>
    aebd:	48 8b 8d 58 ff ff ff 	mov    rcx,QWORD PTR [rbp-0xa8]
    aec4:	4c 89 f7             	mov    rdi,r14
    aec7:	4c 8d 6c 01 15       	lea    r13,[rcx+rax*1+0x15]
    aecc:	e8 ef 1e 01 00       	call   1cdc0 <realloc@@GLIBC_2.2.5+0x2e90>
    aed1:	4d 8d 6c 05 19       	lea    r13,[r13+rax*1+0x19]
    aed6:	4c 89 e7             	mov    rdi,r12
    aed9:	45 31 e4             	xor    r12d,r12d
    aedc:	e8 df 1e 01 00       	call   1cdc0 <realloc@@GLIBC_2.2.5+0x2e90>
    aee1:	49 8d 44 05 1e       	lea    rax,[r13+rax*1+0x1e]
    aee6:	48 8d 4d 90          	lea    rcx,[rbp-0x70]
    aeea:	48 83 e0 f0          	and    rax,0xfffffffffffffff0
    aeee:	49 89 ce             	mov    r14,rcx
    aef1:	48 29 c4             	sub    rsp,rax
    aef4:	4c 8d 6c 24 0f       	lea    r13,[rsp+0xf]
    aef9:	49 83 e5 f0          	and    r13,0xfffffffffffffff0
    aefd:	4c 89 e8             	mov    rax,r13
    af00:	4b 8b 34 e6          	mov    rsi,QWORD PTR [r14+r12*8]
    af04:	48 89 c7             	mov    rdi,rax
    af07:	49 83 c4 01          	add    r12,0x1
    af0b:	e8 60 2d 01 00       	call   1dc70 <realloc@@GLIBC_2.2.5+0x3d40>
    af10:	49 83 fc 08          	cmp    r12,0x8
    af14:	75 ea                	jne    af00 <_dl_rtld_di_serinfo@@GLIBC_PRIVATE+0x1a80>
    af16:	80 3b 00             	cmp    BYTE PTR [rbx],0x0
    af19:	48 89 de             	mov    rsi,rbx
    af1c:	75 18                	jne    af36 <_dl_rtld_di_serinfo@@GLIBC_PRIVATE+0x1ab6>
    af1e:	48 8b 05 5b ad 21 00 	mov    rax,QWORD PTR [rip+0x21ad5b]        # 225c80 <_dl_argv@@GLIBC_PRIVATE>
    af25:	48 8d 35 f1 44 01 00 	lea    rsi,[rip+0x144f1]        # 1f41d <realloc@@GLIBC_2.2.5+0x54ed>
    af2c:	48 8b 00             	mov    rax,QWORD PTR [rax]
    af2f:	48 85 c0             	test   rax,rax
    af32:	48 0f 45 f0          	cmovne rsi,rax
    af36:	48 8d 15 a2 4b 01 00 	lea    rdx,[rip+0x14ba2]        # 1fadf <realloc@@GLIBC_2.2.5+0x5baf>
    af3d:	4c 89 e9             	mov    rcx,r13
    af40:	31 ff                	xor    edi,edi
    af42:	e8 49 53 00 00       	call   10290 <_dl_rtld_di_serinfo@@GLIBC_PRIVATE+0x6e10>
    af47:	49 c7 07 00 00 00 00 	mov    QWORD PTR [r15],0x0
    af4e:	31 c0                	xor    eax,eax
    af50:	e9 6e fa ff ff       	jmp    a9c3 <_dl_rtld_di_serinfo@@GLIBC_PRIVATE+0x1543>
    af55:	48 8b 85 78 ff ff ff 	mov    rax,QWORD PTR [rbp-0x88]
    af5c:	e9 58 fa ff ff       	jmp    a9b9 <_dl_rtld_di_serinfo@@GLIBC_PRIVATE+0x1539>
    af61:	48 8b 85 78 ff ff ff 	mov    rax,QWORD PTR [rbp-0x88]
    af68:	48 8b 4a 08          	mov    rcx,QWORD PTR [rdx+0x8]
    af6c:	4d 8b 86 40 03 00 00 	mov    r8,QWORD PTR [r14+0x340]
    af73:	48 8b 90 40 03 00 00 	mov    rdx,QWORD PTR [rax+0x340]
    af7a:	49 8b 07             	mov    rax,QWORD PTR [r15]
    af7d:	4c 29 c0             	sub    rax,r8
    af80:	48 83 ec 08          	sub    rsp,0x8
    af84:	48 8d 35 4d 66 01 00 	lea    rsi,[rip+0x1664d]        # 215d8 <realloc@@GLIBC_2.2.5+0x76a8>
    af8b:	41 b9 10 00 00 00    	mov    r9d,0x10
    af91:	51                   	push   rcx
    af92:	6a 10                	push   0x10
    af94:	b9 10 00 00 00       	mov    ecx,0x10
    af99:	52                   	push   rdx
    af9a:	48 8d 15 9f 4b 01 00 	lea    rdx,[rip+0x14b9f]        # 1fb40 <realloc@@GLIBC_2.2.5+0x5c10>
    afa1:	6a 10                	push   0x10
    afa3:	50                   	push   rax
    afa4:	bf 01 00 00 00       	mov    edi,0x1
    afa9:	31 c0                	xor    eax,eax
    afab:	e8 60 67 00 00       	call   11710 <_dl_debug_state@@GLIBC_PRIVATE+0x880>
    afb0:	48 8b 45 80          	mov    rax,QWORD PTR [rbp-0x80]
    afb4:	48 83 c4 30          	add    rsp,0x30
    afb8:	45 31 c9             	xor    r9d,r9d
    afbb:	31 c9                	xor    ecx,ecx
    afbd:	48 85 c0             	test   rax,rax
    afc0:	74 0f                	je     afd1 <_dl_rtld_di_serinfo@@GLIBC_PRIVATE+0x1b51>
    afc2:	4c 8b 48 08          	mov    r9,QWORD PTR [rax+0x8]
    afc6:	48 8b 45 88          	mov    rax,QWORD PTR [rbp-0x78]
    afca:	48 8b 88 40 03 00 00 	mov    rcx,QWORD PTR [rax+0x340]
    afd1:	48 8d 35 46 4b 01 00 	lea    rsi,[rip+0x14b46]        # 1fb1e <realloc@@GLIBC_2.2.5+0x5bee>
    afd8:	41 b8 10 00 00 00    	mov    r8d,0x10
    afde:	ba 10 00 00 00       	mov    edx,0x10
    afe3:	bf 01 00 00 00       	mov    edi,0x1
    afe8:	31 c0                	xor    eax,eax
    afea:	e8 21 67 00 00       	call   11710 <_dl_debug_state@@GLIBC_PRIVATE+0x880>
    afef:	8b 95 44 ff ff ff    	mov    edx,DWORD PTR [rbp-0xbc]
    aff5:	48 8b 8d 58 ff ff ff 	mov    rcx,QWORD PTR [rbp-0xa8]
    affc:	48 8d 35 2e 4b 01 00 	lea    rsi,[rip+0x14b2e]        # 1fb31 <realloc@@GLIBC_2.2.5+0x5c01>
    b003:	bf 01 00 00 00       	mov    edi,0x1
    b008:	31 c0                	xor    eax,eax
    b00a:	e8 01 67 00 00       	call   11710 <_dl_debug_state@@GLIBC_PRIVATE+0x880>
    b00f:	48 8b 95 70 ff ff ff 	mov    rdx,QWORD PTR [rbp-0x90]
    b016:	e9 73 fc ff ff       	jmp    ac8e <_dl_rtld_di_serinfo@@GLIBC_PRIVATE+0x180e>
    b01b:	f6 05 7f ac 21 00 01 	test   BYTE PTR [rip+0x21ac7f],0x1        # 225ca1 <_rtld_global_ro@@GLIBC_PRIVATE+0x1>
    b022:	0f 85 fa fa ff ff    	jne    ab22 <_dl_rtld_di_serinfo@@GLIBC_PRIVATE+0x16a2>
    b028:	4d 85 f6             	test   r14,r14
    b02b:	48 8d 1d 74 46 01 00 	lea    rbx,[rip+0x14674]        # 1f6a6 <realloc@@GLIBC_2.2.5+0x5776>
    b032:	74 04                	je     b038 <_dl_rtld_di_serinfo@@GLIBC_PRIVATE+0x1bb8>
    b034:	49 8b 5e 08          	mov    rbx,QWORD PTR [r14+0x8]
    b038:	4d 85 e4             	test   r12,r12
    b03b:	0f 84 d4 03 00 00    	je     b415 <_dl_rtld_di_serinfo@@GLIBC_PRIVATE+0x1f95>
    b041:	4d 8b 24 24          	mov    r12,QWORD PTR [r12]
    b045:	48 8d 05 5a 46 01 00 	lea    rax,[rip+0x1465a]        # 1f6a6 <realloc@@GLIBC_2.2.5+0x5776>
    b04c:	4c 8d 2d 28 4a 01 00 	lea    r13,[rip+0x14a28]        # 1fa7b <realloc@@GLIBC_2.2.5+0x5b4b>
    b053:	4d 85 e4             	test   r12,r12
    b056:	4c 0f 44 e0          	cmove  r12,rax
    b05a:	48 8d 05 8f 4a 01 00 	lea    rax,[rip+0x14a8f]        # 1faf0 <realloc@@GLIBC_2.2.5+0x5bc0>
    b061:	4c 89 6d a0          	mov    QWORD PTR [rbp-0x60],r13
    b065:	4c 89 65 a8          	mov    QWORD PTR [rbp-0x58],r12
    b069:	48 89 45 90          	mov    QWORD PTR [rbp-0x70],rax
    b06d:	48 8b 85 58 ff ff ff 	mov    rax,QWORD PTR [rbp-0xa8]
    b074:	48 89 c7             	mov    rdi,rax
    b077:	48 89 45 98          	mov    QWORD PTR [rbp-0x68],rax
    b07b:	e8 40 1d 01 00       	call   1cdc0 <realloc@@GLIBC_2.2.5+0x2e90>
    b080:	4c 89 ef             	mov    rdi,r13
    b083:	49 89 c6             	mov    r14,rax
    b086:	e8 35 1d 01 00       	call   1cdc0 <realloc@@GLIBC_2.2.5+0x2e90>
    b08b:	4d 8d 6c 06 13       	lea    r13,[r14+rax*1+0x13]
    b090:	4c 89 e7             	mov    rdi,r12
    b093:	45 31 e4             	xor    r12d,r12d
    b096:	e8 25 1d 01 00       	call   1cdc0 <realloc@@GLIBC_2.2.5+0x2e90>
    b09b:	49 8d 44 05 1e       	lea    rax,[r13+rax*1+0x1e]
    b0a0:	48 8d 7d 90          	lea    rdi,[rbp-0x70]
    b0a4:	48 83 e0 f0          	and    rax,0xfffffffffffffff0
    b0a8:	49 89 fe             	mov    r14,rdi
    b0ab:	48 29 c4             	sub    rsp,rax
    b0ae:	4c 8d 6c 24 0f       	lea    r13,[rsp+0xf]
    b0b3:	49 83 e5 f0          	and    r13,0xfffffffffffffff0
    b0b7:	4c 89 e8             	mov    rax,r13
    b0ba:	4b 8b 34 e6          	mov    rsi,QWORD PTR [r14+r12*8]
    b0be:	48 89 c7             	mov    rdi,rax
    b0c1:	49 83 c4 01          	add    r12,0x1
    b0c5:	e8 a6 2b 01 00       	call   1dc70 <realloc@@GLIBC_2.2.5+0x3d40>
    b0ca:	49 83 fc 04          	cmp    r12,0x4
    b0ce:	75 ea                	jne    b0ba <_dl_rtld_di_serinfo@@GLIBC_PRIVATE+0x1c3a>
    b0d0:	80 3b 00             	cmp    BYTE PTR [rbx],0x0
    b0d3:	48 89 de             	mov    rsi,rbx
    b0d6:	75 18                	jne    b0f0 <_dl_rtld_di_serinfo@@GLIBC_PRIVATE+0x1c70>
    b0d8:	48 8b 05 a1 ab 21 00 	mov    rax,QWORD PTR [rip+0x21aba1]        # 225c80 <_dl_argv@@GLIBC_PRIVATE>
    b0df:	48 8d 35 37 43 01 00 	lea    rsi,[rip+0x14337]        # 1f41d <realloc@@GLIBC_2.2.5+0x54ed>
    b0e6:	48 8b 00             	mov    rax,QWORD PTR [rax]
    b0e9:	48 85 c0             	test   rax,rax
    b0ec:	48 0f 45 f0          	cmovne rsi,rax
    b0f0:	48 8d 15 0c 4a 01 00 	lea    rdx,[rip+0x14a0c]        # 1fb03 <realloc@@GLIBC_2.2.5+0x5bd3>
    b0f7:	4c 89 e9             	mov    rcx,r13
    b0fa:	31 ff                	xor    edi,edi
    b0fc:	e8 8f 51 00 00       	call   10290 <_dl_rtld_di_serinfo@@GLIBC_PRIVATE+0x6e10>
    b101:	e9 1c fa ff ff       	jmp    ab22 <_dl_rtld_di_serinfo@@GLIBC_PRIVATE+0x16a2>
    b106:	48 85 d2             	test   rdx,rdx
    b109:	0f 84 99 04 00 00    	je     b5a8 <_dl_rtld_di_serinfo@@GLIBC_PRIVATE+0x2128>
    b10f:	48 8b 85 78 ff ff ff 	mov    rax,QWORD PTR [rbp-0x88]
    b116:	48 8b 4a 08          	mov    rcx,QWORD PTR [rdx+0x8]
    b11a:	4d 8b 86 40 03 00 00 	mov    r8,QWORD PTR [r14+0x340]
    b121:	48 8b 90 40 03 00 00 	mov    rdx,QWORD PTR [rax+0x340]
    b128:	49 8b 07             	mov    rax,QWORD PTR [r15]
    b12b:	4c 29 c0             	sub    rax,r8
    b12e:	48 83 ec 08          	sub    rsp,0x8
    b132:	48 8d 35 9f 64 01 00 	lea    rsi,[rip+0x1649f]        # 215d8 <realloc@@GLIBC_2.2.5+0x76a8>
    b139:	41 b9 10 00 00 00    	mov    r9d,0x10
    b13f:	51                   	push   rcx
    b140:	6a 10                	push   0x10
    b142:	b9 10 00 00 00       	mov    ecx,0x10
    b147:	52                   	push   rdx
    b148:	48 8d 15 ea 49 01 00 	lea    rdx,[rip+0x149ea]        # 1fb39 <realloc@@GLIBC_2.2.5+0x5c09>
    b14f:	6a 10                	push   0x10
    b151:	50                   	push   rax
    b152:	bf 01 00 00 00       	mov    edi,0x1
    b157:	31 c0                	xor    eax,eax
    b159:	e8 b2 65 00 00       	call   11710 <_dl_debug_state@@GLIBC_PRIVATE+0x880>
    b15e:	48 83 c4 30          	add    rsp,0x30
    b162:	e9 88 fe ff ff       	jmp    afef <_dl_rtld_di_serinfo@@GLIBC_PRIVATE+0x1b6f>
    b167:	48 c7 85 28 ff ff ff 	mov    QWORD PTR [rbp-0xd8],0x0
    b16e:	00 00 00 00 
    b172:	e9 5d f7 ff ff       	jmp    a8d4 <_dl_rtld_di_serinfo@@GLIBC_PRIVATE+0x1454>
    b177:	85 c0                	test   eax,eax
    b179:	0f 84 e7 fa ff ff    	je     ac66 <_dl_rtld_di_serinfo@@GLIBC_PRIVATE+0x17e6>
    b17f:	4d 8b 86 40 03 00 00 	mov    r8,QWORD PTR [r14+0x340]
    b186:	49 8b 07             	mov    rax,QWORD PTR [r15]
    b189:	31 c9                	xor    ecx,ecx
    b18b:	31 d2                	xor    edx,edx
    b18d:	4c 29 c0             	sub    rax,r8
    b190:	e9 eb fd ff ff       	jmp    af80 <_dl_rtld_di_serinfo@@GLIBC_PRIVATE+0x1b00>
    b195:	48 8b 85 48 ff ff ff 	mov    rax,QWORD PTR [rbp-0xb8]
    b19c:	48 85 c0             	test   rax,rax
    b19f:	0f 84 61 02 00 00    	je     b406 <_dl_rtld_di_serinfo@@GLIBC_PRIVATE+0x1f86>
    b1a5:	8b 38                	mov    edi,DWORD PTR [rax]
    b1a7:	48 8d 50 08          	lea    rdx,[rax+0x8]
    b1ab:	85 ff                	test   edi,edi
    b1ad:	89 bd 50 ff ff ff    	mov    DWORD PTR [rbp-0xb0],edi
    b1b3:	74 2e                	je     b1e3 <_dl_rtld_di_serinfo@@GLIBC_PRIVATE+0x1d63>
    b1b5:	4c 39 48 08          	cmp    QWORD PTR [rax+0x8],r9
    b1b9:	0f 84 49 fb ff ff    	je     ad08 <_dl_rtld_di_serinfo@@GLIBC_PRIVATE+0x1888>
    b1bf:	89 f9                	mov    ecx,edi
    b1c1:	48 83 c0 10          	add    rax,0x10
    b1c5:	83 e9 01             	sub    ecx,0x1
    b1c8:	48 8d 54 ca 08       	lea    rdx,[rdx+rcx*8+0x8]
    b1cd:	eb 0f                	jmp    b1de <_dl_rtld_di_serinfo@@GLIBC_PRIVATE+0x1d5e>
    b1cf:	90                   	nop
    b1d0:	48 83 c0 08          	add    rax,0x8
    b1d4:	4c 39 48 f8          	cmp    QWORD PTR [rax-0x8],r9
    b1d8:	0f 84 2a fb ff ff    	je     ad08 <_dl_rtld_di_serinfo@@GLIBC_PRIVATE+0x1888>
    b1de:	48 39 d0             	cmp    rax,rdx
    b1e1:	75 ed                	jne    b1d0 <_dl_rtld_di_serinfo@@GLIBC_PRIVATE+0x1d50>
    b1e3:	49 8b 81 68 04 00 00 	mov    rax,QWORD PTR [r9+0x468]
    b1ea:	48 89 85 28 ff ff ff 	mov    QWORD PTR [rbp-0xd8],rax
    b1f1:	8b 45 10             	mov    eax,DWORD PTR [rbp+0x10]
    b1f4:	83 e0 04             	and    eax,0x4
    b1f7:	89 85 38 ff ff ff    	mov    DWORD PTR [rbp-0xc8],eax
    b1fd:	0f 85 21 02 00 00    	jne    b424 <_dl_rtld_di_serinfo@@GLIBC_PRIVATE+0x1fa4>
    b203:	4c 89 8d 48 ff ff ff 	mov    QWORD PTR [rbp-0xb8],r9
    b20a:	48 8d 3d 37 b7 21 00 	lea    rdi,[rip+0x21b737]        # 226948 <_rtld_global@@GLIBC_PRIVATE+0x908>
    b211:	ff 15 31 bd 21 00    	call   QWORD PTR [rip+0x21bd31]        # 226f48 <_rtld_global@@GLIBC_PRIVATE+0xf08>
    b217:	4c 8b 8d 48 ff ff ff 	mov    r9,QWORD PTR [rbp-0xb8]
    b21e:	49 8b 46 30          	mov    rax,QWORD PTR [r14+0x30]
    b222:	48 8d 15 17 ae 21 00 	lea    rdx,[rip+0x21ae17]        # 226040 <_rtld_global@@GLIBC_PRIVATE>
    b229:	48 8d 04 c0          	lea    rax,[rax+rax*8]
    b22d:	48 c1 e0 04          	shl    rax,0x4
    b231:	48 8b 04 02          	mov    rax,QWORD PTR [rdx+rax*1]
    b235:	48 85 c0             	test   rax,rax
    b238:	75 0f                	jne    b249 <_dl_rtld_di_serinfo@@GLIBC_PRIVATE+0x1dc9>
    b23a:	eb 12                	jmp    b24e <_dl_rtld_di_serinfo@@GLIBC_PRIVATE+0x1dce>
    b23c:	0f 1f 40 00          	nop    DWORD PTR [rax+0x0]
    b240:	48 8b 40 18          	mov    rax,QWORD PTR [rax+0x18]
    b244:	48 85 c0             	test   rax,rax
    b247:	74 05                	je     b24e <_dl_rtld_di_serinfo@@GLIBC_PRIVATE+0x1dce>
    b249:	4c 39 c8             	cmp    rax,r9
    b24c:	75 f2                	jne    b240 <_dl_rtld_di_serinfo@@GLIBC_PRIVATE+0x1dc0>
    b24e:	48 85 c0             	test   rax,rax
    b251:	74 14                	je     b267 <_dl_rtld_di_serinfo@@GLIBC_PRIVATE+0x1de7>
    b253:	48 8b 85 28 ff ff ff 	mov    rax,QWORD PTR [rbp-0xd8]
    b25a:	49 3b 81 68 04 00 00 	cmp    rax,QWORD PTR [r9+0x468]
    b261:	0f 84 19 01 00 00    	je     b380 <_dl_rtld_di_serinfo@@GLIBC_PRIVATE+0x1f00>
    b267:	48 8d 3d da b6 21 00 	lea    rdi,[rip+0x21b6da]        # 226948 <_rtld_global@@GLIBC_PRIVATE+0x908>
    b26e:	ff 15 dc bc 21 00    	call   QWORD PTR [rip+0x21bcdc]        # 226f50 <_rtld_global@@GLIBC_PRIVATE+0xf10>
    b274:	8b 95 38 ff ff ff    	mov    edx,DWORD PTR [rbp-0xc8]
    b27a:	85 d2                	test   edx,edx
    b27c:	0f 85 e0 02 00 00    	jne    b562 <_dl_rtld_di_serinfo@@GLIBC_PRIVATE+0x20e2>
    b282:	48 8b 8d 30 ff ff ff 	mov    rcx,QWORD PTR [rbp-0xd0]
    b289:	8b 45 10             	mov    eax,DWORD PTR [rbp+0x10]
    b28c:	44 8b 8d 44 ff ff ff 	mov    r9d,DWORD PTR [rbp-0xbc]
    b293:	4d 89 e0             	mov    r8,r12
    b296:	48 8b bd 58 ff ff ff 	mov    rdi,QWORD PTR [rbp-0xa8]
    b29d:	41 55                	push   r13
    b29f:	4c 89 fa             	mov    rdx,r15
    b2a2:	4c 89 f6             	mov    rsi,r14
    b2a5:	50                   	push   rax
    b2a6:	e8 55 f5 ff ff       	call   a800 <_dl_rtld_di_serinfo@@GLIBC_PRIVATE+0x1380>
    b2ab:	41 58                	pop    r8
    b2ad:	41 59                	pop    r9
    b2af:	e9 0f f7 ff ff       	jmp    a9c3 <_dl_rtld_di_serinfo@@GLIBC_PRIVATE+0x1543>
    b2b4:	48 8d 3d ea 43 01 00 	lea    rdi,[rip+0x143ea]        # 1f6a5 <realloc@@GLIBC_2.2.5+0x5775>
    b2bb:	31 c0                	xor    eax,eax
    b2bd:	e8 9e 63 00 00       	call   11660 <_dl_debug_state@@GLIBC_PRIVATE+0x7d0>
    b2c2:	8b 15 d8 a9 21 00    	mov    edx,DWORD PTR [rip+0x21a9d8]        # 225ca0 <_rtld_global_ro@@GLIBC_PRIVATE>
    b2c8:	e9 18 f9 ff ff       	jmp    abe5 <_dl_rtld_di_serinfo@@GLIBC_PRIVATE+0x1765>
    b2cd:	c7 85 44 ff ff ff 04 	mov    DWORD PTR [rbp-0xbc],0x4
    b2d4:	00 00 00 
    b2d7:	e9 82 f9 ff ff       	jmp    ac5e <_dl_rtld_di_serinfo@@GLIBC_PRIVATE+0x17de>
    b2dc:	4c 89 f0             	mov    rax,r14
    b2df:	e9 b5 f6 ff ff       	jmp    a999 <_dl_rtld_di_serinfo@@GLIBC_PRIVATE+0x1519>
    b2e4:	4d 89 f1             	mov    r9,r14
    b2e7:	bb 01 00 00 00       	mov    ebx,0x1
    b2ec:	e9 91 f6 ff ff       	jmp    a982 <_dl_rtld_di_serinfo@@GLIBC_PRIVATE+0x1502>
    b2f1:	48 8b 7d 88          	mov    rdi,QWORD PTR [rbp-0x78]
    b2f5:	48 3b bd 78 ff ff ff 	cmp    rdi,QWORD PTR [rbp-0x88]
    b2fc:	0f 85 13 fb ff ff    	jne    ae15 <_dl_rtld_di_serinfo@@GLIBC_PRIVATE+0x1995>
    b302:	41 80 be 15 03 00 00 	cmp    BYTE PTR [r14+0x315],0x0
    b309:	00 
    b30a:	0f 89 38 05 00 00    	jns    b848 <_dl_rtld_di_serinfo@@GLIBC_PRIVATE+0x23c8>
    b310:	48 85 f6             	test   rsi,rsi
    b313:	0f 84 2f 05 00 00    	je     b848 <_dl_rtld_di_serinfo@@GLIBC_PRIVATE+0x23c8>
    b319:	0f b6 4e 04          	movzx  ecx,BYTE PTR [rsi+0x4]
    b31d:	31 c0                	xor    eax,eax
    b31f:	c0 e9 04             	shr    cl,0x4
    b322:	80 f9 0a             	cmp    cl,0xa
    b325:	0f 85 ea fa ff ff    	jne    ae15 <_dl_rtld_di_serinfo@@GLIBC_PRIVATE+0x1995>
    b32b:	4d 8b 9e 88 03 00 00 	mov    r11,QWORD PTR [r14+0x388]
    b332:	48 c7 45 90 00 00 00 	mov    QWORD PTR [rbp-0x70],0x0
    b339:	00 
    b33a:	48 c7 45 98 00 00 00 	mov    QWORD PTR [rbp-0x68],0x0
    b341:	00 
    b342:	41 8b 4b 08          	mov    ecx,DWORD PTR [r11+0x8]
    b346:	48 85 c9             	test   rcx,rcx
    b349:	0f 84 e6 04 00 00    	je     b835 <_dl_rtld_di_serinfo@@GLIBC_PRIVATE+0x23b5>
    b34f:	49 8b 03             	mov    rax,QWORD PTR [r11]
    b352:	48 3b 38             	cmp    rdi,QWORD PTR [rax]
    b355:	0f 84 f7 04 00 00    	je     b852 <_dl_rtld_di_serinfo@@GLIBC_PRIVATE+0x23d2>
    b35b:	45 31 ed             	xor    r13d,r13d
    b35e:	49 8d 55 01          	lea    rdx,[r13+0x1]
    b362:	48 39 d1             	cmp    rcx,rdx
    b365:	0f 84 28 04 00 00    	je     b793 <_dl_rtld_di_serinfo@@GLIBC_PRIVATE+0x2313>
    b36b:	48 3b 3c d0          	cmp    rdi,QWORD PTR [rax+rdx*8]
    b36f:	0f 84 1e 04 00 00    	je     b793 <_dl_rtld_di_serinfo@@GLIBC_PRIVATE+0x2313>
    b375:	49 89 d5             	mov    r13,rdx
    b378:	eb e4                	jmp    b35e <_dl_rtld_di_serinfo@@GLIBC_PRIVATE+0x1ede>
    b37a:	66 0f 1f 44 00 00    	nop    WORD PTR [rax+rax*1+0x0]
    b380:	41 8b 91 d4 03 00 00 	mov    edx,DWORD PTR [r9+0x3d4]
    b387:	f6 c2 08             	test   dl,0x8
    b38a:	75 1f                	jne    b3ab <_dl_rtld_di_serinfo@@GLIBC_PRIVATE+0x1f2b>
    b38c:	41 0f b6 86 14 03 00 	movzx  eax,BYTE PTR [r14+0x314]
    b393:	00 
    b394:	83 e0 03             	and    eax,0x3
    b397:	3c 02                	cmp    al,0x2
    b399:	0f 84 2a 02 00 00    	je     b5c9 <_dl_rtld_di_serinfo@@GLIBC_PRIVATE+0x2149>
    b39f:	89 d0                	mov    eax,edx
    b3a1:	83 c8 08             	or     eax,0x8
    b3a4:	41 89 81 d4 03 00 00 	mov    DWORD PTR [r9+0x3d4],eax
    b3ab:	48 8d 3d 96 b5 21 00 	lea    rdi,[rip+0x21b596]        # 226948 <_rtld_global@@GLIBC_PRIVATE+0x908>
    b3b2:	ff 15 98 bb 21 00    	call   QWORD PTR [rip+0x21bb98]        # 226f50 <_rtld_global@@GLIBC_PRIVATE+0xf10>
    b3b8:	8b 85 38 ff ff ff    	mov    eax,DWORD PTR [rbp-0xc8]
    b3be:	85 c0                	test   eax,eax
    b3c0:	0f 84 42 f9 ff ff    	je     ad08 <_dl_rtld_di_serinfo@@GLIBC_PRIVATE+0x1888>
    b3c6:	31 c0                	xor    eax,eax
    b3c8:	64 c7 04 25 1c 00 00 	mov    DWORD PTR fs:0x1c,0x1
    b3cf:	00 01 00 00 00 
    b3d4:	83 f8 ff             	cmp    eax,0xffffffff
    b3d7:	0f 85 2b f9 ff ff    	jne    ad08 <_dl_rtld_di_serinfo@@GLIBC_PRIVATE+0x1888>
    b3dd:	44 8b 95 38 ff ff ff 	mov    r10d,DWORD PTR [rbp-0xc8]
    b3e4:	45 85 d2             	test   r10d,r10d
    b3e7:	0f 84 95 fe ff ff    	je     b282 <_dl_rtld_di_serinfo@@GLIBC_PRIVATE+0x1e02>
    b3ed:	49 8b 8e 80 03 00 00 	mov    rcx,QWORD PTR [r14+0x380]
    b3f4:	e9 90 fe ff ff       	jmp    b289 <_dl_rtld_di_serinfo@@GLIBC_PRIVATE+0x1e09>
    b3f9:	bb 05 15 00 00       	mov    ebx,0x1505
    b3fe:	48 89 c7             	mov    rdi,rax
    b401:	e9 95 f9 ff ff       	jmp    ad9b <_dl_rtld_di_serinfo@@GLIBC_PRIVATE+0x191b>
    b406:	c7 85 50 ff ff ff 00 	mov    DWORD PTR [rbp-0xb0],0x0
    b40d:	00 00 00 
    b410:	e9 ce fd ff ff       	jmp    b1e3 <_dl_rtld_di_serinfo@@GLIBC_PRIVATE+0x1d63>
    b415:	4c 8d 2d 8a 42 01 00 	lea    r13,[rip+0x1428a]        # 1f6a6 <realloc@@GLIBC_2.2.5+0x5776>
    b41c:	4d 89 ec             	mov    r12,r13
    b41f:	e9 36 fc ff ff       	jmp    b05a <_dl_rtld_di_serinfo@@GLIBC_PRIVATE+0x1bda>
    b424:	31 c0                	xor    eax,eax
    b426:	64 87 04 25 1c 00 00 	xchg   DWORD PTR fs:0x1c,eax
    b42d:	00 
    b42e:	83 f8 02             	cmp    eax,0x2
    b431:	75 21                	jne    b454 <_dl_rtld_di_serinfo@@GLIBC_PRIVATE+0x1fd4>
    b433:	64 48 8b 3c 25 10 00 	mov    rdi,QWORD PTR fs:0x10
    b43a:	00 00 
    b43c:	45 31 d2             	xor    r10d,r10d
    b43f:	ba 01 00 00 00       	mov    edx,0x1
    b444:	be 81 00 00 00       	mov    esi,0x81
    b449:	48 83 c7 1c          	add    rdi,0x1c
    b44d:	b8 ca 00 00 00       	mov    eax,0xca
    b452:	0f 05                	syscall
    b454:	4c 89 8d 20 ff ff ff 	mov    QWORD PTR [rbp-0xe0],r9
    b45b:	4c 89 85 18 ff ff ff 	mov    QWORD PTR [rbp-0xe8],r8
    b462:	48 8d 3d df b4 21 00 	lea    rdi,[rip+0x21b4df]        # 226948 <_rtld_global@@GLIBC_PRIVATE+0x908>
    b469:	ff 15 d9 ba 21 00    	call   QWORD PTR [rip+0x21bad9]        # 226f48 <_rtld_global@@GLIBC_PRIVATE+0xf08>
    b46f:	4c 8b 8d 20 ff ff ff 	mov    r9,QWORD PTR [rbp-0xe0]
    b476:	49 8b 8e b8 03 00 00 	mov    rcx,QWORD PTR [r14+0x3b8]
    b47d:	4c 89 ca             	mov    rdx,r9
    b480:	48 85 c9             	test   rcx,rcx
    b483:	49 89 d1             	mov    r9,rdx
    b486:	74 34                	je     b4bc <_dl_rtld_di_serinfo@@GLIBC_PRIVATE+0x203c>
    b488:	4c 8b 85 18 ff ff ff 	mov    r8,QWORD PTR [rbp-0xe8]
    b48f:	4c 39 c1             	cmp    rcx,r8
    b492:	74 28                	je     b4bc <_dl_rtld_di_serinfo@@GLIBC_PRIVATE+0x203c>
    b494:	48 8b 01             	mov    rax,QWORD PTR [rcx]
    b497:	48 85 c0             	test   rax,rax
    b49a:	74 20                	je     b4bc <_dl_rtld_di_serinfo@@GLIBC_PRIVATE+0x203c>
    b49c:	48 39 c2             	cmp    rdx,rax
    b49f:	74 71                	je     b512 <_dl_rtld_di_serinfo@@GLIBC_PRIVATE+0x2092>
    b4a1:	31 c0                	xor    eax,eax
    b4a3:	eb 08                	jmp    b4ad <_dl_rtld_di_serinfo@@GLIBC_PRIVATE+0x202d>
    b4a5:	0f 1f 00             	nop    DWORD PTR [rax]
    b4a8:	48 39 f2             	cmp    rdx,rsi
    b4ab:	74 65                	je     b512 <_dl_rtld_di_serinfo@@GLIBC_PRIVATE+0x2092>
    b4ad:	8d 70 01             	lea    esi,[rax+0x1]
    b4b0:	48 89 f0             	mov    rax,rsi
    b4b3:	48 8b 34 f1          	mov    rsi,QWORD PTR [rcx+rsi*8]
    b4b7:	48 85 f6             	test   rsi,rsi
    b4ba:	75 ec                	jne    b4a8 <_dl_rtld_di_serinfo@@GLIBC_PRIVATE+0x2028>
    b4bc:	49 8b 86 c0 03 00 00 	mov    rax,QWORD PTR [r14+0x3c0]
    b4c3:	48 85 c0             	test   rax,rax
    b4c6:	0f 84 52 fd ff ff    	je     b21e <_dl_rtld_di_serinfo@@GLIBC_PRIVATE+0x1d9e>
    b4cc:	48 39 85 48 ff ff ff 	cmp    QWORD PTR [rbp-0xb8],rax
    b4d3:	0f 84 93 00 00 00    	je     b56c <_dl_rtld_di_serinfo@@GLIBC_PRIVATE+0x20ec>
    b4d9:	8b 38                	mov    edi,DWORD PTR [rax]
    b4db:	48 8d 48 08          	lea    rcx,[rax+0x8]
    b4df:	85 ff                	test   edi,edi
    b4e1:	89 bd 50 ff ff ff    	mov    DWORD PTR [rbp-0xb0],edi
    b4e7:	0f 84 31 fd ff ff    	je     b21e <_dl_rtld_di_serinfo@@GLIBC_PRIVATE+0x1d9e>
    b4ed:	48 39 50 08          	cmp    QWORD PTR [rax+0x8],rdx
    b4f1:	74 1f                	je     b512 <_dl_rtld_di_serinfo@@GLIBC_PRIVATE+0x2092>
    b4f3:	8d 77 ff             	lea    esi,[rdi-0x1]
    b4f6:	48 83 c0 10          	add    rax,0x10
    b4fa:	48 8d 4c f1 08       	lea    rcx,[rcx+rsi*8+0x8]
    b4ff:	48 39 c8             	cmp    rax,rcx
    b502:	0f 84 16 fd ff ff    	je     b21e <_dl_rtld_di_serinfo@@GLIBC_PRIVATE+0x1d9e>
    b508:	48 83 c0 08          	add    rax,0x8
    b50c:	48 39 50 f8          	cmp    QWORD PTR [rax-0x8],rdx
    b510:	75 ed                	jne    b4ff <_dl_rtld_di_serinfo@@GLIBC_PRIVATE+0x207f>
    b512:	48 8b 85 28 ff ff ff 	mov    rax,QWORD PTR [rbp-0xd8]
    b519:	48 3b 82 68 04 00 00 	cmp    rax,QWORD PTR [rdx+0x468]
    b520:	75 33                	jne    b555 <_dl_rtld_di_serinfo@@GLIBC_PRIVATE+0x20d5>
    b522:	48 8d 3d 1f b4 21 00 	lea    rdi,[rip+0x21b41f]        # 226948 <_rtld_global@@GLIBC_PRIVATE+0x908>
    b529:	ff 15 21 ba 21 00    	call   QWORD PTR [rip+0x21ba21]        # 226f50 <_rtld_global@@GLIBC_PRIVATE+0xf10>
    b52f:	31 c0                	xor    eax,eax
    b531:	e9 92 fe ff ff       	jmp    b3c8 <_dl_rtld_di_serinfo@@GLIBC_PRIVATE+0x1f48>
    b536:	48 8d 0d e3 6e 01 00 	lea    rcx,[rip+0x16ee3]        # 22420 <realloc@@GLIBC_2.2.5+0x84f0>
    b53d:	48 8d 35 15 45 01 00 	lea    rsi,[rip+0x14515]        # 1fa59 <realloc@@GLIBC_2.2.5+0x5b29>
    b544:	48 8d 3d 4c 45 01 00 	lea    rdi,[rip+0x1454c]        # 1fa97 <realloc@@GLIBC_2.2.5+0x5b67>
    b54b:	ba 48 03 00 00       	mov    edx,0x348
    b550:	e8 8b e9 00 00       	call   19ee0 <free@@GLIBC_2.2.5+0x160>
    b555:	48 8d 3d ec b3 21 00 	lea    rdi,[rip+0x21b3ec]        # 226948 <_rtld_global@@GLIBC_PRIVATE+0x908>
    b55c:	ff 15 ee b9 21 00    	call   QWORD PTR [rip+0x21b9ee]        # 226f50 <_rtld_global@@GLIBC_PRIVATE+0xf10>
    b562:	b8 ff ff ff ff       	mov    eax,0xffffffff
    b567:	e9 5c fe ff ff       	jmp    b3c8 <_dl_rtld_di_serinfo@@GLIBC_PRIVATE+0x1f48>
    b56c:	4c 8b 85 48 ff ff ff 	mov    r8,QWORD PTR [rbp-0xb8]
    b573:	8b 8d 50 ff ff ff    	mov    ecx,DWORD PTR [rbp-0xb0]
    b579:	41 8b 00             	mov    eax,DWORD PTR [r8]
    b57c:	39 c8                	cmp    eax,ecx
    b57e:	0f 86 9a fc ff ff    	jbe    b21e <_dl_rtld_di_serinfo@@GLIBC_PRIVATE+0x1d9e>
    b584:	49 83 c0 08          	add    r8,0x8
    b588:	49 39 14 c8          	cmp    QWORD PTR [r8+rcx*8],rdx
    b58c:	74 84                	je     b512 <_dl_rtld_di_serinfo@@GLIBC_PRIVATE+0x2092>
    b58e:	8b 8d 50 ff ff ff    	mov    ecx,DWORD PTR [rbp-0xb0]
    b594:	83 c1 01             	add    ecx,0x1
    b597:	39 c8                	cmp    eax,ecx
    b599:	76 23                	jbe    b5be <_dl_rtld_di_serinfo@@GLIBC_PRIVATE+0x213e>
    b59b:	89 ce                	mov    esi,ecx
    b59d:	49 39 14 f0          	cmp    QWORD PTR [r8+rsi*8],rdx
    b5a1:	75 f1                	jne    b594 <_dl_rtld_di_serinfo@@GLIBC_PRIVATE+0x2114>
    b5a3:	e9 6a ff ff ff       	jmp    b512 <_dl_rtld_di_serinfo@@GLIBC_PRIVATE+0x2092>
    b5a8:	4d 8b 86 40 03 00 00 	mov    r8,QWORD PTR [r14+0x340]
    b5af:	49 8b 07             	mov    rax,QWORD PTR [r15]
    b5b2:	31 c9                	xor    ecx,ecx
    b5b4:	31 d2                	xor    edx,edx
    b5b6:	4c 29 c0             	sub    rax,r8
    b5b9:	e9 70 fb ff ff       	jmp    b12e <_dl_rtld_di_serinfo@@GLIBC_PRIVATE+0x1cae>
    b5be:	89 85 50 ff ff ff    	mov    DWORD PTR [rbp-0xb0],eax
    b5c4:	e9 55 fc ff ff       	jmp    b21e <_dl_rtld_di_serinfo@@GLIBC_PRIVATE+0x1d9e>
    b5c9:	41 f6 86 d4 03 00 00 	test   BYTE PTR [r14+0x3d4],0x8
    b5d0:	08 
    b5d1:	0f 85 c8 fd ff ff    	jne    b39f <_dl_rtld_di_serinfo@@GLIBC_PRIVATE+0x1f1f>
    b5d7:	41 8b 86 c8 03 00 00 	mov    eax,DWORD PTR [r14+0x3c8]
    b5de:	3b 85 50 ff ff ff    	cmp    eax,DWORD PTR [rbp-0xb0]
    b5e4:	0f 86 8b 00 00 00    	jbe    b675 <_dl_rtld_di_serinfo@@GLIBC_PRIVATE+0x21f5>
    b5ea:	8b 95 50 ff ff ff    	mov    edx,DWORD PTR [rbp-0xb0]
    b5f0:	49 8b 86 c0 03 00 00 	mov    rax,QWORD PTR [r14+0x3c0]
    b5f7:	48 89 d1             	mov    rcx,rdx
    b5fa:	4c 89 4c d0 08       	mov    QWORD PTR [rax+rdx*8+0x8],r9
    b5ff:	49 8b 96 c0 03 00 00 	mov    rdx,QWORD PTR [r14+0x3c0]
    b606:	8d 41 01             	lea    eax,[rcx+0x1]
    b609:	89 02                	mov    DWORD PTR [rdx],eax
    b60b:	f6 05 8e a6 21 00 40 	test   BYTE PTR [rip+0x21a68e],0x40        # 225ca0 <_rtld_global_ro@@GLIBC_PRIVATE>
    b612:	0f 84 93 fd ff ff    	je     b3ab <_dl_rtld_di_serinfo@@GLIBC_PRIVATE+0x1f2b>
    b618:	49 8b 4e 08          	mov    rcx,QWORD PTR [r14+0x8]
    b61c:	4d 8b 46 30          	mov    r8,QWORD PTR [r14+0x30]
    b620:	80 39 00             	cmp    BYTE PTR [rcx],0x0
    b623:	75 18                	jne    b63d <_dl_rtld_di_serinfo@@GLIBC_PRIVATE+0x21bd>
    b625:	48 8b 05 54 a6 21 00 	mov    rax,QWORD PTR [rip+0x21a654]        # 225c80 <_dl_argv@@GLIBC_PRIVATE>
    b62c:	48 8d 0d ea 3d 01 00 	lea    rcx,[rip+0x13dea]        # 1f41d <realloc@@GLIBC_2.2.5+0x54ed>
    b633:	48 8b 00             	mov    rax,QWORD PTR [rax]
    b636:	48 85 c0             	test   rax,rax
    b639:	48 0f 45 c8          	cmovne rcx,rax
    b63d:	49 8b 71 08          	mov    rsi,QWORD PTR [r9+0x8]
    b641:	49 8b 51 30          	mov    rdx,QWORD PTR [r9+0x30]
    b645:	80 3e 00             	cmp    BYTE PTR [rsi],0x0
    b648:	75 18                	jne    b662 <_dl_rtld_di_serinfo@@GLIBC_PRIVATE+0x21e2>
    b64a:	48 8b 05 2f a6 21 00 	mov    rax,QWORD PTR [rip+0x21a62f]        # 225c80 <_dl_argv@@GLIBC_PRIVATE>
    b651:	48 8d 35 c5 3d 01 00 	lea    rsi,[rip+0x13dc5]        # 1f41d <realloc@@GLIBC_2.2.5+0x54ed>
    b658:	48 8b 00             	mov    rax,QWORD PTR [rax]
    b65b:	48 85 c0             	test   rax,rax
    b65e:	48 0f 45 f0          	cmovne rsi,rax
    b662:	48 8d 3d f7 5e 01 00 	lea    rdi,[rip+0x15ef7]        # 21560 <realloc@@GLIBC_2.2.5+0x7630>
    b669:	31 c0                	xor    eax,eax
    b66b:	e8 40 5f 00 00       	call   115b0 <_dl_debug_state@@GLIBC_PRIVATE+0x720>
    b670:	e9 36 fd ff ff       	jmp    b3ab <_dl_rtld_di_serinfo@@GLIBC_PRIVATE+0x1f2b>
    b675:	85 c0                	test   eax,eax
    b677:	0f 84 e3 00 00 00    	je     b760 <_dl_rtld_di_serinfo@@GLIBC_PRIVATE+0x22e0>
    b67d:	01 c0                	add    eax,eax
    b67f:	48 8d 3c c5 08 00 00 	lea    rdi,[rax*8+0x8]
    b686:	00 
    b687:	89 85 48 ff ff ff    	mov    DWORD PTR [rbp-0xb8],eax
    b68d:	89 95 20 ff ff ff    	mov    DWORD PTR [rbp-0xe0],edx
    b693:	4c 89 8d 28 ff ff ff 	mov    QWORD PTR [rbp-0xd8],r9
    b69a:	e8 e1 53 ff ff       	call   a80 <malloc@plt>
    b69f:	48 85 c0             	test   rax,rax
    b6a2:	48 89 c1             	mov    rcx,rax
    b6a5:	4c 8b 8d 28 ff ff ff 	mov    r9,QWORD PTR [rbp-0xd8]
    b6ac:	8b 95 20 ff ff ff    	mov    edx,DWORD PTR [rbp-0xe0]
    b6b2:	0f 84 e7 fc ff ff    	je     b39f <_dl_rtld_di_serinfo@@GLIBC_PRIVATE+0x1f1f>
    b6b8:	44 8b 9d 50 ff ff ff 	mov    r11d,DWORD PTR [rbp-0xb0]
    b6bf:	45 31 c0             	xor    r8d,r8d
    b6c2:	45 85 db             	test   r11d,r11d
    b6c5:	74 4d                	je     b714 <_dl_rtld_di_serinfo@@GLIBC_PRIVATE+0x2294>
    b6c7:	44 8b 85 50 ff ff ff 	mov    r8d,DWORD PTR [rbp-0xb0]
    b6ce:	48 8d 78 08          	lea    rdi,[rax+0x8]
    b6d2:	48 89 85 20 ff ff ff 	mov    QWORD PTR [rbp-0xe0],rax
    b6d9:	49 8b 86 c0 03 00 00 	mov    rax,QWORD PTR [r14+0x3c0]
    b6e0:	4c 89 8d 18 ff ff ff 	mov    QWORD PTR [rbp-0xe8],r9
    b6e7:	4a 8d 14 c5 00 00 00 	lea    rdx,[r8*8+0x0]
    b6ee:	00 
    b6ef:	48 8d 70 08          	lea    rsi,[rax+0x8]
    b6f3:	4c 89 85 28 ff ff ff 	mov    QWORD PTR [rbp-0xd8],r8
    b6fa:	e8 51 26 01 00       	call   1dd50 <realloc@@GLIBC_2.2.5+0x3e20>
    b6ff:	4c 8b 8d 18 ff ff ff 	mov    r9,QWORD PTR [rbp-0xe8]
    b706:	48 8b 8d 20 ff ff ff 	mov    rcx,QWORD PTR [rbp-0xe0]
    b70d:	4c 8b 85 28 ff ff ff 	mov    r8,QWORD PTR [rbp-0xd8]
    b714:	8b 85 50 ff ff ff    	mov    eax,DWORD PTR [rbp-0xb0]
    b71a:	4e 89 4c c1 08       	mov    QWORD PTR [rcx+r8*8+0x8],r9
    b71f:	83 c0 01             	add    eax,0x1
    b722:	89 01                	mov    DWORD PTR [rcx],eax
    b724:	49 8b be c0 03 00 00 	mov    rdi,QWORD PTR [r14+0x3c0]
    b72b:	8b 85 48 ff ff ff    	mov    eax,DWORD PTR [rbp-0xb8]
    b731:	49 89 8e c0 03 00 00 	mov    QWORD PTR [r14+0x3c0],rcx
    b738:	48 85 ff             	test   rdi,rdi
    b73b:	41 89 86 c8 03 00 00 	mov    DWORD PTR [r14+0x3c8],eax
    b742:	0f 84 c3 fe ff ff    	je     b60b <_dl_rtld_di_serinfo@@GLIBC_PRIVATE+0x218b>
    b748:	4c 89 8d 50 ff ff ff 	mov    QWORD PTR [rbp-0xb0],r9
    b74f:	e8 ac 86 00 00       	call   13e00 <__tls_get_addr@@GLIBC_2.3+0x320>
    b754:	4c 8b 8d 50 ff ff ff 	mov    r9,QWORD PTR [rbp-0xb0]
    b75b:	e9 ab fe ff ff       	jmp    b60b <_dl_rtld_di_serinfo@@GLIBC_PRIVATE+0x218b>
    b760:	bf 58 00 00 00       	mov    edi,0x58
    b765:	c7 85 48 ff ff ff 0a 	mov    DWORD PTR [rbp-0xb8],0xa
    b76c:	00 00 00 
    b76f:	e9 19 ff ff ff       	jmp    b68d <_dl_rtld_di_serinfo@@GLIBC_PRIVATE+0x220d>
    b774:	48 8d 0d a5 6c 01 00 	lea    rcx,[rip+0x16ca5]        # 22420 <realloc@@GLIBC_2.2.5+0x84f0>
    b77b:	48 8d 35 d7 42 01 00 	lea    rsi,[rip+0x142d7]        # 1fa59 <realloc@@GLIBC_2.2.5+0x5b29>
    b782:	48 8d 3d 7f 5d 01 00 	lea    rdi,[rip+0x15d7f]        # 21508 <realloc@@GLIBC_2.2.5+0x75d8>
    b789:	ba 32 03 00 00       	mov    edx,0x332
    b78e:	e8 4d e7 00 00       	call   19ee0 <free@@GLIBC_2.2.5+0x160>
    b793:	49 83 c5 02          	add    r13,0x2
    b797:	4c 39 e9             	cmp    rcx,r13
    b79a:	0f 86 93 00 00 00    	jbe    b833 <_dl_rtld_di_serinfo@@GLIBC_PRIVATE+0x23b3>
    b7a0:	48 8d 7d 90          	lea    rdi,[rbp-0x70]
    b7a4:	4e 8d 14 ed 00 00 00 	lea    r10,[r13*8+0x0]
    b7ab:	00 
    b7ac:	48 89 bd 38 ff ff ff 	mov    QWORD PTR [rbp-0xc8],rdi
    b7b3:	4a 8b 04 10          	mov    rax,QWORD PTR [rax+r10*1]
    b7b7:	48 83 b8 c0 00 00 00 	cmp    QWORD PTR [rax+0xc0],0x0
    b7be:	00 
    b7bf:	74 60                	je     b821 <_dl_rtld_di_serinfo@@GLIBC_PRIVATE+0x23a1>
    b7c1:	8b 8d 44 ff ff ff    	mov    ecx,DWORD PTR [rbp-0xbc]
    b7c7:	41 56                	push   r14
    b7c9:	4c 8d 88 c8 02 00 00 	lea    r9,[rax+0x2c8]
    b7d0:	4c 8b 85 38 ff ff ff 	mov    r8,QWORD PTR [rbp-0xc8]
    b7d7:	48 8b 95 48 ff ff ff 	mov    rdx,QWORD PTR [rbp-0xb8]
    b7de:	48 89 de             	mov    rsi,rbx
    b7e1:	48 8b bd 58 ff ff ff 	mov    rdi,QWORD PTR [rbp-0xa8]
    b7e8:	4c 89 95 28 ff ff ff 	mov    QWORD PTR [rbp-0xd8],r10
    b7ef:	51                   	push   rcx
    b7f0:	49 8b 0f             	mov    rcx,QWORD PTR [r15]
    b7f3:	6a 00                	push   0x0
    b7f5:	6a 00                	push   0x0
    b7f7:	41 54                	push   r12
    b7f9:	6a 00                	push   0x0
    b7fb:	4c 89 9d 30 ff ff ff 	mov    QWORD PTR [rbp-0xd0],r11
    b802:	e8 99 e4 ff ff       	call   9ca0 <_dl_rtld_di_serinfo@@GLIBC_PRIVATE+0x820>
    b807:	48 83 c4 30          	add    rsp,0x30
    b80b:	85 c0                	test   eax,eax
    b80d:	7f 4e                	jg     b85d <_dl_rtld_di_serinfo@@GLIBC_PRIVATE+0x23dd>
    b80f:	4c 8b 9d 30 ff ff ff 	mov    r11,QWORD PTR [rbp-0xd0]
    b816:	4c 8b 95 28 ff ff ff 	mov    r10,QWORD PTR [rbp-0xd8]
    b81d:	41 8b 4b 08          	mov    ecx,DWORD PTR [r11+0x8]
    b821:	49 83 c5 01          	add    r13,0x1
    b825:	49 83 c2 08          	add    r10,0x8
    b829:	49 39 cd             	cmp    r13,rcx
    b82c:	73 0f                	jae    b83d <_dl_rtld_di_serinfo@@GLIBC_PRIVATE+0x23bd>
    b82e:	49 8b 03             	mov    rax,QWORD PTR [r11]
    b831:	eb 80                	jmp    b7b3 <_dl_rtld_di_serinfo@@GLIBC_PRIVATE+0x2333>
    b833:	31 c0                	xor    eax,eax
    b835:	48 89 f2             	mov    rdx,rsi
    b838:	e9 d8 f5 ff ff       	jmp    ae15 <_dl_rtld_di_serinfo@@GLIBC_PRIVATE+0x1995>
    b83d:	48 8b b5 70 ff ff ff 	mov    rsi,QWORD PTR [rbp-0x90]
    b844:	31 c0                	xor    eax,eax
    b846:	eb ed                	jmp    b835 <_dl_rtld_di_serinfo@@GLIBC_PRIVATE+0x23b5>
    b848:	48 89 f2             	mov    rdx,rsi
    b84b:	31 c0                	xor    eax,eax
    b84d:	e9 c3 f5 ff ff       	jmp    ae15 <_dl_rtld_di_serinfo@@GLIBC_PRIVATE+0x1995>
    b852:	41 bd 01 00 00 00    	mov    r13d,0x1
    b858:	e9 3a ff ff ff       	jmp    b797 <_dl_rtld_di_serinfo@@GLIBC_PRIVATE+0x2317>
    b85d:	48 8b 45 90          	mov    rax,QWORD PTR [rbp-0x70]
    b861:	48 8b 55 98          	mov    rdx,QWORD PTR [rbp-0x68]
    b865:	48 8b b5 70 ff ff ff 	mov    rsi,QWORD PTR [rbp-0x90]
    b86c:	48 89 45 80          	mov    QWORD PTR [rbp-0x80],rax
    b870:	48 89 55 88          	mov    QWORD PTR [rbp-0x78],rdx
    b874:	b8 01 00 00 00       	mov    eax,0x1
    b879:	eb ba                	jmp    b835 <_dl_rtld_di_serinfo@@GLIBC_PRIVATE+0x23b5>
    b87b:	0f 1f 44 00 00       	nop    DWORD PTR [rax+rax*1+0x0]
    b880:	48 8b 87 98 02 00 00 	mov    rax,QWORD PTR [rdi+0x298]
    b887:	48 85 c0             	test   rax,rax
    b88a:	74 54                	je     b8e0 <_dl_rtld_di_serinfo@@GLIBC_PRIVATE+0x2460>
    b88c:	48 8b 48 08          	mov    rcx,QWORD PTR [rax+0x8]
    b890:	8b 11                	mov    edx,DWORD PTR [rcx]
    b892:	89 97 ec 02 00 00    	mov    DWORD PTR [rdi+0x2ec],edx
    b898:	8b 41 08             	mov    eax,DWORD PTR [rcx+0x8]
    b89b:	8b 71 04             	mov    esi,DWORD PTR [rcx+0x4]
    b89e:	44 8d 40 ff          	lea    r8d,[rax-0x1]
    b8a2:	44 85 c0             	test   eax,r8d
    b8a5:	75 66                	jne    b90d <_dl_rtld_di_serinfo@@GLIBC_PRIVATE+0x248d>
    b8a7:	44 89 87 f0 02 00 00 	mov    DWORD PTR [rdi+0x2f0],r8d
    b8ae:	4c 8d 41 10          	lea    r8,[rcx+0x10]
    b8b2:	01 c0                	add    eax,eax
    b8b4:	8b 49 0c             	mov    ecx,DWORD PTR [rcx+0xc]
    b8b7:	48 29 f2             	sub    rdx,rsi
    b8ba:	49 8d 04 80          	lea    rax,[r8+rax*4]
    b8be:	4c 89 87 f8 02 00 00 	mov    QWORD PTR [rdi+0x2f8],r8
    b8c5:	48 89 87 00 03 00 00 	mov    QWORD PTR [rdi+0x300],rax
    b8cc:	48 8d 04 90          	lea    rax,[rax+rdx*4]
    b8d0:	89 8f f4 02 00 00    	mov    DWORD PTR [rdi+0x2f4],ecx
    b8d6:	48 89 87 08 03 00 00 	mov    QWORD PTR [rdi+0x308],rax
    b8dd:	c3                   	ret
    b8de:	66 90                	xchg   ax,ax
    b8e0:	48 8b 47 60          	mov    rax,QWORD PTR [rdi+0x60]
    b8e4:	48 85 c0             	test   rax,rax
    b8e7:	74 22                	je     b90b <_dl_rtld_di_serinfo@@GLIBC_PRIVATE+0x248b>
    b8e9:	48 8b 40 08          	mov    rax,QWORD PTR [rax+0x8]
    b8ed:	8b 10                	mov    edx,DWORD PTR [rax]
    b8ef:	48 83 c0 08          	add    rax,0x8
    b8f3:	48 89 87 08 03 00 00 	mov    QWORD PTR [rdi+0x308],rax
    b8fa:	48 8d 04 90          	lea    rax,[rax+rdx*4]
    b8fe:	89 97 ec 02 00 00    	mov    DWORD PTR [rdi+0x2ec],edx
    b904:	48 89 87 00 03 00 00 	mov    QWORD PTR [rdi+0x300],rax
    b90b:	f3 c3                	repz ret
    b90d:	48 8d 0d 1c 5d 01 00 	lea    rcx,[rip+0x15d1c]        # 21630 <realloc@@GLIBC_2.2.5+0x7700>
    b914:	50                   	push   rax
    b915:	48 8d 35 3d 41 01 00 	lea    rsi,[rip+0x1413d]        # 1fa59 <realloc@@GLIBC_2.2.5+0x5b29>
    b91c:	48 8d 3d dd 5c 01 00 	lea    rdi,[rip+0x15cdd]        # 21600 <realloc@@GLIBC_2.2.5+0x76d0>
    b923:	ba c8 03 00 00       	mov    edx,0x3c8
    b928:	e8 b3 e5 00 00       	call   19ee0 <free@@GLIBC_2.2.5+0x160>
    b92d:	0f 1f 00             	nop    DWORD PTR [rax]
    b930:	41 54                	push   r12
    b932:	55                   	push   rbp
    b933:	49 89 fc             	mov    r12,rdi
    b936:	53                   	push   rbx
    b937:	48 89 f3             	mov    rbx,rsi
    b93a:	48 8d 3d 2f b0 21 00 	lea    rdi,[rip+0x21b02f]        # 226970 <_rtld_global@@GLIBC_PRIVATE+0x930>
    b941:	ff 15 01 b6 21 00    	call   QWORD PTR [rip+0x21b601]        # 226f48 <_rtld_global@@GLIBC_PRIVATE+0xf08>
    b947:	48 8d 04 db          	lea    rax,[rbx+rbx*8]
    b94b:	48 8d 2d ee a6 21 00 	lea    rbp,[rip+0x21a6ee]        # 226040 <_rtld_global@@GLIBC_PRIVATE>
    b952:	48 c1 e0 04          	shl    rax,0x4
    b956:	48 01 e8             	add    rax,rbp
    b959:	48 8b 10             	mov    rdx,QWORD PTR [rax]
    b95c:	48 85 d2             	test   rdx,rdx
    b95f:	75 0a                	jne    b96b <_dl_rtld_di_serinfo@@GLIBC_PRIVATE+0x24eb>
    b961:	eb 55                	jmp    b9b8 <_dl_rtld_di_serinfo@@GLIBC_PRIVATE+0x2538>
    b963:	0f 1f 44 00 00       	nop    DWORD PTR [rax+rax*1+0x0]
    b968:	48 89 c2             	mov    rdx,rax
    b96b:	48 8b 42 18          	mov    rax,QWORD PTR [rdx+0x18]
    b96f:	48 85 c0             	test   rax,rax
    b972:	75 f4                	jne    b968 <_dl_rtld_di_serinfo@@GLIBC_PRIVATE+0x24e8>
    b974:	49 89 54 24 20       	mov    QWORD PTR [r12+0x20],rdx
    b979:	4c 89 62 18          	mov    QWORD PTR [rdx+0x18],r12
    b97d:	48 8d 04 db          	lea    rax,[rbx+rbx*8]
    b981:	48 8d 3d e8 af 21 00 	lea    rdi,[rip+0x21afe8]        # 226970 <_rtld_global@@GLIBC_PRIVATE+0x930>
    b988:	48 c1 e0 04          	shl    rax,0x4
    b98c:	83 44 05 08 01       	add    DWORD PTR [rbp+rax*1+0x8],0x1
    b991:	48 8b 05 00 b0 21 00 	mov    rax,QWORD PTR [rip+0x21b000]        # 226998 <_rtld_global@@GLIBC_PRIVATE+0x958>
    b998:	5b                   	pop    rbx
    b999:	5d                   	pop    rbp
    b99a:	49 89 84 24 68 04 00 	mov    QWORD PTR [r12+0x468],rax
    b9a1:	00 
    b9a2:	48 83 c0 01          	add    rax,0x1
    b9a6:	41 5c                	pop    r12
    b9a8:	48 89 05 e9 af 21 00 	mov    QWORD PTR [rip+0x21afe9],rax        # 226998 <_rtld_global@@GLIBC_PRIVATE+0x958>
    b9af:	ff 25 9b b5 21 00    	jmp    QWORD PTR [rip+0x21b59b]        # 226f50 <_rtld_global@@GLIBC_PRIVATE+0xf10>
    b9b5:	0f 1f 00             	nop    DWORD PTR [rax]
    b9b8:	4c 89 20             	mov    QWORD PTR [rax],r12
    b9bb:	eb c0                	jmp    b97d <_dl_rtld_di_serinfo@@GLIBC_PRIVATE+0x24fd>
    b9bd:	0f 1f 00             	nop    DWORD PTR [rax]
    b9c0:	41 57                	push   r15
    b9c2:	41 56                	push   r14
    b9c4:	41 55                	push   r13
    b9c6:	41 54                	push   r12
    b9c8:	49 89 cd             	mov    r13,rcx
    b9cb:	55                   	push   rbp
    b9cc:	53                   	push   rbx
    b9cd:	4d 89 cc             	mov    r12,r9
    b9d0:	48 83 ec 28          	sub    rsp,0x28
    b9d4:	48 89 3c 24          	mov    QWORD PTR [rsp],rdi
    b9d8:	48 89 f7             	mov    rdi,rsi
    b9db:	89 54 24 14          	mov    DWORD PTR [rsp+0x14],edx
    b9df:	48 89 74 24 08       	mov    QWORD PTR [rsp+0x8],rsi
    b9e4:	44 89 44 24 10       	mov    DWORD PTR [rsp+0x10],r8d
    b9e9:	e8 d2 13 01 00       	call   1cdc0 <realloc@@GLIBC_2.2.5+0x2e90>
    b9ee:	44 8b 3d 13 a4 21 00 	mov    r15d,DWORD PTR [rip+0x21a413]        # 225e08 <_rtld_global_ro@@GLIBC_PRIVATE+0x168>
    b9f5:	48 89 c3             	mov    rbx,rax
    b9f8:	48 8d 50 01          	lea    rdx,[rax+0x1]
    b9fc:	45 85 ff             	test   r15d,r15d
    b9ff:	0f 84 1b 02 00 00    	je     bc20 <_dl_rtld_di_serinfo@@GLIBC_PRIVATE+0x27a0>
    ba05:	45 89 fa             	mov    r10d,r15d
    ba08:	49 c1 e2 04          	shl    r10,0x4
    ba0c:	4c 89 d5             	mov    rbp,r10
    ba0f:	48 8d bc 1d 91 04 00 	lea    rdi,[rbp+rbx*1+0x491]
    ba16:	00 
    ba17:	be 01 00 00 00       	mov    esi,0x1
    ba1c:	48 89 54 24 18       	mov    QWORD PTR [rsp+0x18],rdx
    ba21:	e8 6a 50 ff ff       	call   a90 <calloc@plt>
    ba26:	48 85 c0             	test   rax,rax
    ba29:	49 89 c6             	mov    r14,rax
    ba2c:	0f 84 ff 02 00 00    	je     bd31 <_dl_rtld_di_serinfo@@GLIBC_PRIVATE+0x28b1>
    ba32:	48 8d ac 28 70 04 00 	lea    rbp,[rax+rbp*1+0x470]
    ba39:	00 
    ba3a:	48 8b 54 24 18       	mov    rdx,QWORD PTR [rsp+0x18]
    ba3f:	48 8b 74 24 08       	mov    rsi,QWORD PTR [rsp+0x8]
    ba44:	49 89 46 28          	mov    QWORD PTR [r14+0x28],rax
    ba48:	48 8d 7d 20          	lea    rdi,[rbp+0x20]
    ba4c:	48 89 a8 c8 02 00 00 	mov    QWORD PTR [rax+0x2c8],rbp
    ba53:	48 8d 45 08          	lea    rax,[rbp+0x8]
    ba57:	49 89 46 38          	mov    QWORD PTR [r14+0x38],rax
    ba5b:	e8 f0 22 01 00       	call   1dd50 <realloc@@GLIBC_2.2.5+0x3e20>
    ba60:	48 8b 0c 24          	mov    rcx,QWORD PTR [rsp]
    ba64:	48 89 45 08          	mov    QWORD PTR [rbp+0x8],rax
    ba68:	48 01 c3             	add    rbx,rax
    ba6b:	c7 45 18 01 00 00 00 	mov    DWORD PTR [rbp+0x18],0x1
    ba72:	0f b6 6c 24 14       	movzx  ebp,BYTE PTR [rsp+0x14]
    ba77:	41 0f b6 86 14 03 00 	movzx  eax,BYTE PTR [r14+0x314]
    ba7e:	00 
    ba7f:	0f b6 11             	movzx  edx,BYTE PTR [rcx]
    ba82:	84 d2                	test   dl,dl
    ba84:	48 0f 45 d9          	cmovne rbx,rcx
    ba88:	83 e5 03             	and    ebp,0x3
    ba8b:	83 e0 fc             	and    eax,0xfffffffc
    ba8e:	09 c5                	or     ebp,eax
    ba90:	f6 05 0a a2 21 00 01 	test   BYTE PTR [rip+0x21a20a],0x1        # 225ca1 <_rtld_global_ro@@GLIBC_PRIVATE+0x1>
    ba97:	49 89 5e 08          	mov    QWORD PTR [r14+0x8],rbx
    ba9b:	41 88 ae 14 03 00 00 	mov    BYTE PTR [r14+0x314],bpl
    baa2:	0f 84 a8 01 00 00    	je     bc50 <_dl_rtld_di_serinfo@@GLIBC_PRIVATE+0x27d0>
    baa8:	45 85 ff             	test   r15d,r15d
    baab:	4d 89 ae d8 02 00 00 	mov    QWORD PTR [r14+0x2d8],r13
    bab2:	4d 89 66 30          	mov    QWORD PTR [r14+0x30],r12
    bab6:	74 24                	je     badc <_dl_rtld_di_serinfo@@GLIBC_PRIVATE+0x265c>
    bab8:	41 8d 77 ff          	lea    esi,[r15-0x1]
    babc:	49 8d 86 70 04 00 00 	lea    rax,[r14+0x470]
    bac3:	48 83 c6 48          	add    rsi,0x48
    bac7:	48 c1 e6 04          	shl    rsi,0x4
    bacb:	4c 01 f6             	add    rsi,r14
    bace:	66 90                	xchg   ax,ax
    bad0:	4c 89 30             	mov    QWORD PTR [rax],r14
    bad3:	48 83 c0 10          	add    rax,0x10
    bad7:	48 39 f0             	cmp    rax,rsi
    bada:	75 f4                	jne    bad0 <_dl_rtld_di_serinfo@@GLIBC_PRIVATE+0x2650>
    badc:	49 8d 86 58 03 00 00 	lea    rax,[r14+0x358]
    bae3:	48 8d 35 56 a5 21 00 	lea    rsi,[rip+0x21a556]        # 226040 <_rtld_global@@GLIBC_PRIVATE>
    baea:	49 c7 86 78 03 00 00 	mov    QWORD PTR [r14+0x378],0x4
    baf1:	04 00 00 00 
    baf5:	49 89 86 80 03 00 00 	mov    QWORD PTR [r14+0x380],rax
    bafc:	4b 8d 04 e4          	lea    rax,[r12+r12*8]
    bb00:	48 c1 e0 04          	shl    rax,0x4
    bb04:	48 8b 04 06          	mov    rax,QWORD PTR [rsi+rax*1]
    bb08:	48 85 c0             	test   rax,rax
    bb0b:	0f 84 ff 01 00 00    	je     bd10 <_dl_rtld_di_serinfo@@GLIBC_PRIVATE+0x2890>
    bb11:	48 05 b8 02 00 00    	add    rax,0x2b8
    bb17:	4d 85 ed             	test   r13,r13
    bb1a:	49 89 86 58 03 00 00 	mov    QWORD PTR [r14+0x358],rax
    bb21:	0f 84 d9 01 00 00    	je     bd00 <_dl_rtld_di_serinfo@@GLIBC_PRIVATE+0x2880>
    bb27:	be 01 00 00 00       	mov    esi,0x1
    bb2c:	eb 05                	jmp    bb33 <_dl_rtld_di_serinfo@@GLIBC_PRIVATE+0x26b3>
    bb2e:	66 90                	xchg   ax,ax
    bb30:	49 89 c5             	mov    r13,rax
    bb33:	49 8b 85 d8 02 00 00 	mov    rax,QWORD PTR [r13+0x2d8]
    bb3a:	48 85 c0             	test   rax,rax
    bb3d:	75 f1                	jne    bb30 <_dl_rtld_di_serinfo@@GLIBC_PRIVATE+0x26b0>
    bb3f:	85 f6                	test   esi,esi
    bb41:	0f 85 19 01 00 00    	jne    bc60 <_dl_rtld_di_serinfo@@GLIBC_PRIVATE+0x27e0>
    bb47:	49 8d 8d b8 02 00 00 	lea    rcx,[r13+0x2b8]
    bb4e:	49 8d b6 b8 02 00 00 	lea    rsi,[r14+0x2b8]
    bb55:	31 c0                	xor    eax,eax
    bb57:	f6 44 24 10 08       	test   BYTE PTR [rsp+0x10],0x8
    bb5c:	75 06                	jne    bb64 <_dl_rtld_di_serinfo@@GLIBC_PRIVATE+0x26e4>
    bb5e:	48 98                	cdqe
    bb60:	48 c1 e0 03          	shl    rax,0x3
    bb64:	49 89 8c 06 58 03 00 	mov    QWORD PTR [r14+rax*1+0x358],rcx
    bb6b:	00 
    bb6c:	84 d2                	test   dl,dl
    bb6e:	49 89 b6 88 03 00 00 	mov    QWORD PTR [r14+0x388],rsi
    bb75:	4c 89 f0             	mov    rax,r14
    bb78:	88 54 24 10          	mov    BYTE PTR [rsp+0x10],dl
    bb7c:	0f 84 88 00 00 00    	je     bc0a <_dl_rtld_di_serinfo@@GLIBC_PRIVATE+0x278a>
    bb82:	48 8b 3c 24          	mov    rdi,QWORD PTR [rsp]
    bb86:	45 31 ff             	xor    r15d,r15d
    bb89:	e8 32 12 01 00       	call   1cdc0 <realloc@@GLIBC_2.2.5+0x2e90>
    bb8e:	0f b6 54 24 10       	movzx  edx,BYTE PTR [rsp+0x10]
    bb93:	49 89 c4             	mov    r12,rax
    bb96:	48 8d 40 01          	lea    rax,[rax+0x1]
    bb9a:	48 89 44 24 08       	mov    QWORD PTR [rsp+0x8],rax
    bb9f:	48 89 c3             	mov    rbx,rax
    bba2:	80 fa 2f             	cmp    dl,0x2f
    bba5:	75 30                	jne    bbd7 <_dl_rtld_di_serinfo@@GLIBC_PRIVATE+0x2757>
    bba7:	e9 70 01 00 00       	jmp    bd1c <_dl_rtld_di_serinfo@@GLIBC_PRIVATE+0x289c>
    bbac:	0f 1f 40 00          	nop    DWORD PTR [rax+0x0]
    bbb0:	48 8d 73 7f          	lea    rsi,[rbx+0x7f]
    bbb4:	48 89 c7             	mov    rdi,rax
    bbb7:	4c 29 e6             	sub    rsi,r12
    bbba:	e8 01 e8 00 00       	call   1a3c0 <realloc@@GLIBC_2.2.5+0x490>
    bbbf:	48 85 c0             	test   rax,rax
    bbc2:	0f 85 d8 00 00 00    	jne    bca0 <_dl_rtld_di_serinfo@@GLIBC_PRIVATE+0x2820>
    bbc8:	83 3d 51 b5 21 00 22 	cmp    DWORD PTR [rip+0x21b551],0x22        # 227120 <_rtld_global@@GLIBC_PRIVATE+0x10e0>
    bbcf:	4d 89 ef             	mov    r15,r13
    bbd2:	48 89 eb             	mov    rbx,rbp
    bbd5:	75 1a                	jne    bbf1 <_dl_rtld_di_serinfo@@GLIBC_PRIVATE+0x2771>
    bbd7:	48 8d ab 80 00 00 00 	lea    rbp,[rbx+0x80]
    bbde:	4c 89 ff             	mov    rdi,r15
    bbe1:	48 89 ee             	mov    rsi,rbp
    bbe4:	e8 b7 4e ff ff       	call   aa0 <realloc@plt>
    bbe9:	48 85 c0             	test   rax,rax
    bbec:	49 89 c5             	mov    r13,rax
    bbef:	75 bf                	jne    bbb0 <_dl_rtld_di_serinfo@@GLIBC_PRIVATE+0x2730>
    bbf1:	4c 89 ff             	mov    rdi,r15
    bbf4:	49 c7 c5 ff ff ff ff 	mov    r13,0xffffffffffffffff
    bbfb:	e8 b0 4e ff ff       	call   ab0 <free@plt>
    bc00:	4d 89 ae 38 03 00 00 	mov    QWORD PTR [r14+0x338],r13
    bc07:	4c 89 f0             	mov    rax,r14
    bc0a:	48 83 c4 28          	add    rsp,0x28
    bc0e:	5b                   	pop    rbx
    bc0f:	5d                   	pop    rbp
    bc10:	41 5c                	pop    r12
    bc12:	41 5d                	pop    r13
    bc14:	41 5e                	pop    r14
    bc16:	41 5f                	pop    r15
    bc18:	c3                   	ret
    bc19:	0f 1f 80 00 00 00 00 	nop    DWORD PTR [rax+0x0]
    bc20:	8b 44 24 10          	mov    eax,DWORD PTR [rsp+0x10]
    bc24:	25 00 00 00 20       	and    eax,0x20000000
    bc29:	83 f8 01             	cmp    eax,0x1
    bc2c:	48 19 ed             	sbb    rbp,rbp
    bc2f:	48 f7 d5             	not    rbp
    bc32:	81 e5 00 01 00 00    	and    ebp,0x100
    bc38:	85 c0                	test   eax,eax
    bc3a:	b8 10 00 00 00       	mov    eax,0x10
    bc3f:	44 0f 45 f8          	cmovne r15d,eax
    bc43:	e9 c7 fd ff ff       	jmp    ba0f <_dl_rtld_di_serinfo@@GLIBC_PRIVATE+0x258f>
    bc48:	0f 1f 84 00 00 00 00 	nop    DWORD PTR [rax+rax*1+0x0]
    bc4f:	00 
    bc50:	41 c7 86 cc 03 00 00 	mov    DWORD PTR [r14+0x3cc],0x1
    bc57:	01 00 00 00 
    bc5b:	e9 48 fe ff ff       	jmp    baa8 <_dl_rtld_di_serinfo@@GLIBC_PRIVATE+0x2628>
    bc60:	49 8b 86 58 03 00 00 	mov    rax,QWORD PTR [r14+0x358]
    bc67:	49 8d 8d b8 02 00 00 	lea    rcx,[r13+0x2b8]
    bc6e:	49 8d b6 b8 02 00 00 	lea    rsi,[r14+0x2b8]
    bc75:	48 39 c8             	cmp    rax,rcx
    bc78:	0f 84 ee fe ff ff    	je     bb6c <_dl_rtld_di_serinfo@@GLIBC_PRIVATE+0x26ec>
    bc7e:	f6 44 24 10 08       	test   BYTE PTR [rsp+0x10],0x8
    bc83:	74 6b                	je     bcf0 <_dl_rtld_di_serinfo@@GLIBC_PRIVATE+0x2870>
    bc85:	49 8b 86 58 03 00 00 	mov    rax,QWORD PTR [r14+0x358]
    bc8c:	49 89 86 60 03 00 00 	mov    QWORD PTR [r14+0x360],rax
    bc93:	31 c0                	xor    eax,eax
    bc95:	e9 ca fe ff ff       	jmp    bb64 <_dl_rtld_di_serinfo@@GLIBC_PRIVATE+0x26e4>
    bc9a:	66 0f 1f 44 00 00    	nop    WORD PTR [rax+rax*1+0x0]
    bca0:	31 f6                	xor    esi,esi
    bca2:	4c 89 ef             	mov    rdi,r13
    bca5:	e8 66 fa 00 00       	call   1b710 <realloc@@GLIBC_2.2.5+0x17e0>
    bcaa:	80 78 ff 2f          	cmp    BYTE PTR [rax-0x1],0x2f
    bcae:	48 89 c7             	mov    rdi,rax
    bcb1:	74 07                	je     bcba <_dl_rtld_di_serinfo@@GLIBC_PRIVATE+0x283a>
    bcb3:	48 8d 78 01          	lea    rdi,[rax+0x1]
    bcb7:	c6 00 2f             	mov    BYTE PTR [rax],0x2f
    bcba:	48 8b 54 24 08       	mov    rdx,QWORD PTR [rsp+0x8]
    bcbf:	48 8b 34 24          	mov    rsi,QWORD PTR [rsp]
    bcc3:	e8 58 1e 01 00       	call   1db20 <realloc@@GLIBC_2.2.5+0x3bf0>
    bcc8:	eb 09                	jmp    bcd3 <_dl_rtld_di_serinfo@@GLIBC_PRIVATE+0x2853>
    bcca:	66 0f 1f 44 00 00    	nop    WORD PTR [rax+rax*1+0x0]
    bcd0:	48 89 d0             	mov    rax,rdx
    bcd3:	80 78 ff 2f          	cmp    BYTE PTR [rax-0x1],0x2f
    bcd7:	48 8d 50 ff          	lea    rdx,[rax-0x1]
    bcdb:	75 f3                	jne    bcd0 <_dl_rtld_di_serinfo@@GLIBC_PRIVATE+0x2850>
    bcdd:	49 39 d5             	cmp    r13,rdx
    bce0:	48 0f 44 d0          	cmove  rdx,rax
    bce4:	c6 02 00             	mov    BYTE PTR [rdx],0x0
    bce7:	e9 14 ff ff ff       	jmp    bc00 <_dl_rtld_di_serinfo@@GLIBC_PRIVATE+0x2780>
    bcec:	0f 1f 40 00          	nop    DWORD PTR [rax+0x0]
    bcf0:	b8 01 00 00 00       	mov    eax,0x1
    bcf5:	e9 64 fe ff ff       	jmp    bb5e <_dl_rtld_di_serinfo@@GLIBC_PRIVATE+0x26de>
    bcfa:	66 0f 1f 44 00 00    	nop    WORD PTR [rax+rax*1+0x0]
    bd00:	4d 89 f5             	mov    r13,r14
    bd03:	e9 5f ff ff ff       	jmp    bc67 <_dl_rtld_di_serinfo@@GLIBC_PRIVATE+0x27e7>
    bd08:	0f 1f 84 00 00 00 00 	nop    DWORD PTR [rax+rax*1+0x0]
    bd0f:	00 
    bd10:	4d 85 ed             	test   r13,r13
    bd13:	74 2f                	je     bd44 <_dl_rtld_di_serinfo@@GLIBC_PRIVATE+0x28c4>
    bd15:	31 f6                	xor    esi,esi
    bd17:	e9 17 fe ff ff       	jmp    bb33 <_dl_rtld_di_serinfo@@GLIBC_PRIVATE+0x26b3>
    bd1c:	48 89 c7             	mov    rdi,rax
    bd1f:	e8 5c 4d ff ff       	call   a80 <malloc@plt>
    bd24:	48 85 c0             	test   rax,rax
    bd27:	49 89 c5             	mov    r13,rax
    bd2a:	74 0c                	je     bd38 <_dl_rtld_di_serinfo@@GLIBC_PRIVATE+0x28b8>
    bd2c:	48 89 c7             	mov    rdi,rax
    bd2f:	eb 89                	jmp    bcba <_dl_rtld_di_serinfo@@GLIBC_PRIVATE+0x283a>
    bd31:	31 c0                	xor    eax,eax
    bd33:	e9 d2 fe ff ff       	jmp    bc0a <_dl_rtld_di_serinfo@@GLIBC_PRIVATE+0x278a>
    bd38:	49 c7 c5 ff ff ff ff 	mov    r13,0xffffffffffffffff
    bd3f:	e9 bc fe ff ff       	jmp    bc00 <_dl_rtld_di_serinfo@@GLIBC_PRIVATE+0x2780>
    bd44:	49 8d b6 b8 02 00 00 	lea    rsi,[r14+0x2b8]
    bd4b:	48 89 f1             	mov    rcx,rsi
    bd4e:	e9 02 fe ff ff       	jmp    bb55 <_dl_rtld_di_serinfo@@GLIBC_PRIVATE+0x26d5>
    bd53:	66 2e 0f 1f 84 00 00 	cs nop WORD PTR [rax+rax*1+0x0]
    bd5a:	00 00 00 
    bd5d:	0f 1f 00             	nop    DWORD PTR [rax]
    bd60:	48 83 bf 40 04 00 00 	cmp    QWORD PTR [rdi+0x440],0xffffffffffffffff
    bd67:	ff 
    bd68:	0f 84 ba 00 00 00    	je     be28 <_dl_rtld_di_serinfo@@GLIBC_PRIVATE+0x29a8>
    bd6e:	48 8b b7 30 04 00 00 	mov    rsi,QWORD PTR [rdi+0x430]
    bd75:	48 3b 35 14 b2 21 00 	cmp    rsi,QWORD PTR [rip+0x21b214]        # 226f90 <_rtld_global@@GLIBC_PRIVATE+0xf50>
    bd7c:	0f 87 a6 00 00 00    	ja     be28 <_dl_rtld_di_serinfo@@GLIBC_PRIVATE+0x29a8>
    bd82:	48 8b 0d ff b1 21 00 	mov    rcx,QWORD PTR [rip+0x21b1ff]        # 226f88 <_rtld_global@@GLIBC_PRIVATE+0xf48>
    bd89:	48 8b 05 f0 b1 21 00 	mov    rax,QWORD PTR [rip+0x21b1f0]        # 226f80 <_rtld_global@@GLIBC_PRIVATE+0xf40>
    bd90:	48 29 c8             	sub    rax,rcx
    bd93:	48 3d ff 08 00 00    	cmp    rax,0x8ff
    bd99:	0f 86 89 00 00 00    	jbe    be28 <_dl_rtld_di_serinfo@@GLIBC_PRIVATE+0x29a8>
    bd9f:	4c 8b 87 38 04 00 00 	mov    r8,QWORD PTR [rdi+0x438]
    bda6:	48 2d 00 09 00 00    	sub    rax,0x900
    bdac:	4c 89 c2             	mov    rdx,r8
    bdaf:	48 03 97 28 04 00 00 	add    rdx,QWORD PTR [rdi+0x428]
    bdb6:	48 39 d0             	cmp    rax,rdx
    bdb9:	72 6d                	jb     be28 <_dl_rtld_di_serinfo@@GLIBC_PRIVATE+0x29a8>
    bdbb:	4c 29 c1             	sub    rcx,r8
    bdbe:	48 01 c1             	add    rcx,rax
    bdc1:	48 29 d0             	sub    rax,rdx
    bdc4:	31 d2                	xor    edx,edx
    bdc6:	48 f7 f6             	div    rsi
    bdc9:	48 0f af c6          	imul   rax,rsi
    bdcd:	48 29 c1             	sub    rcx,rax
    bdd0:	48 8b 47 28          	mov    rax,QWORD PTR [rdi+0x28]
    bdd4:	48 89 0d ad b1 21 00 	mov    QWORD PTR [rip+0x21b1ad],rcx        # 226f88 <_rtld_global@@GLIBC_PRIVATE+0xf48>
    bddb:	48 89 8f 40 04 00 00 	mov    QWORD PTR [rdi+0x440],rcx
    bde2:	f6 80 14 03 00 00 04 	test   BYTE PTR [rax+0x314],0x4
    bde9:	74 2d                	je     be18 <_dl_rtld_di_serinfo@@GLIBC_PRIVATE+0x2998>
    bdeb:	53                   	push   rbx
    bdec:	48 89 fb             	mov    rbx,rdi
    bdef:	64 48 8b 04 25 08 00 	mov    rax,QWORD PTR fs:0x8
    bdf6:	00 00 
    bdf8:	48 8b 35 a1 b1 21 00 	mov    rsi,QWORD PTR [rip+0x21b1a1]        # 226fa0 <_rtld_global@@GLIBC_PRIVATE+0xf60>
    bdff:	48 39 30             	cmp    QWORD PTR [rax],rsi
    be02:	75 2c                	jne    be30 <_dl_rtld_di_serinfo@@GLIBC_PRIVATE+0x29b0>
    be04:	48 89 df             	mov    rdi,rbx
    be07:	ff 15 9b b1 21 00    	call   QWORD PTR [rip+0x21b19b]        # 226fa8 <_rtld_global@@GLIBC_PRIVATE+0xf68>
    be0d:	31 c0                	xor    eax,eax
    be0f:	5b                   	pop    rbx
    be10:	c3                   	ret
    be11:	0f 1f 80 00 00 00 00 	nop    DWORD PTR [rax+0x0]
    be18:	80 8f 15 03 00 00 04 	or     BYTE PTR [rdi+0x315],0x4
    be1f:	31 c0                	xor    eax,eax
    be21:	c3                   	ret
    be22:	66 0f 1f 44 00 00    	nop    WORD PTR [rax+rax*1+0x0]
    be28:	b8 ff ff ff ff       	mov    eax,0xffffffff
    be2d:	c3                   	ret
    be2e:	66 90                	xchg   ax,ax
    be30:	48 8b bf 48 04 00 00 	mov    rdi,QWORD PTR [rdi+0x448]
    be37:	e8 e4 79 00 00       	call   13820 <_dl_deallocate_tls@@GLIBC_PRIVATE+0x90>
    be3c:	eb c6                	jmp    be04 <_dl_rtld_di_serinfo@@GLIBC_PRIVATE+0x2984>
    be3e:	66 90                	xchg   ax,ax
    be40:	53                   	push   rbx
    be41:	48 83 bf 40 04 00 00 	cmp    QWORD PTR [rdi+0x440],0xffffffffffffffff
    be48:	ff 
    be49:	48 89 fb             	mov    rbx,rdi
    be4c:	0f 84 bc 00 00 00    	je     bf0e <_dl_rtld_di_serinfo@@GLIBC_PRIVATE+0x2a8e>
    be52:	48 8b b7 30 04 00 00 	mov    rsi,QWORD PTR [rdi+0x430]
    be59:	48 3b 35 30 b1 21 00 	cmp    rsi,QWORD PTR [rip+0x21b130]        # 226f90 <_rtld_global@@GLIBC_PRIVATE+0xf50>
    be60:	0f 87 a8 00 00 00    	ja     bf0e <_dl_rtld_di_serinfo@@GLIBC_PRIVATE+0x2a8e>
    be66:	48 8b 0d 1b b1 21 00 	mov    rcx,QWORD PTR [rip+0x21b11b]        # 226f88 <_rtld_global@@GLIBC_PRIVATE+0xf48>
    be6d:	48 8b 05 0c b1 21 00 	mov    rax,QWORD PTR [rip+0x21b10c]        # 226f80 <_rtld_global@@GLIBC_PRIVATE+0xf40>
    be74:	48 29 c8             	sub    rax,rcx
    be77:	48 3d ff 08 00 00    	cmp    rax,0x8ff
    be7d:	0f 86 8b 00 00 00    	jbe    bf0e <_dl_rtld_di_serinfo@@GLIBC_PRIVATE+0x2a8e>
    be83:	48 8b bf 38 04 00 00 	mov    rdi,QWORD PTR [rdi+0x438]
    be8a:	48 2d 00 09 00 00    	sub    rax,0x900
    be90:	48 89 fa             	mov    rdx,rdi
    be93:	48 03 93 28 04 00 00 	add    rdx,QWORD PTR [rbx+0x428]
    be9a:	48 39 d0             	cmp    rax,rdx
    be9d:	72 6f                	jb     bf0e <_dl_rtld_di_serinfo@@GLIBC_PRIVATE+0x2a8e>
    be9f:	48 29 f9             	sub    rcx,rdi
    bea2:	48 01 c1             	add    rcx,rax
    bea5:	48 29 d0             	sub    rax,rdx
    bea8:	31 d2                	xor    edx,edx
    beaa:	48 f7 f6             	div    rsi
    bead:	48 0f af c6          	imul   rax,rsi
    beb1:	48 29 c1             	sub    rcx,rax
    beb4:	48 8b 43 28          	mov    rax,QWORD PTR [rbx+0x28]
    beb8:	48 89 0d c9 b0 21 00 	mov    QWORD PTR [rip+0x21b0c9],rcx        # 226f88 <_rtld_global@@GLIBC_PRIVATE+0xf48>
    bebf:	48 89 8b 40 04 00 00 	mov    QWORD PTR [rbx+0x440],rcx
    bec6:	f6 80 14 03 00 00 04 	test   BYTE PTR [rax+0x314],0x4
    becd:	74 21                	je     bef0 <_dl_rtld_di_serinfo@@GLIBC_PRIVATE+0x2a70>
    becf:	64 48 8b 04 25 08 00 	mov    rax,QWORD PTR fs:0x8
    bed6:	00 00 
    bed8:	48 8b 35 c1 b0 21 00 	mov    rsi,QWORD PTR [rip+0x21b0c1]        # 226fa0 <_rtld_global@@GLIBC_PRIVATE+0xf60>
    bedf:	48 39 30             	cmp    QWORD PTR [rax],rsi
    bee2:	75 1c                	jne    bf00 <_dl_rtld_di_serinfo@@GLIBC_PRIVATE+0x2a80>
    bee4:	48 89 df             	mov    rdi,rbx
    bee7:	5b                   	pop    rbx
    bee8:	ff 25 ba b0 21 00    	jmp    QWORD PTR [rip+0x21b0ba]        # 226fa8 <_rtld_global@@GLIBC_PRIVATE+0xf68>
    beee:	66 90                	xchg   ax,ax
    bef0:	80 8b 15 03 00 00 04 	or     BYTE PTR [rbx+0x315],0x4
    bef7:	5b                   	pop    rbx
    bef8:	c3                   	ret
    bef9:	0f 1f 80 00 00 00 00 	nop    DWORD PTR [rax+0x0]
    bf00:	48 8b bb 48 04 00 00 	mov    rdi,QWORD PTR [rbx+0x448]
    bf07:	e8 14 79 00 00       	call   13820 <_dl_deallocate_tls@@GLIBC_PRIVATE+0x90>
    bf0c:	eb d6                	jmp    bee4 <_dl_rtld_di_serinfo@@GLIBC_PRIVATE+0x2a64>
    bf0e:	48 8b 73 08          	mov    rsi,QWORD PTR [rbx+0x8]
    bf12:	48 8d 0d 37 57 01 00 	lea    rcx,[rip+0x15737]        # 21650 <realloc@@GLIBC_2.2.5+0x7720>
    bf19:	31 d2                	xor    edx,edx
    bf1b:	31 ff                	xor    edi,edi
    bf1d:	e8 ce 41 00 00       	call   100f0 <_dl_rtld_di_serinfo@@GLIBC_PRIVATE+0x6c70>
    bf22:	0f 1f 40 00          	nop    DWORD PTR [rax+0x0]
    bf26:	66 2e 0f 1f 84 00 00 	cs nop WORD PTR [rax+rax*1+0x0]
    bf2d:	00 00 00 
    bf30:	53                   	push   rbx
    bf31:	48 8b 97 20 04 00 00 	mov    rdx,QWORD PTR [rdi+0x420]
    bf38:	64 48 8b 04 25 10 00 	mov    rax,QWORD PTR fs:0x10
    bf3f:	00 00 
    bf41:	48 2b 87 40 04 00 00 	sub    rax,QWORD PTR [rdi+0x440]
    bf48:	48 8b 9f 28 04 00 00 	mov    rbx,QWORD PTR [rdi+0x428]
    bf4f:	48 8b b7 18 04 00 00 	mov    rsi,QWORD PTR [rdi+0x418]
    bf56:	48 29 d3             	sub    rbx,rdx
    bf59:	48 89 c7             	mov    rdi,rax
    bf5c:	e8 bf 1b 01 00       	call   1db20 <realloc@@GLIBC_2.2.5+0x3bf0>
    bf61:	48 89 da             	mov    rdx,rbx
    bf64:	31 f6                	xor    esi,esi
    bf66:	48 89 c7             	mov    rdi,rax
    bf69:	5b                   	pop    rbx
    bf6a:	e9 c1 1a 01 00       	jmp    1da30 <realloc@@GLIBC_2.2.5+0x3b00>
    bf6f:	90                   	nop
    bf70:	48 8b b7 58 04 00 00 	mov    rsi,QWORD PTR [rdi+0x458]
    bf77:	48 03 37             	add    rsi,QWORD PTR [rdi]
    bf7a:	48 89 fa             	mov    rdx,rdi
    bf7d:	48 8b 05 34 9d 21 00 	mov    rax,QWORD PTR [rip+0x219d34]        # 225cb8 <_rtld_global_ro@@GLIBC_PRIVATE+0x18>
    bf84:	48 89 f7             	mov    rdi,rsi
    bf87:	48 03 b2 60 04 00 00 	add    rsi,QWORD PTR [rdx+0x460]
    bf8e:	48 f7 d8             	neg    rax
    bf91:	48 21 c7             	and    rdi,rax
    bf94:	48 21 f0             	and    rax,rsi
    bf97:	48 39 c7             	cmp    rdi,rax
    bf9a:	74 19                	je     bfb5 <_dl_rtld_di_serinfo@@GLIBC_PRIVATE+0x2b35>
    bf9c:	48 29 f8             	sub    rax,rdi
    bf9f:	53                   	push   rbx
    bfa0:	48 89 d3             	mov    rbx,rdx
    bfa3:	48 89 c6             	mov    rsi,rax
    bfa6:	ba 01 00 00 00       	mov    edx,0x1
    bfab:	e8 90 f3 00 00       	call   1b340 <realloc@@GLIBC_2.2.5+0x1410>
    bfb0:	85 c0                	test   eax,eax
    bfb2:	78 03                	js     bfb7 <_dl_rtld_di_serinfo@@GLIBC_PRIVATE+0x2b37>
    bfb4:	5b                   	pop    rbx
    bfb5:	f3 c3                	repz ret
    bfb7:	48 8b 73 08          	mov    rsi,QWORD PTR [rbx+0x8]
    bfbb:	8b 3d 5f b1 21 00    	mov    edi,DWORD PTR [rip+0x21b15f]        # 227120 <_rtld_global@@GLIBC_PRIVATE+0x10e0>
    bfc1:	48 8d 0d d8 66 01 00 	lea    rcx,[rip+0x166d8]        # 226a0 <realloc@@GLIBC_2.2.5+0x8770>
    bfc8:	31 d2                	xor    edx,edx
    bfca:	e8 21 41 00 00       	call   100f0 <_dl_rtld_di_serinfo@@GLIBC_PRIVATE+0x6c70>
    bfcf:	90                   	nop
    bfd0:	48 63 d2             	movsxd rdx,edx
    bfd3:	41 54                	push   r12
    bfd5:	55                   	push   rbp
    bfd6:	48 8d 04 d2          	lea    rax,[rdx+rdx*8]
    bfda:	53                   	push   rbx
    bfdb:	89 f3                	mov    ebx,esi
    bfdd:	49 89 fc             	mov    r12,rdi
    bfe0:	48 8d 14 42          	lea    rdx,[rdx+rax*2]
    bfe4:	48 8d 05 15 2d 01 00 	lea    rax,[rip+0x12d15]        # 1ed00 <realloc@@GLIBC_2.2.5+0x4dd0>
    bfeb:	48 83 ec 30          	sub    rsp,0x30
    bfef:	48 89 e7             	mov    rdi,rsp
    bff2:	48 89 e5             	mov    rbp,rsp
    bff5:	48 8d 34 50          	lea    rsi,[rax+rdx*2]
    bff9:	e8 72 1c 01 00       	call   1dc70 <realloc@@GLIBC_2.2.5+0x3d40>
    bffe:	81 fb ff 00 00 00    	cmp    ebx,0xff
    c004:	48 8d 35 15 33 01 00 	lea    rsi,[rip+0x13315]        # 1f320 <realloc@@GLIBC_2.2.5+0x53f0>
    c00b:	77 2d                	ja     c03a <_dl_rtld_di_serinfo@@GLIBC_PRIVATE+0x2bba>
    c00d:	89 da                	mov    edx,ebx
    c00f:	83 e3 0f             	and    ebx,0xf
    c012:	c6 40 02 00          	mov    BYTE PTR [rax+0x2],0x0
    c016:	c1 ea 04             	shr    edx,0x4
    c019:	48 89 e9             	mov    rcx,rbp
    c01c:	31 ff                	xor    edi,edi
    c01e:	83 e2 0f             	and    edx,0xf
    c021:	0f b6 14 16          	movzx  edx,BYTE PTR [rsi+rdx*1]
    c025:	88 10                	mov    BYTE PTR [rax],dl
    c027:	0f b6 14 1e          	movzx  edx,BYTE PTR [rsi+rbx*1]
    c02b:	49 8b 74 24 08       	mov    rsi,QWORD PTR [r12+0x8]
    c030:	88 50 01             	mov    BYTE PTR [rax+0x1],dl
    c033:	31 d2                	xor    edx,edx
    c035:	e8 b6 40 00 00       	call   100f0 <_dl_rtld_di_serinfo@@GLIBC_PRIVATE+0x6c70>
    c03a:	89 da                	mov    edx,ebx
    c03c:	48 83 c0 06          	add    rax,0x6
    c040:	c1 ea 1c             	shr    edx,0x1c
    c043:	0f b6 14 16          	movzx  edx,BYTE PTR [rsi+rdx*1]
    c047:	88 50 fa             	mov    BYTE PTR [rax-0x6],dl
    c04a:	89 da                	mov    edx,ebx
    c04c:	c1 ea 18             	shr    edx,0x18
    c04f:	83 e2 0f             	and    edx,0xf
    c052:	0f b6 14 16          	movzx  edx,BYTE PTR [rsi+rdx*1]
    c056:	88 50 fb             	mov    BYTE PTR [rax-0x5],dl
    c059:	89 da                	mov    edx,ebx
    c05b:	c1 ea 14             	shr    edx,0x14
    c05e:	83 e2 0f             	and    edx,0xf
    c061:	0f b6 14 16          	movzx  edx,BYTE PTR [rsi+rdx*1]
    c065:	88 50 fc             	mov    BYTE PTR [rax-0x4],dl
    c068:	89 da                	mov    edx,ebx
    c06a:	c1 ea 10             	shr    edx,0x10
    c06d:	83 e2 0f             	and    edx,0xf
    c070:	0f b6 14 16          	movzx  edx,BYTE PTR [rsi+rdx*1]
    c074:	88 50 fd             	mov    BYTE PTR [rax-0x3],dl
    c077:	89 da                	mov    edx,ebx
    c079:	c1 ea 0c             	shr    edx,0xc
    c07c:	83 e2 0f             	and    edx,0xf
    c07f:	0f b6 14 16          	movzx  edx,BYTE PTR [rsi+rdx*1]
    c083:	88 50 fe             	mov    BYTE PTR [rax-0x2],dl
    c086:	89 da                	mov    edx,ebx
    c088:	c1 ea 08             	shr    edx,0x8
    c08b:	83 e2 0f             	and    edx,0xf
    c08e:	0f b6 14 16          	movzx  edx,BYTE PTR [rsi+rdx*1]
    c092:	88 50 ff             	mov    BYTE PTR [rax-0x1],dl
    c095:	e9 73 ff ff ff       	jmp    c00d <_dl_rtld_di_serinfo@@GLIBC_PRIVATE+0x2b8d>
    c09a:	66 0f 1f 44 00 00    	nop    WORD PTR [rax+rax*1+0x0]
    c0a0:	55                   	push   rbp
    c0a1:	49 89 fb             	mov    r11,rdi
    c0a4:	48 89 e5             	mov    rbp,rsp
    c0a7:	41 57                	push   r15
    c0a9:	41 56                	push   r14
    c0ab:	41 55                	push   r13
    c0ad:	41 54                	push   r12
    c0af:	41 89 d4             	mov    r12d,edx
    c0b2:	53                   	push   rbx
    c0b3:	48 81 ec f8 00 00 00 	sub    rsp,0xf8
    c0ba:	81 e2 00 00 00 08    	and    edx,0x8000000
    c0c0:	48 89 b5 40 ff ff ff 	mov    QWORD PTR [rbp-0xc0],rsi
    c0c7:	89 8d 4c ff ff ff    	mov    DWORD PTR [rbp-0xb4],ecx
    c0cd:	75 17                	jne    c0e6 <_dl_rtld_di_serinfo@@GLIBC_PRIVATE+0x2c66>
    c0cf:	31 c0                	xor    eax,eax
    c0d1:	48 83 3d 27 9d 21 00 	cmp    QWORD PTR [rip+0x219d27],0x0        # 225e00 <_rtld_global_ro@@GLIBC_PRIVATE+0x160>
    c0d8:	00 
    c0d9:	89 cf                	mov    edi,ecx
    c0db:	0f 95 c0             	setne  al
    c0de:	09 c7                	or     edi,eax
    c0e0:	89 bd 4c ff ff ff    	mov    DWORD PTR [rbp-0xb4],edi
    c0e6:	41 f6 83 14 03 00 00 	test   BYTE PTR [r11+0x314],0x4
    c0ed:	04 
    c0ee:	0f 85 d1 02 00 00    	jne    c3c5 <_dl_rtld_di_serinfo@@GLIBC_PRIVATE+0x2f45>
    c0f4:	8b b5 4c ff ff ff    	mov    esi,DWORD PTR [rbp-0xb4]
    c0fa:	85 f6                	test   esi,esi
    c0fc:	0f 84 0e 05 00 00    	je     c610 <_dl_rtld_di_serinfo@@GLIBC_PRIVATE+0x3190>
    c102:	45 89 e5             	mov    r13d,r12d
    c105:	41 83 e5 01          	and    r13d,0x1
    c109:	f6 05 90 9b 21 00 20 	test   BYTE PTR [rip+0x219b90],0x20        # 225ca0 <_rtld_global_ro@@GLIBC_PRIVATE>
    c110:	0f 85 dc 0c 00 00    	jne    cdf2 <_dl_rtld_di_serinfo@@GLIBC_PRIVATE+0x3972>
    c116:	49 83 bb f0 00 00 00 	cmp    QWORD PTR [r11+0xf0],0x0
    c11d:	00 
    c11e:	48 c7 85 08 ff ff ff 	mov    QWORD PTR [rbp-0xf8],0x0
    c125:	00 00 00 00 
    c129:	0f 85 9c 0b 00 00    	jne    cccb <_dl_rtld_di_serinfo@@GLIBC_PRIVATE+0x384b>
    c12f:	49 8b 43 68          	mov    rax,QWORD PTR [r11+0x68]
    c133:	44 89 eb             	mov    ebx,r13d
    c136:	83 e3 01             	and    ebx,0x1
    c139:	49 83 bb f8 00 00 00 	cmp    QWORD PTR [r11+0xf8],0x0
    c140:	00 
    c141:	48 8b 40 08          	mov    rax,QWORD PTR [rax+0x8]
    c145:	48 89 85 38 ff ff ff 	mov    QWORD PTR [rbp-0xc8],rax
    c14c:	74 45                	je     c193 <_dl_rtld_di_serinfo@@GLIBC_PRIVATE+0x2d13>
    c14e:	84 db                	test   bl,bl
    c150:	74 41                	je     c193 <_dl_rtld_di_serinfo@@GLIBC_PRIVATE+0x2d13>
    c152:	49 8b 43 58          	mov    rax,QWORD PTR [r11+0x58]
    c156:	48 8b 50 08          	mov    rdx,QWORD PTR [rax+0x8]
    c15a:	48 8b 42 08          	mov    rax,QWORD PTR [rdx+0x8]
    c15e:	48 85 c0             	test   rax,rax
    c161:	0f 85 a9 09 00 00    	jne    cb10 <_dl_rtld_di_serinfo@@GLIBC_PRIVATE+0x3690>
    c167:	8b 8d 4c ff ff ff    	mov    ecx,DWORD PTR [rbp-0xb4]
    c16d:	4c 89 5a 08          	mov    QWORD PTR [rdx+0x8],r11
    c171:	8b 05 d9 9b 21 00    	mov    eax,DWORD PTR [rip+0x219bd9]        # 225d50 <_rtld_global_ro@@GLIBC_PRIVATE+0xb0>
    c177:	85 c9                	test   ecx,ecx
    c179:	0f 85 b7 12 00 00    	jne    d436 <_dl_rtld_di_serinfo@@GLIBC_PRIVATE+0x3fb6>
    c17f:	f6 c4 10             	test   ah,0x10
    c182:	0f 84 a8 09 00 00    	je     cb30 <_dl_rtld_di_serinfo@@GLIBC_PRIVATE+0x36b0>
    c188:	48 8d 05 21 af 00 00 	lea    rax,[rip+0xaf21]        # 170b0 <_dl_find_dso_for_object@@GLIBC_PRIVATE+0x2690>
    c18f:	48 89 42 10          	mov    QWORD PTR [rdx+0x10],rax
    c193:	49 8b 83 88 02 00 00 	mov    rax,QWORD PTR [r11+0x288]
    c19a:	48 85 c0             	test   rax,rax
    c19d:	74 16                	je     c1b5 <_dl_rtld_di_serinfo@@GLIBC_PRIVATE+0x2d35>
    c19f:	84 db                	test   bl,bl
    c1a1:	74 12                	je     c1b5 <_dl_rtld_di_serinfo@@GLIBC_PRIVATE+0x2d35>
    c1a3:	48 8b 50 08          	mov    rdx,QWORD PTR [rax+0x8]
    c1a7:	49 8b 03             	mov    rax,QWORD PTR [r11]
    c1aa:	48 8d 35 8f cd 00 00 	lea    rsi,[rip+0xcd8f]        # 18f40 <_dl_find_dso_for_object@@GLIBC_PRIVATE+0x4520>
    c1b1:	48 89 34 02          	mov    QWORD PTR [rdx+rax*1],rsi
    c1b5:	48 8d 55 90          	lea    rdx,[rbp-0x70]
    c1b9:	31 c0                	xor    eax,eax
    c1bb:	b9 08 00 00 00       	mov    ecx,0x8
    c1c0:	48 89 d7             	mov    rdi,rdx
    c1c3:	f3 48 ab             	rep stos QWORD PTR es:[rdi],rax
    c1c6:	49 8b 43 78          	mov    rax,QWORD PTR [r11+0x78]
    c1ca:	48 85 c0             	test   rax,rax
    c1cd:	0f 84 3d 0a 00 00    	je     cc10 <_dl_rtld_di_serinfo@@GLIBC_PRIVATE+0x3790>
    c1d3:	48 8b 48 08          	mov    rcx,QWORD PTR [rax+0x8]
    c1d7:	49 8b 83 80 00 00 00 	mov    rax,QWORD PTR [r11+0x80]
    c1de:	49 8b b3 80 01 00 00 	mov    rsi,QWORD PTR [r11+0x180]
    c1e5:	48 8b 40 08          	mov    rax,QWORD PTR [rax+0x8]
    c1e9:	48 89 4d 90          	mov    QWORD PTR [rbp-0x70],rcx
    c1ed:	48 85 f6             	test   rsi,rsi
    c1f0:	48 89 45 98          	mov    QWORD PTR [rbp-0x68],rax
    c1f4:	74 08                	je     c1fe <_dl_rtld_di_serinfo@@GLIBC_PRIVATE+0x2d7e>
    c1f6:	48 8b 76 08          	mov    rsi,QWORD PTR [rsi+0x8]
    c1fa:	48 89 75 a0          	mov    QWORD PTR [rbp-0x60],rsi
    c1fe:	4c 8d 04 01          	lea    r8,[rcx+rax*1]
    c202:	49 83 bb e0 00 00 00 	cmp    QWORD PTR [r11+0xe0],0x0
    c209:	00 
    c20a:	74 3a                	je     c246 <_dl_rtld_di_serinfo@@GLIBC_PRIVATE+0x2dc6>
    c20c:	49 8b b3 f8 00 00 00 	mov    rsi,QWORD PTR [r11+0xf8]
    c213:	49 8b 7b 50          	mov    rdi,QWORD PTR [r11+0x50]
    c217:	48 8b 76 08          	mov    rsi,QWORD PTR [rsi+0x8]
    c21b:	48 8b 7f 08          	mov    rdi,QWORD PTR [rdi+0x8]
    c21f:	4c 8d 0c 3e          	lea    r9,[rsi+rdi*1]
    c223:	4d 39 c1             	cmp    r9,r8
    c226:	0f 84 e4 06 00 00    	je     c910 <_dl_rtld_di_serinfo@@GLIBC_PRIVATE+0x3490>
    c22c:	45 85 ed             	test   r13d,r13d
    c22f:	75 09                	jne    c23a <_dl_rtld_di_serinfo@@GLIBC_PRIVATE+0x2dba>
    c231:	4c 39 c6             	cmp    rsi,r8
    c234:	0f 84 26 09 00 00    	je     cb60 <_dl_rtld_di_serinfo@@GLIBC_PRIVATE+0x36e0>
    c23a:	48 89 75 b0          	mov    QWORD PTR [rbp-0x50],rsi
    c23e:	48 89 7d b8          	mov    QWORD PTR [rbp-0x48],rdi
    c242:	44 89 6d c8          	mov    DWORD PTR [rbp-0x38],r13d
    c246:	48 8d 45 d0          	lea    rax,[rbp-0x30]
    c24a:	41 81 e4 00 00 00 02 	and    r12d,0x2000000
    c251:	48 89 95 50 ff ff ff 	mov    QWORD PTR [rbp-0xb0],rdx
    c258:	44 89 a5 48 ff ff ff 	mov    DWORD PTR [rbp-0xb8],r12d
    c25f:	48 89 d7             	mov    rdi,rdx
    c262:	4d 89 dc             	mov    r12,r11
    c265:	48 89 85 00 ff ff ff 	mov    QWORD PTR [rbp-0x100],rax
    c26c:	48 8d 45 80          	lea    rax,[rbp-0x80]
    c270:	48 89 85 18 ff ff ff 	mov    QWORD PTR [rbp-0xe8],rax
    c277:	48 8d 45 88          	lea    rax,[rbp-0x78]
    c27b:	48 89 85 f8 fe ff ff 	mov    QWORD PTR [rbp-0x108],rax
    c282:	48 8d 85 78 ff ff ff 	lea    rax,[rbp-0x88]
    c289:	48 89 85 f0 fe ff ff 	mov    QWORD PTR [rbp-0x110],rax
    c290:	48 8d 85 70 ff ff ff 	lea    rax,[rbp-0x90]
    c297:	48 89 85 e8 fe ff ff 	mov    QWORD PTR [rbp-0x118],rax
    c29e:	48 8b 07             	mov    rax,QWORD PTR [rdi]
    c2a1:	8b 57 18             	mov    edx,DWORD PTR [rdi+0x18]
    c2a4:	4d 8b 2c 24          	mov    r13,QWORD PTR [r12]
    c2a8:	48 89 c6             	mov    rsi,rax
    c2ab:	48 03 77 08          	add    rsi,QWORD PTR [rdi+0x8]
    c2af:	85 d2                	test   edx,edx
    c2b1:	48 89 b5 68 ff ff ff 	mov    QWORD PTR [rbp-0x98],rsi
    c2b8:	0f 84 1a 01 00 00    	je     c3d8 <_dl_rtld_di_serinfo@@GLIBC_PRIVATE+0x2f58>
    c2be:	45 31 f6             	xor    r14d,r14d
    c2c1:	31 db                	xor    ebx,ebx
    c2c3:	48 39 f0             	cmp    rax,rsi
    c2c6:	48 89 f7             	mov    rdi,rsi
    c2c9:	72 32                	jb     c2fd <_dl_rtld_di_serinfo@@GLIBC_PRIVATE+0x2e7d>
    c2cb:	e9 a0 00 00 00       	jmp    c370 <_dl_rtld_di_serinfo@@GLIBC_PRIVATE+0x2ef0>
    c2d0:	4c 89 e9             	mov    rcx,r13
    c2d3:	48 03 08             	add    rcx,QWORD PTR [rax]
    c2d6:	48 83 fa 07          	cmp    rdx,0x7
    c2da:	0f 85 88 03 00 00    	jne    c668 <_dl_rtld_di_serinfo@@GLIBC_PRIVATE+0x31e8>
    c2e0:	49 8b 94 24 e0 03 00 	mov    rdx,QWORD PTR [r12+0x3e0]
    c2e7:	00 
    c2e8:	48 85 d2             	test   rdx,rdx
    c2eb:	0f 85 9f 03 00 00    	jne    c690 <_dl_rtld_di_serinfo@@GLIBC_PRIVATE+0x3210>
    c2f1:	4c 01 29             	add    QWORD PTR [rcx],r13
    c2f4:	48 83 c0 18          	add    rax,0x18
    c2f8:	48 39 c7             	cmp    rdi,rax
    c2fb:	76 23                	jbe    c320 <_dl_rtld_di_serinfo@@GLIBC_PRIVATE+0x2ea0>
    c2fd:	48 8b 70 08          	mov    rsi,QWORD PTR [rax+0x8]
    c301:	89 f2                	mov    edx,esi
    c303:	48 83 fa 25          	cmp    rdx,0x25
    c307:	75 c7                	jne    c2d0 <_dl_rtld_di_serinfo@@GLIBC_PRIVATE+0x2e50>
    c309:	48 85 db             	test   rbx,rbx
    c30c:	49 89 c6             	mov    r14,rax
    c30f:	75 e3                	jne    c2f4 <_dl_rtld_di_serinfo@@GLIBC_PRIVATE+0x2e74>
    c311:	49 89 c6             	mov    r14,rax
    c314:	48 89 c3             	mov    rbx,rax
    c317:	48 83 c0 18          	add    rax,0x18
    c31b:	48 39 c7             	cmp    rdi,rax
    c31e:	77 dd                	ja     c2fd <_dl_rtld_di_serinfo@@GLIBC_PRIVATE+0x2e7d>
    c320:	48 85 db             	test   rbx,rbx
    c323:	74 4b                	je     c370 <_dl_rtld_di_serinfo@@GLIBC_PRIVATE+0x2ef0>
    c325:	4c 39 f3             	cmp    rbx,r14
    c328:	77 46                	ja     c370 <_dl_rtld_di_serinfo@@GLIBC_PRIVATE+0x2ef0>
    c32a:	8b 85 48 ff ff ff    	mov    eax,DWORD PTR [rbp-0xb8]
    c330:	85 c0                	test   eax,eax
    c332:	74 15                	je     c349 <_dl_rtld_di_serinfo@@GLIBC_PRIVATE+0x2ec9>
    c334:	e9 b3 05 00 00       	jmp    c8ec <_dl_rtld_di_serinfo@@GLIBC_PRIVATE+0x346c>
    c339:	0f 1f 80 00 00 00 00 	nop    DWORD PTR [rax+0x0]
    c340:	48 83 c3 18          	add    rbx,0x18
    c344:	4c 39 f3             	cmp    rbx,r14
    c347:	77 27                	ja     c370 <_dl_rtld_di_serinfo@@GLIBC_PRIVATE+0x2ef0>
    c349:	83 7b 08 25          	cmp    DWORD PTR [rbx+0x8],0x25
    c34d:	75 f1                	jne    c340 <_dl_rtld_di_serinfo@@GLIBC_PRIVATE+0x2ec0>
    c34f:	4c 8b 3b             	mov    r15,QWORD PTR [rbx]
    c352:	48 8b 43 10          	mov    rax,QWORD PTR [rbx+0x10]
    c356:	48 83 c3 18          	add    rbx,0x18
    c35a:	49 03 04 24          	add    rax,QWORD PTR [r12]
    c35e:	ff d0                	call   rax
    c360:	4c 39 f3             	cmp    rbx,r14
    c363:	4b 89 44 3d 00       	mov    QWORD PTR [r13+r15*1+0x0],rax
    c368:	76 df                	jbe    c349 <_dl_rtld_di_serinfo@@GLIBC_PRIVATE+0x2ec9>
    c36a:	66 0f 1f 44 00 00    	nop    WORD PTR [rax+rax*1+0x0]
    c370:	48 83 85 50 ff ff ff 	add    QWORD PTR [rbp-0xb0],0x20
    c377:	20 
    c378:	48 8b 85 50 ff ff ff 	mov    rax,QWORD PTR [rbp-0xb0]
    c37f:	48 3b 85 00 ff ff ff 	cmp    rax,QWORD PTR [rbp-0x100]
    c386:	0f 85 74 08 00 00    	jne    cc00 <_dl_rtld_di_serinfo@@GLIBC_PRIVATE+0x3780>
    c38c:	44 8b 85 4c ff ff ff 	mov    r8d,DWORD PTR [rbp-0xb4]
    c393:	4d 89 e3             	mov    r11,r12
    c396:	45 85 c0             	test   r8d,r8d
    c399:	0f 85 91 0f 00 00    	jne    d330 <_dl_rtld_di_serinfo@@GLIBC_PRIVATE+0x3eb0>
    c39f:	41 80 8b 14 03 00 00 	or     BYTE PTR [r11+0x314],0x4
    c3a6:	04 
    c3a7:	48 83 bd 08 ff ff ff 	cmp    QWORD PTR [rbp-0xf8],0x0
    c3ae:	00 
    c3af:	0f 85 13 10 00 00    	jne    d3c8 <_dl_rtld_di_serinfo@@GLIBC_PRIVATE+0x3f48>
    c3b5:	49 8b b3 60 04 00 00 	mov    rsi,QWORD PTR [r11+0x460]
    c3bc:	48 85 f6             	test   rsi,rsi
    c3bf:	0f 85 e3 06 00 00    	jne    caa8 <_dl_rtld_di_serinfo@@GLIBC_PRIVATE+0x3628>
    c3c5:	48 8d 65 d8          	lea    rsp,[rbp-0x28]
    c3c9:	5b                   	pop    rbx
    c3ca:	41 5c                	pop    r12
    c3cc:	41 5d                	pop    r13
    c3ce:	41 5e                	pop    r14
    c3d0:	41 5f                	pop    r15
    c3d2:	5d                   	pop    rbp
    c3d3:	c3                   	ret
    c3d4:	0f 1f 40 00          	nop    DWORD PTR [rax+0x0]
    c3d8:	49 8b 54 24 70       	mov    rdx,QWORD PTR [r12+0x70]
    c3dd:	48 8b 72 08          	mov    rsi,QWORD PTR [rdx+0x8]
    c3e1:	48 8b 57 10          	mov    rdx,QWORD PTR [rdi+0x10]
    c3e5:	48 8d 14 52          	lea    rdx,[rdx+rdx*2]
    c3e9:	48 89 b5 60 ff ff ff 	mov    QWORD PTR [rbp-0xa0],rsi
    c3f0:	48 8d 1c d0          	lea    rbx,[rax+rdx*8]
    c3f4:	48 8d 15 dd a5 21 00 	lea    rdx,[rip+0x21a5dd]        # 2269d8 <_rtld_global@@GLIBC_PRIVATE+0x998>
    c3fb:	49 39 d4             	cmp    r12,rdx
    c3fe:	74 3c                	je     c43c <_dl_rtld_di_serinfo@@GLIBC_PRIVATE+0x2fbc>
    c400:	4d 85 ed             	test   r13,r13
    c403:	0f 84 ef 04 00 00    	je     c8f8 <_dl_rtld_di_serinfo@@GLIBC_PRIVATE+0x3478>
    c409:	48 39 d8             	cmp    rax,rbx
    c40c:	73 2e                	jae    c43c <_dl_rtld_di_serinfo@@GLIBC_PRIVATE+0x2fbc>
    c40e:	66 90                	xchg   ax,ax
    c410:	8b 50 08             	mov    edx,DWORD PTR [rax+0x8]
    c413:	4c 89 e9             	mov    rcx,r13
    c416:	48 03 08             	add    rcx,QWORD PTR [rax]
    c419:	48 83 fa 26          	cmp    rdx,0x26
    c41d:	74 0a                	je     c429 <_dl_rtld_di_serinfo@@GLIBC_PRIVATE+0x2fa9>
    c41f:	48 83 fa 08          	cmp    rdx,0x8
    c423:	0f 85 b5 14 00 00    	jne    d8de <_dl_rtld_di_serinfo@@GLIBC_PRIVATE+0x445e>
    c429:	4c 89 ea             	mov    rdx,r13
    c42c:	48 03 50 10          	add    rdx,QWORD PTR [rax+0x10]
    c430:	48 83 c0 18          	add    rax,0x18
    c434:	48 39 c3             	cmp    rbx,rax
    c437:	48 89 11             	mov    QWORD PTR [rcx],rdx
    c43a:	77 d4                	ja     c410 <_dl_rtld_di_serinfo@@GLIBC_PRIVATE+0x2f90>
    c43c:	49 8b 84 24 c8 01 00 	mov    rax,QWORD PTR [r12+0x1c8]
    c443:	00 
    c444:	48 85 c0             	test   rax,rax
    c447:	0f 84 c7 09 00 00    	je     ce14 <_dl_rtld_di_serinfo@@GLIBC_PRIVATE+0x3994>
    c44d:	48 39 9d 68 ff ff ff 	cmp    QWORD PTR [rbp-0x98],rbx
    c454:	48 8b 40 08          	mov    rax,QWORD PTR [rax+0x8]
    c458:	48 89 85 58 ff ff ff 	mov    QWORD PTR [rbp-0xa8],rax
    c45f:	0f 86 0b ff ff ff    	jbe    c370 <_dl_rtld_di_serinfo@@GLIBC_PRIVATE+0x2ef0>
    c465:	45 31 db             	xor    r11d,r11d
    c468:	48 c7 85 10 ff ff ff 	mov    QWORD PTR [rbp-0xf0],0x0
    c46f:	00 00 00 00 
    c473:	4c 89 9d 20 ff ff ff 	mov    QWORD PTR [rbp-0xe0],r11
    c47a:	4d 89 eb             	mov    r11,r13
    c47d:	0f 1f 00             	nop    DWORD PTR [rax]
    c480:	4c 8b 6b 08          	mov    r13,QWORD PTR [rbx+0x8]
    c484:	45 89 ee             	mov    r14d,r13d
    c487:	49 83 fe 25          	cmp    r14,0x25
    c48b:	0f 84 df 03 00 00    	je     c870 <_dl_rtld_di_serinfo@@GLIBC_PRIVATE+0x33f0>
    c491:	48 8b bd 58 ff ff ff 	mov    rdi,QWORD PTR [rbp-0xa8]
    c498:	4c 89 e8             	mov    rax,r13
    c49b:	4d 89 da             	mov    r10,r11
    c49e:	48 c1 e8 20          	shr    rax,0x20
    c4a2:	4c 03 13             	add    r10,QWORD PTR [rbx]
    c4a5:	49 83 fe 08          	cmp    r14,0x8
    c4a9:	49 8b b4 24 e0 02 00 	mov    rsi,QWORD PTR [r12+0x2e0]
    c4b0:	00 
    c4b1:	0f b7 14 47          	movzx  edx,WORD PTR [rdi+rax*2]
    c4b5:	48 8b bd 60 ff ff ff 	mov    rdi,QWORD PTR [rbp-0xa0]
    c4bc:	48 8d 04 40          	lea    rax,[rax+rax*2]
    c4c0:	4c 8d 3c c7          	lea    r15,[rdi+rax*8]
    c4c4:	4c 89 7d 80          	mov    QWORD PTR [rbp-0x80],r15
    c4c8:	0f 84 d2 03 00 00    	je     c8a0 <_dl_rtld_di_serinfo@@GLIBC_PRIVATE+0x3420>
    c4ce:	49 83 fe 26          	cmp    r14,0x26
    c4d2:	0f 84 c8 03 00 00    	je     c8a0 <_dl_rtld_di_serinfo@@GLIBC_PRIVATE+0x3420>
    c4d8:	4d 85 f6             	test   r14,r14
    c4db:	0f 84 df 01 00 00    	je     c6c0 <_dl_rtld_di_serinfo@@GLIBC_PRIVATE+0x3240>
    c4e1:	41 0f b6 47 04       	movzx  eax,BYTE PTR [r15+0x4]
    c4e6:	c0 e8 04             	shr    al,0x4
    c4e9:	84 c0                	test   al,al
    c4eb:	0f 84 9f 03 00 00    	je     c890 <_dl_rtld_di_serinfo@@GLIBC_PRIVATE+0x3410>
    c4f1:	4d 3b bc 24 f8 03 00 	cmp    r15,QWORD PTR [r12+0x3f8]
    c4f8:	00 
    c4f9:	0f 84 21 07 00 00    	je     cc20 <_dl_rtld_di_serinfo@@GLIBC_PRIVATE+0x37a0>
    c4ff:	49 83 fe 07          	cmp    r14,0x7
    c503:	0f 84 a7 03 00 00    	je     c8b0 <_dl_rtld_di_serinfo@@GLIBC_PRIVATE+0x3430>
    c509:	49 83 fe 10          	cmp    r14,0x10
    c50d:	0f 84 9d 03 00 00    	je     c8b0 <_dl_rtld_di_serinfo@@GLIBC_PRIVATE+0x3430>
    c513:	49 8d 46 ef          	lea    rax,[r14-0x11]
    c517:	48 83 f8 01          	cmp    rax,0x1
    c51b:	41 0f 96 c1          	setbe  r9b
    c51f:	49 83 fe 24          	cmp    r14,0x24
    c523:	0f 94 c0             	sete   al
    c526:	41 09 c1             	or     r9d,eax
    c529:	49 83 fe 05          	cmp    r14,0x5
    c52d:	41 0f b6 c1          	movzx  eax,r9b
    c531:	0f 84 88 03 00 00    	je     c8bf <_dl_rtld_di_serinfo@@GLIBC_PRIVATE+0x343f>
    c537:	45 31 c9             	xor    r9d,r9d
    c53a:	49 83 fe 06          	cmp    r14,0x6
    c53e:	41 0f 94 c1          	sete   r9b
    c542:	41 c1 e1 02          	shl    r9d,0x2
    c546:	81 e2 ff 7f 00 00    	and    edx,0x7fff
    c54c:	41 09 c1             	or     r9d,eax
    c54f:	4d 89 bc 24 f8 03 00 	mov    QWORD PTR [r12+0x3f8],r15
    c556:	00 
    c557:	48 8d 14 52          	lea    rdx,[rdx+rdx*2]
    c55b:	45 89 8c 24 00 04 00 	mov    DWORD PTR [r12+0x400],r9d
    c562:	00 
    c563:	4c 8d 04 d6          	lea    r8,[rsi+rdx*8]
    c567:	4d 85 c0             	test   r8,r8
    c56a:	74 0f                	je     c57b <_dl_rtld_di_serinfo@@GLIBC_PRIVATE+0x30fb>
    c56c:	41 8b 40 08          	mov    eax,DWORD PTR [r8+0x8]
    c570:	85 c0                	test   eax,eax
    c572:	b8 00 00 00 00       	mov    eax,0x0
    c577:	4c 0f 44 c0          	cmove  r8,rax
    c57b:	41 8b 3f             	mov    edi,DWORD PTR [r15]
    c57e:	48 8b 8d 40 ff ff ff 	mov    rcx,QWORD PTR [rbp-0xc0]
    c585:	4c 89 e6             	mov    rsi,r12
    c588:	48 03 bd 38 ff ff ff 	add    rdi,QWORD PTR [rbp-0xc8]
    c58f:	48 8b 95 18 ff ff ff 	mov    rdx,QWORD PTR [rbp-0xe8]
    c596:	6a 00                	push   0x0
    c598:	6a 01                	push   0x1
    c59a:	4c 89 9d 28 ff ff ff 	mov    QWORD PTR [rbp-0xd8],r11
    c5a1:	4c 89 95 30 ff ff ff 	mov    QWORD PTR [rbp-0xd0],r10
    c5a8:	e8 53 e2 ff ff       	call   a800 <_dl_rtld_di_serinfo@@GLIBC_PRIVATE+0x1380>
    c5ad:	48 8b 55 80          	mov    rdx,QWORD PTR [rbp-0x80]
    c5b1:	49 89 84 24 08 04 00 	mov    QWORD PTR [r12+0x408],rax
    c5b8:	00 
    c5b9:	48 89 c1             	mov    rcx,rax
    c5bc:	4c 8b 9d 28 ff ff ff 	mov    r11,QWORD PTR [rbp-0xd8]
    c5c3:	4c 8b 95 30 ff ff ff 	mov    r10,QWORD PTR [rbp-0xd0]
    c5ca:	49 89 94 24 10 04 00 	mov    QWORD PTR [r12+0x410],rdx
    c5d1:	00 
    c5d2:	5e                   	pop    rsi
    c5d3:	5f                   	pop    rdi
    c5d4:	31 c0                	xor    eax,eax
    c5d6:	48 85 d2             	test   rdx,rdx
    c5d9:	74 18                	je     c5f3 <_dl_rtld_di_serinfo@@GLIBC_PRIVATE+0x3173>
    c5db:	0f b6 72 04          	movzx  esi,BYTE PTR [rdx+0x4]
    c5df:	48 8b 42 08          	mov    rax,QWORD PTR [rdx+0x8]
    c5e3:	48 03 01             	add    rax,QWORD PTR [rcx]
    c5e6:	83 e6 0f             	and    esi,0xf
    c5e9:	40 80 fe 0a          	cmp    sil,0xa
    c5ed:	0f 84 9d 05 00 00    	je     cb90 <_dl_rtld_di_serinfo@@GLIBC_PRIVATE+0x3710>
    c5f3:	49 83 fe 25          	cmp    r14,0x25
    c5f7:	0f 87 73 05 00 00    	ja     cb70 <_dl_rtld_di_serinfo@@GLIBC_PRIVATE+0x36f0>
    c5fd:	48 8d 3d bc 25 01 00 	lea    rdi,[rip+0x125bc]        # 1ebc0 <realloc@@GLIBC_2.2.5+0x4c90>
    c604:	4a 63 14 b7          	movsxd rdx,DWORD PTR [rdi+r14*4]
    c608:	48 01 fa             	add    rdx,rdi
    c60b:	ff e2                	jmp    rdx
    c60d:	0f 1f 00             	nop    DWORD PTR [rax]
    c610:	49 83 bb 00 01 00 00 	cmp    QWORD PTR [r11+0x100],0x0
    c617:	00 
    c618:	0f 84 e4 fa ff ff    	je     c102 <_dl_rtld_di_serinfo@@GLIBC_PRIVATE+0x2c82>
    c61e:	45 31 ed             	xor    r13d,r13d
    c621:	f6 05 78 96 21 00 20 	test   BYTE PTR [rip+0x219678],0x20        # 225ca0 <_rtld_global_ro@@GLIBC_PRIVATE>
    c628:	0f 84 e8 fa ff ff    	je     c116 <_dl_rtld_di_serinfo@@GLIBC_PRIVATE+0x2c96>
    c62e:	48 8d 15 71 30 01 00 	lea    rdx,[rip+0x13071]        # 1f6a6 <realloc@@GLIBC_2.2.5+0x5776>
    c635:	49 8b 73 08          	mov    rsi,QWORD PTR [r11+0x8]
    c639:	80 3e 00             	cmp    BYTE PTR [rsi],0x0
    c63c:	0f 84 d8 0a 00 00    	je     d11a <_dl_rtld_di_serinfo@@GLIBC_PRIVATE+0x3c9a>
    c642:	48 8d 3d 08 35 01 00 	lea    rdi,[rip+0x13508]        # 1fb51 <realloc@@GLIBC_2.2.5+0x5c21>
    c649:	31 c0                	xor    eax,eax
    c64b:	4c 89 9d 68 ff ff ff 	mov    QWORD PTR [rbp-0x98],r11
    c652:	e8 59 4f 00 00       	call   115b0 <_dl_debug_state@@GLIBC_PRIVATE+0x720>
    c657:	4c 8b 9d 68 ff ff ff 	mov    r11,QWORD PTR [rbp-0x98]
    c65e:	e9 b3 fa ff ff       	jmp    c116 <_dl_rtld_di_serinfo@@GLIBC_PRIVATE+0x2c96>
    c663:	0f 1f 44 00 00       	nop    DWORD PTR [rax+rax*1+0x0]
    c668:	48 83 fa 24          	cmp    rdx,0x24
    c66c:	0f 85 85 0c 00 00    	jne    d2f7 <_dl_rtld_di_serinfo@@GLIBC_PRIVATE+0x3e77>
    c672:	48 89 41 08          	mov    QWORD PTR [rcx+0x8],rax
    c676:	49 8b b4 24 90 02 00 	mov    rsi,QWORD PTR [r12+0x290]
    c67d:	00 
    c67e:	49 8b 14 24          	mov    rdx,QWORD PTR [r12]
    c682:	48 03 56 08          	add    rdx,QWORD PTR [rsi+0x8]
    c686:	48 89 11             	mov    QWORD PTR [rcx],rdx
    c689:	e9 66 fc ff ff       	jmp    c2f4 <_dl_rtld_di_serinfo@@GLIBC_PRIVATE+0x2e74>
    c68e:	66 90                	xchg   ax,ax
    c690:	48 89 ce             	mov    rsi,rcx
    c693:	49 2b b4 24 e8 03 00 	sub    rsi,QWORD PTR [r12+0x3e8]
    c69a:	00 
    c69b:	48 8d 14 72          	lea    rdx,[rdx+rsi*2]
    c69f:	48 89 11             	mov    QWORD PTR [rcx],rdx
    c6a2:	e9 4d fc ff ff       	jmp    c2f4 <_dl_rtld_di_serinfo@@GLIBC_PRIVATE+0x2e74>
    c6a7:	66 0f 1f 84 00 00 00 	nop    WORD PTR [rax+rax*1+0x0]
    c6ae:	00 00 
    c6b0:	48 8b 45 80          	mov    rax,QWORD PTR [rbp-0x80]
    c6b4:	48 8b 40 10          	mov    rax,QWORD PTR [rax+0x10]
    c6b8:	48 03 43 10          	add    rax,QWORD PTR [rbx+0x10]
    c6bc:	49 89 02             	mov    QWORD PTR [r10],rax
    c6bf:	90                   	nop
    c6c0:	48 83 c3 18          	add    rbx,0x18
    c6c4:	48 39 9d 68 ff ff ff 	cmp    QWORD PTR [rbp-0x98],rbx
    c6cb:	0f 87 af fd ff ff    	ja     c480 <_dl_rtld_di_serinfo@@GLIBC_PRIVATE+0x3000>
    c6d1:	4d 89 dd             	mov    r13,r11
    c6d4:	4c 8b 9d 20 ff ff ff 	mov    r11,QWORD PTR [rbp-0xe0]
    c6db:	4d 85 db             	test   r11,r11
    c6de:	0f 84 8c fc ff ff    	je     c370 <_dl_rtld_di_serinfo@@GLIBC_PRIVATE+0x2ef0>
    c6e4:	48 8b 85 10 ff ff ff 	mov    rax,QWORD PTR [rbp-0xf0]
    c6eb:	49 39 c3             	cmp    r11,rax
    c6ee:	0f 87 7c fc ff ff    	ja     c370 <_dl_rtld_di_serinfo@@GLIBC_PRIVATE+0x2ef0>
    c6f4:	4d 89 e7             	mov    r15,r12
    c6f7:	4c 89 db             	mov    rbx,r11
    c6fa:	4d 89 ec             	mov    r12,r13
    c6fd:	49 89 c5             	mov    r13,rax
    c700:	eb 13                	jmp    c715 <_dl_rtld_di_serinfo@@GLIBC_PRIVATE+0x3295>
    c702:	66 0f 1f 44 00 00    	nop    WORD PTR [rax+rax*1+0x0]
    c708:	48 83 c3 18          	add    rbx,0x18
    c70c:	4c 39 eb             	cmp    rbx,r13
    c70f:	0f 87 e3 04 00 00    	ja     cbf8 <_dl_rtld_di_serinfo@@GLIBC_PRIVATE+0x3778>
    c715:	48 8b 43 08          	mov    rax,QWORD PTR [rbx+0x8]
    c719:	83 f8 25             	cmp    eax,0x25
    c71c:	75 ea                	jne    c708 <_dl_rtld_di_serinfo@@GLIBC_PRIVATE+0x3288>
    c71e:	48 8b bd 58 ff ff ff 	mov    rdi,QWORD PTR [rbp-0xa8]
    c725:	48 c1 e8 20          	shr    rax,0x20
    c729:	4c 8b 33             	mov    r14,QWORD PTR [rbx]
    c72c:	49 8b b7 e0 02 00 00 	mov    rsi,QWORD PTR [r15+0x2e0]
    c733:	0f b7 0c 47          	movzx  ecx,WORD PTR [rdi+rax*2]
    c737:	48 8b bd 60 ff ff ff 	mov    rdi,QWORD PTR [rbp-0xa0]
    c73e:	48 8d 04 40          	lea    rax,[rax+rax*2]
    c742:	48 8d 14 c7          	lea    rdx,[rdi+rax*8]
    c746:	48 89 55 88          	mov    QWORD PTR [rbp-0x78],rdx
    c74a:	0f b6 42 04          	movzx  eax,BYTE PTR [rdx+0x4]
    c74e:	c0 e8 04             	shr    al,0x4
    c751:	84 c0                	test   al,al
    c753:	0f 84 27 04 00 00    	je     cb80 <_dl_rtld_di_serinfo@@GLIBC_PRIVATE+0x3700>
    c759:	49 3b 97 f8 03 00 00 	cmp    rdx,QWORD PTR [r15+0x3f8]
    c760:	0f 84 31 0d 00 00    	je     d497 <_dl_rtld_di_serinfo@@GLIBC_PRIVATE+0x4017>
    c766:	81 e1 ff 7f 00 00    	and    ecx,0x7fff
    c76c:	41 c7 87 00 04 00 00 	mov    DWORD PTR [r15+0x400],0x0
    c773:	00 00 00 00 
    c777:	49 89 97 f8 03 00 00 	mov    QWORD PTR [r15+0x3f8],rdx
    c77e:	48 8d 04 49          	lea    rax,[rcx+rcx*2]
    c782:	4c 8d 04 c6          	lea    r8,[rsi+rax*8]
    c786:	4d 85 c0             	test   r8,r8
    c789:	74 10                	je     c79b <_dl_rtld_di_serinfo@@GLIBC_PRIVATE+0x331b>
    c78b:	45 8b 58 08          	mov    r11d,DWORD PTR [r8+0x8]
    c78f:	b8 00 00 00 00       	mov    eax,0x0
    c794:	45 85 db             	test   r11d,r11d
    c797:	4c 0f 44 c0          	cmove  r8,rax
    c79b:	8b 3a                	mov    edi,DWORD PTR [rdx]
    c79d:	48 8b 8d 40 ff ff ff 	mov    rcx,QWORD PTR [rbp-0xc0]
    c7a4:	45 31 c9             	xor    r9d,r9d
    c7a7:	48 03 bd 38 ff ff ff 	add    rdi,QWORD PTR [rbp-0xc8]
    c7ae:	48 8b 95 f8 fe ff ff 	mov    rdx,QWORD PTR [rbp-0x108]
    c7b5:	4c 89 fe             	mov    rsi,r15
    c7b8:	6a 00                	push   0x0
    c7ba:	6a 01                	push   0x1
    c7bc:	e8 3f e0 ff ff       	call   a800 <_dl_rtld_di_serinfo@@GLIBC_PRIVATE+0x1380>
    c7c1:	48 8b 55 88          	mov    rdx,QWORD PTR [rbp-0x78]
    c7c5:	49 89 87 08 04 00 00 	mov    QWORD PTR [r15+0x408],rax
    c7cc:	49 89 97 10 04 00 00 	mov    QWORD PTR [r15+0x410],rdx
    c7d3:	41 59                	pop    r9
    c7d5:	41 5a                	pop    r10
    c7d7:	48 85 d2             	test   rdx,rdx
    c7da:	74 14                	je     c7f0 <_dl_rtld_di_serinfo@@GLIBC_PRIVATE+0x3370>
    c7dc:	0f 1f 40 00          	nop    DWORD PTR [rax+0x0]
    c7e0:	0f b6 4a 04          	movzx  ecx,BYTE PTR [rdx+0x4]
    c7e4:	83 e1 0f             	and    ecx,0xf
    c7e7:	80 f9 0a             	cmp    cl,0xa
    c7ea:	0f 84 14 0b 00 00    	je     d304 <_dl_rtld_di_serinfo@@GLIBC_PRIVATE+0x3e84>
    c7f0:	48 8b 43 10          	mov    rax,QWORD PTR [rbx+0x10]
    c7f4:	49 03 07             	add    rax,QWORD PTR [r15]
    c7f7:	ff d0                	call   rax
    c7f9:	4b 89 04 34          	mov    QWORD PTR [r12+r14*1],rax
    c7fd:	e9 06 ff ff ff       	jmp    c708 <_dl_rtld_di_serinfo@@GLIBC_PRIVATE+0x3288>
    c802:	66 0f 1f 44 00 00    	nop    WORD PTR [rax+rax*1+0x0]
    c808:	48 8b 45 80          	mov    rax,QWORD PTR [rbp-0x80]
    c80c:	48 8b 40 10          	mov    rax,QWORD PTR [rax+0x10]
    c810:	48 03 43 10          	add    rax,QWORD PTR [rbx+0x10]
    c814:	be ff ff ff ff       	mov    esi,0xffffffff
    c819:	48 39 f0             	cmp    rax,rsi
    c81c:	41 89 02             	mov    DWORD PTR [r10],eax
    c81f:	0f 86 9b fe ff ff    	jbe    c6c0 <_dl_rtld_di_serinfo@@GLIBC_PRIVATE+0x3240>
    c825:	48 8d 35 ac 4e 01 00 	lea    rsi,[rip+0x14eac]        # 216d8 <realloc@@GLIBC_2.2.5+0x77a8>
    c82c:	49 8b 44 24 68       	mov    rax,QWORD PTR [r12+0x68]
    c831:	41 8b 0f             	mov    ecx,DWORD PTR [r15]
    c834:	48 8d 15 75 2b 01 00 	lea    rdx,[rip+0x12b75]        # 1f3b0 <realloc@@GLIBC_2.2.5+0x5480>
    c83b:	bf 02 00 00 00       	mov    edi,0x2
    c840:	4c 89 9d 30 ff ff ff 	mov    QWORD PTR [rbp-0xd0],r11
    c847:	48 03 48 08          	add    rcx,QWORD PTR [rax+0x8]
    c84b:	48 8b 05 2e 94 21 00 	mov    rax,QWORD PTR [rip+0x21942e]        # 225c80 <_dl_argv@@GLIBC_PRIVATE>
    c852:	48 8b 00             	mov    rax,QWORD PTR [rax]
    c855:	48 85 c0             	test   rax,rax
    c858:	48 0f 45 d0          	cmovne rdx,rax
    c85c:	31 c0                	xor    eax,eax
    c85e:	e8 ad 4e 00 00       	call   11710 <_dl_debug_state@@GLIBC_PRIVATE+0x880>
    c863:	4c 8b 9d 30 ff ff ff 	mov    r11,QWORD PTR [rbp-0xd0]
    c86a:	e9 51 fe ff ff       	jmp    c6c0 <_dl_rtld_di_serinfo@@GLIBC_PRIVATE+0x3240>
    c86f:	90                   	nop
    c870:	48 83 bd 20 ff ff ff 	cmp    QWORD PTR [rbp-0xe0],0x0
    c877:	00 
    c878:	0f 84 62 03 00 00    	je     cbe0 <_dl_rtld_di_serinfo@@GLIBC_PRIVATE+0x3760>
    c87e:	48 89 9d 10 ff ff ff 	mov    QWORD PTR [rbp-0xf0],rbx
    c885:	e9 36 fe ff ff       	jmp    c6c0 <_dl_rtld_di_serinfo@@GLIBC_PRIVATE+0x3240>
    c88a:	66 0f 1f 44 00 00    	nop    WORD PTR [rax+rax*1+0x0]
    c890:	4c 89 fa             	mov    rdx,r15
    c893:	4c 89 e1             	mov    rcx,r12
    c896:	e9 40 fd ff ff       	jmp    c5db <_dl_rtld_di_serinfo@@GLIBC_PRIVATE+0x315b>
    c89b:	0f 1f 44 00 00       	nop    DWORD PTR [rax+rax*1+0x0]
    c8a0:	48 8b 43 10          	mov    rax,QWORD PTR [rbx+0x10]
    c8a4:	49 03 04 24          	add    rax,QWORD PTR [r12]
    c8a8:	49 89 02             	mov    QWORD PTR [r10],rax
    c8ab:	e9 10 fe ff ff       	jmp    c6c0 <_dl_rtld_di_serinfo@@GLIBC_PRIVATE+0x3240>
    c8b0:	49 83 fe 05          	cmp    r14,0x5
    c8b4:	b8 01 00 00 00       	mov    eax,0x1
    c8b9:	0f 85 78 fc ff ff    	jne    c537 <_dl_rtld_di_serinfo@@GLIBC_PRIVATE+0x30b7>
    c8bf:	83 c8 02             	or     eax,0x2
    c8c2:	45 31 c9             	xor    r9d,r9d
    c8c5:	e9 7c fc ff ff       	jmp    c546 <_dl_rtld_di_serinfo@@GLIBC_PRIVATE+0x30c6>
    c8ca:	66 0f 1f 44 00 00    	nop    WORD PTR [rax+rax*1+0x0]
    c8d0:	49 8b 04 24          	mov    rax,QWORD PTR [r12]
    c8d4:	48 03 43 10          	add    rax,QWORD PTR [rbx+0x10]
    c8d8:	48 8b 13             	mov    rdx,QWORD PTR [rbx]
    c8db:	4a 89 04 2a          	mov    QWORD PTR [rdx+r13*1],rax
    c8df:	48 83 c3 18          	add    rbx,0x18
    c8e3:	4c 39 f3             	cmp    rbx,r14
    c8e6:	0f 87 84 fa ff ff    	ja     c370 <_dl_rtld_di_serinfo@@GLIBC_PRIVATE+0x2ef0>
    c8ec:	83 7b 08 25          	cmp    DWORD PTR [rbx+0x8],0x25
    c8f0:	75 ed                	jne    c8df <_dl_rtld_di_serinfo@@GLIBC_PRIVATE+0x345f>
    c8f2:	eb dc                	jmp    c8d0 <_dl_rtld_di_serinfo@@GLIBC_PRIVATE+0x3450>
    c8f4:	0f 1f 40 00          	nop    DWORD PTR [rax+0x0]
    c8f8:	49 83 bc 24 38 02 00 	cmp    QWORD PTR [r12+0x238],0x0
    c8ff:	00 00 
    c901:	0f 85 35 fb ff ff    	jne    c43c <_dl_rtld_di_serinfo@@GLIBC_PRIVATE+0x2fbc>
    c907:	e9 fd fa ff ff       	jmp    c409 <_dl_rtld_di_serinfo@@GLIBC_PRIVATE+0x2f89>
    c90c:	0f 1f 40 00          	nop    DWORD PTR [rax+0x0]
    c910:	48 29 f8             	sub    rax,rdi
    c913:	45 85 ed             	test   r13d,r13d
    c916:	48 89 45 98          	mov    QWORD PTR [rbp-0x68],rax
    c91a:	4c 8d 04 08          	lea    r8,[rax+rcx*1]
    c91e:	0f 85 16 f9 ff ff    	jne    c23a <_dl_rtld_di_serinfo@@GLIBC_PRIVATE+0x2dba>
    c924:	e9 08 f9 ff ff       	jmp    c231 <_dl_rtld_di_serinfo@@GLIBC_PRIVATE+0x2db1>
    c929:	0f 1f 80 00 00 00 00 	nop    DWORD PTR [rax+0x0]
    c930:	48 8b 75 80          	mov    rsi,QWORD PTR [rbp-0x80]
    c934:	48 85 f6             	test   rsi,rsi
    c937:	0f 84 88 0b 00 00    	je     d4c5 <_dl_rtld_di_serinfo@@GLIBC_PRIVATE+0x4045>
    c93d:	48 8b 91 40 04 00 00 	mov    rdx,QWORD PTR [rcx+0x440]
    c944:	48 83 fa ff          	cmp    rdx,0xffffffffffffffff
    c948:	0f 84 95 0b 00 00    	je     d4e3 <_dl_rtld_di_serinfo@@GLIBC_PRIVATE+0x4063>
    c94e:	48 85 d2             	test   rdx,rdx
    c951:	0f 84 d8 0c 00 00    	je     d62f <_dl_rtld_di_serinfo@@GLIBC_PRIVATE+0x41af>
    c957:	48 8b 43 10          	mov    rax,QWORD PTR [rbx+0x10]
    c95b:	48 03 46 08          	add    rax,QWORD PTR [rsi+0x8]
    c95f:	48 29 d0             	sub    rax,rdx
    c962:	49 89 42 08          	mov    QWORD PTR [r10+0x8],rax
    c966:	48 8d 05 13 c5 00 00 	lea    rax,[rip+0xc513]        # 18e80 <_dl_find_dso_for_object@@GLIBC_PRIVATE+0x4460>
    c96d:	49 89 02             	mov    QWORD PTR [r10],rax
    c970:	e9 4b fd ff ff       	jmp    c6c0 <_dl_rtld_di_serinfo@@GLIBC_PRIVATE+0x3240>
    c975:	0f 1f 00             	nop    DWORD PTR [rax]
    c978:	48 8b 75 80          	mov    rsi,QWORD PTR [rbp-0x80]
    c97c:	48 85 f6             	test   rsi,rsi
    c97f:	0f 84 3b fd ff ff    	je     c6c0 <_dl_rtld_di_serinfo@@GLIBC_PRIVATE+0x3240>
    c985:	48 8b 81 40 04 00 00 	mov    rax,QWORD PTR [rcx+0x440]
    c98c:	48 8d 78 01          	lea    rdi,[rax+0x1]
    c990:	48 89 c2             	mov    rdx,rax
    c993:	48 83 ff 01          	cmp    rdi,0x1
    c997:	0f 86 50 0c 00 00    	jbe    d5ed <_dl_rtld_di_serinfo@@GLIBC_PRIVATE+0x416d>
    c99d:	48 8b 43 10          	mov    rax,QWORD PTR [rbx+0x10]
    c9a1:	48 03 46 08          	add    rax,QWORD PTR [rsi+0x8]
    c9a5:	48 29 d0             	sub    rax,rdx
    c9a8:	49 89 02             	mov    QWORD PTR [r10],rax
    c9ab:	e9 10 fd ff ff       	jmp    c6c0 <_dl_rtld_di_serinfo@@GLIBC_PRIVATE+0x3240>
    c9b0:	48 8b 55 80          	mov    rdx,QWORD PTR [rbp-0x80]
    c9b4:	48 85 d2             	test   rdx,rdx
    c9b7:	0f 84 03 fd ff ff    	je     c6c0 <_dl_rtld_di_serinfo@@GLIBC_PRIVATE+0x3240>
    c9bd:	48 8b 43 10          	mov    rax,QWORD PTR [rbx+0x10]
    c9c1:	48 03 42 08          	add    rax,QWORD PTR [rdx+0x8]
    c9c5:	49 89 02             	mov    QWORD PTR [r10],rax
    c9c8:	e9 f3 fc ff ff       	jmp    c6c0 <_dl_rtld_di_serinfo@@GLIBC_PRIVATE+0x3240>
    c9cd:	0f 1f 00             	nop    DWORD PTR [rax]
    c9d0:	48 85 c9             	test   rcx,rcx
    c9d3:	0f 84 e7 fc ff ff    	je     c6c0 <_dl_rtld_di_serinfo@@GLIBC_PRIVATE+0x3240>
    c9d9:	48 8b 81 48 04 00 00 	mov    rax,QWORD PTR [rcx+0x448]
    c9e0:	49 89 02             	mov    QWORD PTR [r10],rax
    c9e3:	e9 d8 fc ff ff       	jmp    c6c0 <_dl_rtld_di_serinfo@@GLIBC_PRIVATE+0x3240>
    c9e8:	0f 1f 84 00 00 00 00 	nop    DWORD PTR [rax+rax*1+0x0]
    c9ef:	00 
    c9f0:	48 8b 43 10          	mov    rax,QWORD PTR [rbx+0x10]
    c9f4:	49 03 04 24          	add    rax,QWORD PTR [r12]
    c9f8:	4c 89 9d 28 ff ff ff 	mov    QWORD PTR [rbp-0xd8],r11
    c9ff:	4c 89 95 30 ff ff ff 	mov    QWORD PTR [rbp-0xd0],r10
    ca06:	ff d0                	call   rax
    ca08:	4c 8b 95 30 ff ff ff 	mov    r10,QWORD PTR [rbp-0xd0]
    ca0f:	49 89 02             	mov    QWORD PTR [r10],rax
    ca12:	4c 8b 9d 28 ff ff ff 	mov    r11,QWORD PTR [rbp-0xd8]
    ca19:	e9 a2 fc ff ff       	jmp    c6c0 <_dl_rtld_di_serinfo@@GLIBC_PRIVATE+0x3240>
    ca1e:	66 90                	xchg   ax,ax
    ca20:	4c 8b 6d 80          	mov    r13,QWORD PTR [rbp-0x80]
    ca24:	4d 85 ed             	test   r13,r13
    ca27:	0f 84 93 fc ff ff    	je     c6c0 <_dl_rtld_di_serinfo@@GLIBC_PRIVATE+0x3240>
    ca2d:	49 8b 55 10          	mov    rdx,QWORD PTR [r13+0x10]
    ca31:	49 39 57 10          	cmp    QWORD PTR [r15+0x10],rdx
    ca35:	48 89 c6             	mov    rsi,rax
    ca38:	49 0f 46 57 10       	cmovbe rdx,QWORD PTR [r15+0x10]
    ca3d:	4c 89 d7             	mov    rdi,r10
    ca40:	4c 89 9d 30 ff ff ff 	mov    QWORD PTR [rbp-0xd0],r11
    ca47:	e8 04 13 01 00       	call   1dd50 <realloc@@GLIBC_2.2.5+0x3e20>
    ca4c:	49 8b 47 10          	mov    rax,QWORD PTR [r15+0x10]
    ca50:	49 39 45 10          	cmp    QWORD PTR [r13+0x10],rax
    ca54:	4c 8b 9d 30 ff ff ff 	mov    r11,QWORD PTR [rbp-0xd0]
    ca5b:	77 16                	ja     ca73 <_dl_rtld_di_serinfo@@GLIBC_PRIVATE+0x35f3>
    ca5d:	0f 83 5d fc ff ff    	jae    c6c0 <_dl_rtld_di_serinfo@@GLIBC_PRIVATE+0x3240>
    ca63:	44 8b 2d 72 92 21 00 	mov    r13d,DWORD PTR [rip+0x219272]        # 225cdc <_rtld_global_ro@@GLIBC_PRIVATE+0x3c>
    ca6a:	45 85 ed             	test   r13d,r13d
    ca6d:	0f 84 4d fc ff ff    	je     c6c0 <_dl_rtld_di_serinfo@@GLIBC_PRIVATE+0x3240>
    ca73:	48 8d 35 de 4c 01 00 	lea    rsi,[rip+0x14cde]        # 21758 <realloc@@GLIBC_2.2.5+0x7828>
    ca7a:	e9 ad fd ff ff       	jmp    c82c <_dl_rtld_di_serinfo@@GLIBC_PRIVATE+0x33ac>
    ca7f:	90                   	nop
    ca80:	4c 29 d0             	sub    rax,r10
    ca83:	48 03 43 10          	add    rax,QWORD PTR [rbx+0x10]
    ca87:	48 63 d0             	movsxd rdx,eax
    ca8a:	41 89 02             	mov    DWORD PTR [r10],eax
    ca8d:	48 39 d0             	cmp    rax,rdx
    ca90:	0f 84 2a fc ff ff    	je     c6c0 <_dl_rtld_di_serinfo@@GLIBC_PRIVATE+0x3240>
    ca96:	48 8d 35 7b 4c 01 00 	lea    rsi,[rip+0x14c7b]        # 21718 <realloc@@GLIBC_2.2.5+0x77e8>
    ca9d:	e9 8a fd ff ff       	jmp    c82c <_dl_rtld_di_serinfo@@GLIBC_PRIVATE+0x33ac>
    caa2:	66 0f 1f 44 00 00    	nop    WORD PTR [rax+rax*1+0x0]
    caa8:	49 8b 8b 58 04 00 00 	mov    rcx,QWORD PTR [r11+0x458]
    caaf:	49 03 0b             	add    rcx,QWORD PTR [r11]
    cab2:	48 8b 05 ff 91 21 00 	mov    rax,QWORD PTR [rip+0x2191ff]        # 225cb8 <_rtld_global_ro@@GLIBC_PRIVATE+0x18>
    cab9:	4c 89 9d 68 ff ff ff 	mov    QWORD PTR [rbp-0x98],r11
    cac0:	48 f7 d8             	neg    rax
    cac3:	48 01 ce             	add    rsi,rcx
    cac6:	48 89 cf             	mov    rdi,rcx
    cac9:	48 21 c7             	and    rdi,rax
    cacc:	48 21 f0             	and    rax,rsi
    cacf:	48 39 c7             	cmp    rdi,rax
    cad2:	0f 84 ed f8 ff ff    	je     c3c5 <_dl_rtld_di_serinfo@@GLIBC_PRIVATE+0x2f45>
    cad8:	48 29 f8             	sub    rax,rdi
    cadb:	ba 01 00 00 00       	mov    edx,0x1
    cae0:	48 89 c6             	mov    rsi,rax
    cae3:	e8 58 e8 00 00       	call   1b340 <realloc@@GLIBC_2.2.5+0x1410>
    cae8:	85 c0                	test   eax,eax
    caea:	4c 8b 9d 68 ff ff ff 	mov    r11,QWORD PTR [rbp-0x98]
    caf1:	0f 89 ce f8 ff ff    	jns    c3c5 <_dl_rtld_di_serinfo@@GLIBC_PRIVATE+0x2f45>
    caf7:	49 8b 73 08          	mov    rsi,QWORD PTR [r11+0x8]
    cafb:	8b 3d 1f a6 21 00    	mov    edi,DWORD PTR [rip+0x21a61f]        # 227120 <_rtld_global@@GLIBC_PRIVATE+0x10e0>
    cb01:	48 8d 0d 98 5b 01 00 	lea    rcx,[rip+0x15b98]        # 226a0 <realloc@@GLIBC_2.2.5+0x8770>
    cb08:	31 d2                	xor    edx,edx
    cb0a:	e8 e1 35 00 00       	call   100f0 <_dl_rtld_di_serinfo@@GLIBC_PRIVATE+0x6c70>
    cb0f:	90                   	nop
    cb10:	49 03 03             	add    rax,QWORD PTR [r11]
    cb13:	49 89 83 e0 03 00 00 	mov    QWORD PTR [r11+0x3e0],rax
    cb1a:	48 8d 42 18          	lea    rax,[rdx+0x18]
    cb1e:	49 89 83 e8 03 00 00 	mov    QWORD PTR [r11+0x3e8],rax
    cb25:	e9 3d f6 ff ff       	jmp    c167 <_dl_rtld_di_serinfo@@GLIBC_PRIVATE+0x2ce7>
    cb2a:	66 0f 1f 44 00 00    	nop    WORD PTR [rax+rax*1+0x0]
    cb30:	a8 40                	test   al,0x40
    cb32:	48 8d 0d 67 ab 00 00 	lea    rcx,[rip+0xab67]        # 176a0 <_dl_find_dso_for_object@@GLIBC_PRIVATE+0x2c80>
    cb39:	48 8d 05 40 b1 00 00 	lea    rax,[rip+0xb140]        # 17c80 <_dl_find_dso_for_object@@GLIBC_PRIVATE+0x3260>
    cb40:	48 0f 45 c1          	cmovne rax,rcx
    cb44:	48 89 42 10          	mov    QWORD PTR [rdx+0x10],rax
    cb48:	49 8b 83 88 02 00 00 	mov    rax,QWORD PTR [r11+0x288]
    cb4f:	48 85 c0             	test   rax,rax
    cb52:	0f 85 47 f6 ff ff    	jne    c19f <_dl_rtld_di_serinfo@@GLIBC_PRIVATE+0x2d1f>
    cb58:	e9 58 f6 ff ff       	jmp    c1b5 <_dl_rtld_di_serinfo@@GLIBC_PRIVATE+0x2d35>
    cb5d:	0f 1f 00             	nop    DWORD PTR [rax]
    cb60:	48 01 f8             	add    rax,rdi
    cb63:	48 89 45 98          	mov    QWORD PTR [rbp-0x68],rax
    cb67:	e9 da f6 ff ff       	jmp    c246 <_dl_rtld_di_serinfo@@GLIBC_PRIVATE+0x2dc6>
    cb6c:	0f 1f 40 00          	nop    DWORD PTR [rax+0x0]
    cb70:	31 d2                	xor    edx,edx
    cb72:	44 89 ee             	mov    esi,r13d
    cb75:	4c 89 e7             	mov    rdi,r12
    cb78:	e8 53 f4 ff ff       	call   bfd0 <_dl_rtld_di_serinfo@@GLIBC_PRIVATE+0x2b50>
    cb7d:	0f 1f 00             	nop    DWORD PTR [rax]
    cb80:	4c 89 f8             	mov    rax,r15
    cb83:	e9 58 fc ff ff       	jmp    c7e0 <_dl_rtld_di_serinfo@@GLIBC_PRIVATE+0x3360>
    cb88:	0f 1f 84 00 00 00 00 	nop    DWORD PTR [rax+rax*1+0x0]
    cb8f:	00 
    cb90:	66 83 7a 06 00       	cmp    WORD PTR [rdx+0x6],0x0
    cb95:	0f 84 58 fa ff ff    	je     c5f3 <_dl_rtld_di_serinfo@@GLIBC_PRIVATE+0x3173>
    cb9b:	8b 95 48 ff ff ff    	mov    edx,DWORD PTR [rbp-0xb8]
    cba1:	85 d2                	test   edx,edx
    cba3:	0f 85 4a fa ff ff    	jne    c5f3 <_dl_rtld_di_serinfo@@GLIBC_PRIVATE+0x3173>
    cba9:	4c 89 9d e0 fe ff ff 	mov    QWORD PTR [rbp-0x120],r11
    cbb0:	48 89 8d 28 ff ff ff 	mov    QWORD PTR [rbp-0xd8],rcx
    cbb7:	4c 89 95 30 ff ff ff 	mov    QWORD PTR [rbp-0xd0],r10
    cbbe:	ff d0                	call   rax
    cbc0:	4c 8b 9d e0 fe ff ff 	mov    r11,QWORD PTR [rbp-0x120]
    cbc7:	48 8b 8d 28 ff ff ff 	mov    rcx,QWORD PTR [rbp-0xd8]
    cbce:	4c 8b 95 30 ff ff ff 	mov    r10,QWORD PTR [rbp-0xd0]
    cbd5:	e9 19 fa ff ff       	jmp    c5f3 <_dl_rtld_di_serinfo@@GLIBC_PRIVATE+0x3173>
    cbda:	66 0f 1f 44 00 00    	nop    WORD PTR [rax+rax*1+0x0]
    cbe0:	48 89 9d 10 ff ff ff 	mov    QWORD PTR [rbp-0xf0],rbx
    cbe7:	48 89 9d 20 ff ff ff 	mov    QWORD PTR [rbp-0xe0],rbx
    cbee:	e9 cd fa ff ff       	jmp    c6c0 <_dl_rtld_di_serinfo@@GLIBC_PRIVATE+0x3240>
    cbf3:	0f 1f 44 00 00       	nop    DWORD PTR [rax+rax*1+0x0]
    cbf8:	4d 89 fc             	mov    r12,r15
    cbfb:	e9 70 f7 ff ff       	jmp    c370 <_dl_rtld_di_serinfo@@GLIBC_PRIVATE+0x2ef0>
    cc00:	48 89 c7             	mov    rdi,rax
    cc03:	e9 96 f6 ff ff       	jmp    c29e <_dl_rtld_di_serinfo@@GLIBC_PRIVATE+0x2e1e>
    cc08:	0f 1f 84 00 00 00 00 	nop    DWORD PTR [rax+rax*1+0x0]
    cc0f:	00 
    cc10:	45 31 c0             	xor    r8d,r8d
    cc13:	31 c0                	xor    eax,eax
    cc15:	31 c9                	xor    ecx,ecx
    cc17:	e9 e6 f5 ff ff       	jmp    c202 <_dl_rtld_di_serinfo@@GLIBC_PRIVATE+0x2d82>
    cc1c:	0f 1f 40 00          	nop    DWORD PTR [rax+0x0]
    cc20:	49 83 fe 24          	cmp    r14,0x24
    cc24:	76 34                	jbe    cc5a <_dl_rtld_di_serinfo@@GLIBC_PRIVATE+0x37da>
    cc26:	31 ff                	xor    edi,edi
    cc28:	b8 04 00 00 00       	mov    eax,0x4
    cc2d:	49 83 fe 06          	cmp    r14,0x6
    cc31:	74 69                	je     cc9c <_dl_rtld_di_serinfo@@GLIBC_PRIVATE+0x381c>
    cc33:	41 39 bc 24 00 04 00 	cmp    DWORD PTR [r12+0x400],edi
    cc3a:	00 
    cc3b:	74 6d                	je     ccaa <_dl_rtld_di_serinfo@@GLIBC_PRIVATE+0x382a>
    cc3d:	49 83 fe 10          	cmp    r14,0x10
    cc41:	74 0a                	je     cc4d <_dl_rtld_di_serinfo@@GLIBC_PRIVATE+0x37cd>
    cc43:	49 83 fe 07          	cmp    r14,0x7
    cc47:	0f 85 c6 f8 ff ff    	jne    c513 <_dl_rtld_di_serinfo@@GLIBC_PRIVATE+0x3093>
    cc4d:	45 31 c9             	xor    r9d,r9d
    cc50:	b8 01 00 00 00       	mov    eax,0x1
    cc55:	e9 ec f8 ff ff       	jmp    c546 <_dl_rtld_di_serinfo@@GLIBC_PRIVATE+0x30c6>
    cc5a:	44 89 e9             	mov    ecx,r13d
    cc5d:	48 b8 80 00 07 00 10 	movabs rax,0x1000070080
    cc64:	00 00 00 
    cc67:	48 d3 e8             	shr    rax,cl
    cc6a:	83 e0 01             	and    eax,0x1
    cc6d:	48 83 f0 01          	xor    rax,0x1
    cc71:	89 c7                	mov    edi,eax
    cc73:	f7 d8                	neg    eax
    cc75:	83 e7 01             	and    edi,0x1
    cc78:	83 c0 03             	add    eax,0x3
    cc7b:	89 f9                	mov    ecx,edi
    cc7d:	c1 e1 1f             	shl    ecx,0x1f
    cc80:	c1 f9 1f             	sar    ecx,0x1f
    cc83:	83 c1 05             	add    ecx,0x5
    cc86:	40 80 ff 01          	cmp    dil,0x1
    cc8a:	40 0f 92 c7          	setb   dil
    cc8e:	49 83 fe 05          	cmp    r14,0x5
    cc92:	40 0f b6 ff          	movzx  edi,dil
    cc96:	0f 85 40 08 00 00    	jne    d4dc <_dl_rtld_di_serinfo@@GLIBC_PRIVATE+0x405c>
    cc9c:	41 39 84 24 00 04 00 	cmp    DWORD PTR [r12+0x400],eax
    cca3:	00 
    cca4:	0f 85 69 f8 ff ff    	jne    c513 <_dl_rtld_di_serinfo@@GLIBC_PRIVATE+0x3093>
    ccaa:	49 8b 94 24 10 04 00 	mov    rdx,QWORD PTR [r12+0x410]
    ccb1:	00 
    ccb2:	48 83 05 06 9d 21 00 	add    QWORD PTR [rip+0x219d06],0x1        # 2269c0 <_rtld_global@@GLIBC_PRIVATE+0x980>
    ccb9:	01 
    ccba:	49 8b 8c 24 08 04 00 	mov    rcx,QWORD PTR [r12+0x408]
    ccc1:	00 
    ccc2:	48 89 55 80          	mov    QWORD PTR [rbp-0x80],rdx
    ccc6:	e9 09 f9 ff ff       	jmp    c5d4 <_dl_rtld_di_serinfo@@GLIBC_PRIVATE+0x3154>
    cccb:	41 0f b7 93 b0 02 00 	movzx  edx,WORD PTR [r11+0x2b0]
    ccd2:	00 
    ccd3:	49 8b 9b a0 02 00 00 	mov    rbx,QWORD PTR [r11+0x2a0]
    ccda:	48 8d 0c d5 00 00 00 	lea    rcx,[rdx*8+0x0]
    cce1:	00 
    cce2:	48 89 d0             	mov    rax,rdx
    cce5:	48 c1 e0 06          	shl    rax,0x6
    cce9:	48 29 c8             	sub    rax,rcx
    ccec:	48 01 d8             	add    rax,rbx
    ccef:	48 39 c3             	cmp    rbx,rax
    ccf2:	0f 83 37 f4 ff ff    	jae    c12f <_dl_rtld_di_serinfo@@GLIBC_PRIVATE+0x2caf>
    ccf8:	44 89 a5 60 ff ff ff 	mov    DWORD PTR [rbp-0xa0],r12d
    ccff:	48 89 d9             	mov    rcx,rbx
    cd02:	49 be ff ff ff ff 02 	movabs r14,0x2ffffffff
    cd09:	00 00 00 
    cd0c:	45 31 ff             	xor    r15d,r15d
    cd0f:	44 89 ad 68 ff ff ff 	mov    DWORD PTR [rbp-0x98],r13d
    cd16:	4d 89 dc             	mov    r12,r11
    cd19:	eb 27                	jmp    cd42 <_dl_rtld_di_serinfo@@GLIBC_PRIVATE+0x38c2>
    cd1b:	0f 1f 44 00 00       	nop    DWORD PTR [rax+rax*1+0x0]
    cd20:	48 8d 34 d5 00 00 00 	lea    rsi,[rdx*8+0x0]
    cd27:	00 
    cd28:	48 89 d0             	mov    rax,rdx
    cd2b:	48 83 c3 38          	add    rbx,0x38
    cd2f:	48 c1 e0 06          	shl    rax,0x6
    cd33:	48 29 f0             	sub    rax,rsi
    cd36:	48 01 c8             	add    rax,rcx
    cd39:	48 39 c3             	cmp    rbx,rax
    cd3c:	0f 83 93 00 00 00    	jae    cdd5 <_dl_rtld_di_serinfo@@GLIBC_PRIVATE+0x3955>
    cd42:	4c 89 f0             	mov    rax,r14
    cd45:	48 23 03             	and    rax,QWORD PTR [rbx]
    cd48:	48 83 f8 01          	cmp    rax,0x1
    cd4c:	75 d2                	jne    cd20 <_dl_rtld_di_serinfo@@GLIBC_PRIVATE+0x38a0>
    cd4e:	48 8b 4b 10          	mov    rcx,QWORD PTR [rbx+0x10]
    cd52:	48 8b 15 5f 8f 21 00 	mov    rdx,QWORD PTR [rip+0x218f5f]        # 225cb8 <_rtld_global_ro@@GLIBC_PRIVATE+0x18>
    cd59:	48 83 ec 30          	sub    rsp,0x30
    cd5d:	4c 8d 44 24 0f       	lea    r8,[rsp+0xf]
    cd62:	48 8d 74 11 ff       	lea    rsi,[rcx+rdx*1-0x1]
    cd67:	48 03 73 28          	add    rsi,QWORD PTR [rbx+0x28]
    cd6b:	48 89 d0             	mov    rax,rdx
    cd6e:	48 f7 d8             	neg    rax
    cd71:	48 89 cf             	mov    rdi,rcx
    cd74:	49 83 e0 f0          	and    r8,0xfffffffffffffff0
    cd78:	48 21 c7             	and    rdi,rax
    cd7b:	ba 03 00 00 00       	mov    edx,0x3
    cd80:	4d 89 c5             	mov    r13,r8
    cd83:	48 21 c6             	and    rsi,rax
    cd86:	48 29 fe             	sub    rsi,rdi
    cd89:	49 03 3c 24          	add    rdi,QWORD PTR [r12]
    cd8d:	49 89 70 08          	mov    QWORD PTR [r8+0x8],rsi
    cd91:	49 89 38             	mov    QWORD PTR [r8],rdi
    cd94:	e8 a7 e5 00 00       	call   1b340 <realloc@@GLIBC_2.2.5+0x1410>
    cd99:	85 c0                	test   eax,eax
    cd9b:	0f 88 d0 0b 00 00    	js     d971 <_dl_rtld_di_serinfo@@GLIBC_PRIVATE+0x44f1>
    cda1:	8b 4b 04             	mov    ecx,DWORD PTR [rbx+0x4]
    cda4:	b8 40 62 51 73       	mov    eax,0x73516240
    cda9:	4d 89 7d 18          	mov    QWORD PTR [r13+0x18],r15
    cdad:	41 0f b7 94 24 b0 02 	movzx  edx,WORD PTR [r12+0x2b0]
    cdb4:	00 00 
    cdb6:	4d 89 ef             	mov    r15,r13
    cdb9:	83 e1 07             	and    ecx,0x7
    cdbc:	c1 e1 02             	shl    ecx,0x2
    cdbf:	d3 f8                	sar    eax,cl
    cdc1:	49 8b 8c 24 a0 02 00 	mov    rcx,QWORD PTR [r12+0x2a0]
    cdc8:	00 
    cdc9:	83 e0 0f             	and    eax,0xf
    cdcc:	41 89 45 10          	mov    DWORD PTR [r13+0x10],eax
    cdd0:	e9 4b ff ff ff       	jmp    cd20 <_dl_rtld_di_serinfo@@GLIBC_PRIVATE+0x38a0>
    cdd5:	4d 89 e3             	mov    r11,r12
    cdd8:	4c 89 bd 08 ff ff ff 	mov    QWORD PTR [rbp-0xf8],r15
    cddf:	44 8b ad 68 ff ff ff 	mov    r13d,DWORD PTR [rbp-0x98]
    cde6:	44 8b a5 60 ff ff ff 	mov    r12d,DWORD PTR [rbp-0xa0]
    cded:	e9 3d f3 ff ff       	jmp    c12f <_dl_rtld_di_serinfo@@GLIBC_PRIVATE+0x2caf>
    cdf2:	45 85 ed             	test   r13d,r13d
    cdf5:	48 8d 15 aa 28 01 00 	lea    rdx,[rip+0x128aa]        # 1f6a6 <realloc@@GLIBC_2.2.5+0x5776>
    cdfc:	0f 84 33 f8 ff ff    	je     c635 <_dl_rtld_di_serinfo@@GLIBC_PRIVATE+0x31b5>
    ce02:	41 bd 01 00 00 00    	mov    r13d,0x1
    ce08:	48 8d 15 3a 2d 01 00 	lea    rdx,[rip+0x12d3a]        # 1fb49 <realloc@@GLIBC_2.2.5+0x5c19>
    ce0f:	e9 21 f8 ff ff       	jmp    c635 <_dl_rtld_di_serinfo@@GLIBC_PRIVATE+0x31b5>
    ce14:	45 31 d2             	xor    r10d,r10d
    ce17:	48 39 9d 68 ff ff ff 	cmp    QWORD PTR [rbp-0x98],rbx
    ce1e:	48 c7 85 20 ff ff ff 	mov    QWORD PTR [rbp-0xe0],0x0
    ce25:	00 00 00 00 
    ce29:	0f 86 41 f5 ff ff    	jbe    c370 <_dl_rtld_di_serinfo@@GLIBC_PRIVATE+0x2ef0>
    ce2f:	4c 89 ad 58 ff ff ff 	mov    QWORD PTR [rbp-0xa8],r13
    ce36:	4c 89 95 28 ff ff ff 	mov    QWORD PTR [rbp-0xd8],r10
    ce3d:	0f 1f 00             	nop    DWORD PTR [rax]
    ce40:	4c 8b 6b 08          	mov    r13,QWORD PTR [rbx+0x8]
    ce44:	45 89 ee             	mov    r14d,r13d
    ce47:	49 83 fe 25          	cmp    r14,0x25
    ce4b:	0f 84 77 02 00 00    	je     d0c8 <_dl_rtld_di_serinfo@@GLIBC_PRIVATE+0x3c48>
    ce51:	4c 89 e8             	mov    rax,r13
    ce54:	48 8b bd 60 ff ff ff 	mov    rdi,QWORD PTR [rbp-0xa0]
    ce5b:	4c 8b 95 58 ff ff ff 	mov    r10,QWORD PTR [rbp-0xa8]
    ce62:	48 c1 e8 20          	shr    rax,0x20
    ce66:	4c 03 13             	add    r10,QWORD PTR [rbx]
    ce69:	49 83 fe 08          	cmp    r14,0x8
    ce6d:	48 8d 04 40          	lea    rax,[rax+rax*2]
    ce71:	4c 8d 3c c7          	lea    r15,[rdi+rax*8]
    ce75:	4c 89 bd 78 ff ff ff 	mov    QWORD PTR [rbp-0x88],r15
    ce7c:	0f 84 76 02 00 00    	je     d0f8 <_dl_rtld_di_serinfo@@GLIBC_PRIVATE+0x3c78>
    ce82:	49 83 fe 26          	cmp    r14,0x26
    ce86:	0f 84 6c 02 00 00    	je     d0f8 <_dl_rtld_di_serinfo@@GLIBC_PRIVATE+0x3c78>
    ce8c:	4d 85 f6             	test   r14,r14
    ce8f:	0f 84 1b 01 00 00    	je     cfb0 <_dl_rtld_di_serinfo@@GLIBC_PRIVATE+0x3b30>
    ce95:	41 0f b6 47 04       	movzx  eax,BYTE PTR [r15+0x4]
    ce9a:	c0 e8 04             	shr    al,0x4
    ce9d:	84 c0                	test   al,al
    ce9f:	0f 84 43 02 00 00    	je     d0e8 <_dl_rtld_di_serinfo@@GLIBC_PRIVATE+0x3c68>
    cea5:	4d 3b bc 24 f8 03 00 	cmp    r15,QWORD PTR [r12+0x3f8]
    ceac:	00 
    cead:	0f 84 72 06 00 00    	je     d525 <_dl_rtld_di_serinfo@@GLIBC_PRIVATE+0x40a5>
    ceb3:	49 83 fe 07          	cmp    r14,0x7
    ceb7:	0f 84 53 02 00 00    	je     d110 <_dl_rtld_di_serinfo@@GLIBC_PRIVATE+0x3c90>
    cebd:	49 83 fe 10          	cmp    r14,0x10
    cec1:	0f 84 49 02 00 00    	je     d110 <_dl_rtld_di_serinfo@@GLIBC_PRIVATE+0x3c90>
    cec7:	49 8d 46 ef          	lea    rax,[r14-0x11]
    cecb:	48 83 f8 01          	cmp    rax,0x1
    cecf:	41 0f 96 c1          	setbe  r9b
    ced3:	49 83 fe 24          	cmp    r14,0x24
    ced7:	0f 94 c0             	sete   al
    ceda:	44 09 c8             	or     eax,r9d
    cedd:	0f b6 c0             	movzx  eax,al
    cee0:	49 83 fe 05          	cmp    r14,0x5
    cee4:	0f 84 02 04 00 00    	je     d2ec <_dl_rtld_di_serinfo@@GLIBC_PRIVATE+0x3e6c>
    ceea:	45 31 c9             	xor    r9d,r9d
    ceed:	49 83 fe 06          	cmp    r14,0x6
    cef1:	41 0f 94 c1          	sete   r9b
    cef5:	41 c1 e1 02          	shl    r9d,0x2
    cef9:	41 8b 3f             	mov    edi,DWORD PTR [r15]
    cefc:	41 09 c1             	or     r9d,eax
    ceff:	48 8b 8d 40 ff ff ff 	mov    rcx,QWORD PTR [rbp-0xc0]
    cf06:	48 03 bd 38 ff ff ff 	add    rdi,QWORD PTR [rbp-0xc8]
    cf0d:	48 8b 95 f0 fe ff ff 	mov    rdx,QWORD PTR [rbp-0x110]
    cf14:	4c 89 e6             	mov    rsi,r12
    cf17:	45 89 8c 24 00 04 00 	mov    DWORD PTR [r12+0x400],r9d
    cf1e:	00 
    cf1f:	4d 89 bc 24 f8 03 00 	mov    QWORD PTR [r12+0x3f8],r15
    cf26:	00 
    cf27:	45 31 c0             	xor    r8d,r8d
    cf2a:	6a 00                	push   0x0
    cf2c:	6a 01                	push   0x1
    cf2e:	4c 89 95 30 ff ff ff 	mov    QWORD PTR [rbp-0xd0],r10
    cf35:	e8 c6 d8 ff ff       	call   a800 <_dl_rtld_di_serinfo@@GLIBC_PRIVATE+0x1380>
    cf3a:	48 8b 95 78 ff ff ff 	mov    rdx,QWORD PTR [rbp-0x88]
    cf41:	49 89 84 24 08 04 00 	mov    QWORD PTR [r12+0x408],rax
    cf48:	00 
    cf49:	48 89 c1             	mov    rcx,rax
    cf4c:	4c 8b 95 30 ff ff ff 	mov    r10,QWORD PTR [rbp-0xd0]
    cf53:	49 89 94 24 10 04 00 	mov    QWORD PTR [r12+0x410],rdx
    cf5a:	00 
    cf5b:	5e                   	pop    rsi
    cf5c:	5f                   	pop    rdi
    cf5d:	31 c0                	xor    eax,eax
    cf5f:	48 85 d2             	test   rdx,rdx
    cf62:	74 18                	je     cf7c <_dl_rtld_di_serinfo@@GLIBC_PRIVATE+0x3afc>
    cf64:	0f b6 72 04          	movzx  esi,BYTE PTR [rdx+0x4]
    cf68:	48 8b 42 08          	mov    rax,QWORD PTR [rdx+0x8]
    cf6c:	48 03 01             	add    rax,QWORD PTR [rcx]
    cf6f:	83 e6 0f             	and    esi,0xf
    cf72:	40 80 fe 0a          	cmp    sil,0xa
    cf76:	0f 84 7e 04 00 00    	je     d3fa <_dl_rtld_di_serinfo@@GLIBC_PRIVATE+0x3f7a>
    cf7c:	49 83 fe 25          	cmp    r14,0x25
    cf80:	0f 87 ea fb ff ff    	ja     cb70 <_dl_rtld_di_serinfo@@GLIBC_PRIVATE+0x36f0>
    cf86:	48 8d 35 cb 1c 01 00 	lea    rsi,[rip+0x11ccb]        # 1ec58 <realloc@@GLIBC_2.2.5+0x4d28>
    cf8d:	4a 63 14 b6          	movsxd rdx,DWORD PTR [rsi+r14*4]
    cf91:	48 01 f2             	add    rdx,rsi
    cf94:	ff e2                	jmp    rdx
    cf96:	48 8b 85 78 ff ff ff 	mov    rax,QWORD PTR [rbp-0x88]
    cf9d:	48 8b 40 10          	mov    rax,QWORD PTR [rax+0x10]
    cfa1:	48 03 43 10          	add    rax,QWORD PTR [rbx+0x10]
    cfa5:	49 89 02             	mov    QWORD PTR [r10],rax
    cfa8:	0f 1f 84 00 00 00 00 	nop    DWORD PTR [rax+rax*1+0x0]
    cfaf:	00 
    cfb0:	48 83 c3 18          	add    rbx,0x18
    cfb4:	48 39 9d 68 ff ff ff 	cmp    QWORD PTR [rbp-0x98],rbx
    cfbb:	0f 87 7f fe ff ff    	ja     ce40 <_dl_rtld_di_serinfo@@GLIBC_PRIVATE+0x39c0>
    cfc1:	4c 8b 95 28 ff ff ff 	mov    r10,QWORD PTR [rbp-0xd8]
    cfc8:	4c 8b ad 58 ff ff ff 	mov    r13,QWORD PTR [rbp-0xa8]
    cfcf:	4d 85 d2             	test   r10,r10
    cfd2:	0f 84 98 f3 ff ff    	je     c370 <_dl_rtld_di_serinfo@@GLIBC_PRIVATE+0x2ef0>
    cfd8:	48 8b 85 20 ff ff ff 	mov    rax,QWORD PTR [rbp-0xe0]
    cfdf:	49 39 c2             	cmp    r10,rax
    cfe2:	0f 87 88 f3 ff ff    	ja     c370 <_dl_rtld_di_serinfo@@GLIBC_PRIVATE+0x2ef0>
    cfe8:	4d 89 e7             	mov    r15,r12
    cfeb:	4c 89 d3             	mov    rbx,r10
    cfee:	49 89 c4             	mov    r12,rax
    cff1:	eb 12                	jmp    d005 <_dl_rtld_di_serinfo@@GLIBC_PRIVATE+0x3b85>
    cff3:	0f 1f 44 00 00       	nop    DWORD PTR [rax+rax*1+0x0]
    cff8:	48 83 c3 18          	add    rbx,0x18
    cffc:	4c 39 e3             	cmp    rbx,r12
    cfff:	0f 87 f3 fb ff ff    	ja     cbf8 <_dl_rtld_di_serinfo@@GLIBC_PRIVATE+0x3778>
    d005:	48 8b 43 08          	mov    rax,QWORD PTR [rbx+0x8]
    d009:	83 f8 25             	cmp    eax,0x25
    d00c:	75 ea                	jne    cff8 <_dl_rtld_di_serinfo@@GLIBC_PRIVATE+0x3b78>
    d00e:	48 c1 e8 20          	shr    rax,0x20
    d012:	48 8b b5 60 ff ff ff 	mov    rsi,QWORD PTR [rbp-0xa0]
    d019:	4c 8b 33             	mov    r14,QWORD PTR [rbx]
    d01c:	48 8d 04 40          	lea    rax,[rax+rax*2]
    d020:	48 8d 14 c6          	lea    rdx,[rsi+rax*8]
    d024:	48 89 95 70 ff ff ff 	mov    QWORD PTR [rbp-0x90],rdx
    d02b:	0f b6 42 04          	movzx  eax,BYTE PTR [rdx+0x4]
    d02f:	c0 e8 04             	shr    al,0x4
    d032:	84 c0                	test   al,al
    d034:	0f 84 aa 02 00 00    	je     d2e4 <_dl_rtld_di_serinfo@@GLIBC_PRIVATE+0x3e64>
    d03a:	49 3b 97 f8 03 00 00 	cmp    rdx,QWORD PTR [r15+0x3f8]
    d041:	0f 84 05 07 00 00    	je     d74c <_dl_rtld_di_serinfo@@GLIBC_PRIVATE+0x42cc>
    d047:	8b 3a                	mov    edi,DWORD PTR [rdx]
    d049:	49 89 97 f8 03 00 00 	mov    QWORD PTR [r15+0x3f8],rdx
    d050:	45 31 c9             	xor    r9d,r9d
    d053:	48 03 bd 38 ff ff ff 	add    rdi,QWORD PTR [rbp-0xc8]
    d05a:	48 8b 95 e8 fe ff ff 	mov    rdx,QWORD PTR [rbp-0x118]
    d061:	45 31 c0             	xor    r8d,r8d
    d064:	48 8b 8d 40 ff ff ff 	mov    rcx,QWORD PTR [rbp-0xc0]
    d06b:	41 c7 87 00 04 00 00 	mov    DWORD PTR [r15+0x400],0x0
    d072:	00 00 00 00 
    d076:	4c 89 fe             	mov    rsi,r15
    d079:	6a 00                	push   0x0
    d07b:	6a 01                	push   0x1
    d07d:	e8 7e d7 ff ff       	call   a800 <_dl_rtld_di_serinfo@@GLIBC_PRIVATE+0x1380>
    d082:	48 8b 95 70 ff ff ff 	mov    rdx,QWORD PTR [rbp-0x90]
    d089:	49 89 87 08 04 00 00 	mov    QWORD PTR [r15+0x408],rax
    d090:	49 89 97 10 04 00 00 	mov    QWORD PTR [r15+0x410],rdx
    d097:	41 5a                	pop    r10
    d099:	41 5b                	pop    r11
    d09b:	48 85 d2             	test   rdx,rdx
    d09e:	74 10                	je     d0b0 <_dl_rtld_di_serinfo@@GLIBC_PRIVATE+0x3c30>
    d0a0:	0f b6 4a 04          	movzx  ecx,BYTE PTR [rdx+0x4]
    d0a4:	83 e1 0f             	and    ecx,0xf
    d0a7:	80 f9 0a             	cmp    cl,0xa
    d0aa:	0f 84 64 06 00 00    	je     d714 <_dl_rtld_di_serinfo@@GLIBC_PRIVATE+0x4294>
    d0b0:	48 8b 43 10          	mov    rax,QWORD PTR [rbx+0x10]
    d0b4:	49 03 07             	add    rax,QWORD PTR [r15]
    d0b7:	ff d0                	call   rax
    d0b9:	4b 89 44 35 00       	mov    QWORD PTR [r13+r14*1+0x0],rax
    d0be:	e9 35 ff ff ff       	jmp    cff8 <_dl_rtld_di_serinfo@@GLIBC_PRIVATE+0x3b78>
    d0c3:	0f 1f 44 00 00       	nop    DWORD PTR [rax+rax*1+0x0]
    d0c8:	48 83 bd 28 ff ff ff 	cmp    QWORD PTR [rbp-0xd8],0x0
    d0cf:	00 
    d0d0:	0f 84 ae 03 00 00    	je     d484 <_dl_rtld_di_serinfo@@GLIBC_PRIVATE+0x4004>
    d0d6:	48 89 9d 20 ff ff ff 	mov    QWORD PTR [rbp-0xe0],rbx
    d0dd:	e9 ce fe ff ff       	jmp    cfb0 <_dl_rtld_di_serinfo@@GLIBC_PRIVATE+0x3b30>
    d0e2:	66 0f 1f 44 00 00    	nop    WORD PTR [rax+rax*1+0x0]
    d0e8:	4c 89 fa             	mov    rdx,r15
    d0eb:	4c 89 e1             	mov    rcx,r12
    d0ee:	e9 71 fe ff ff       	jmp    cf64 <_dl_rtld_di_serinfo@@GLIBC_PRIVATE+0x3ae4>
    d0f3:	0f 1f 44 00 00       	nop    DWORD PTR [rax+rax*1+0x0]
    d0f8:	48 8b 43 10          	mov    rax,QWORD PTR [rbx+0x10]
    d0fc:	49 03 04 24          	add    rax,QWORD PTR [r12]
    d100:	49 89 02             	mov    QWORD PTR [r10],rax
    d103:	e9 a8 fe ff ff       	jmp    cfb0 <_dl_rtld_di_serinfo@@GLIBC_PRIVATE+0x3b30>
    d108:	0f 1f 84 00 00 00 00 	nop    DWORD PTR [rax+rax*1+0x0]
    d10f:	00 
    d110:	b8 01 00 00 00       	mov    eax,0x1
    d115:	e9 c6 fd ff ff       	jmp    cee0 <_dl_rtld_di_serinfo@@GLIBC_PRIVATE+0x3a60>
    d11a:	48 8b 05 5f 8b 21 00 	mov    rax,QWORD PTR [rip+0x218b5f]        # 225c80 <_dl_argv@@GLIBC_PRIVATE>
    d121:	48 8d 35 f5 22 01 00 	lea    rsi,[rip+0x122f5]        # 1f41d <realloc@@GLIBC_2.2.5+0x54ed>
    d128:	48 8b 00             	mov    rax,QWORD PTR [rax]
    d12b:	48 85 c0             	test   rax,rax
    d12e:	48 0f 45 f0          	cmovne rsi,rax
    d132:	e9 0b f5 ff ff       	jmp    c642 <_dl_rtld_di_serinfo@@GLIBC_PRIVATE+0x31c2>
    d137:	48 8b 85 78 ff ff ff 	mov    rax,QWORD PTR [rbp-0x88]
    d13e:	48 8b 40 10          	mov    rax,QWORD PTR [rax+0x10]
    d142:	48 03 43 10          	add    rax,QWORD PTR [rbx+0x10]
    d146:	be ff ff ff ff       	mov    esi,0xffffffff
    d14b:	48 39 f0             	cmp    rax,rsi
    d14e:	41 89 02             	mov    DWORD PTR [r10],eax
    d151:	0f 86 59 fe ff ff    	jbe    cfb0 <_dl_rtld_di_serinfo@@GLIBC_PRIVATE+0x3b30>
    d157:	48 8d 35 7a 45 01 00 	lea    rsi,[rip+0x1457a]        # 216d8 <realloc@@GLIBC_2.2.5+0x77a8>
    d15e:	49 8b 44 24 68       	mov    rax,QWORD PTR [r12+0x68]
    d163:	41 8b 0f             	mov    ecx,DWORD PTR [r15]
    d166:	48 8d 15 43 22 01 00 	lea    rdx,[rip+0x12243]        # 1f3b0 <realloc@@GLIBC_2.2.5+0x5480>
    d16d:	bf 02 00 00 00       	mov    edi,0x2
    d172:	48 03 48 08          	add    rcx,QWORD PTR [rax+0x8]
    d176:	48 8b 05 03 8b 21 00 	mov    rax,QWORD PTR [rip+0x218b03]        # 225c80 <_dl_argv@@GLIBC_PRIVATE>
    d17d:	48 8b 00             	mov    rax,QWORD PTR [rax]
    d180:	48 85 c0             	test   rax,rax
    d183:	48 0f 45 d0          	cmovne rdx,rax
    d187:	31 c0                	xor    eax,eax
    d189:	e8 82 45 00 00       	call   11710 <_dl_debug_state@@GLIBC_PRIVATE+0x880>
    d18e:	e9 1d fe ff ff       	jmp    cfb0 <_dl_rtld_di_serinfo@@GLIBC_PRIVATE+0x3b30>
    d193:	48 8b 43 10          	mov    rax,QWORD PTR [rbx+0x10]
    d197:	49 03 04 24          	add    rax,QWORD PTR [r12]
    d19b:	4c 89 95 30 ff ff ff 	mov    QWORD PTR [rbp-0xd0],r10
    d1a2:	ff d0                	call   rax
    d1a4:	4c 8b 95 30 ff ff ff 	mov    r10,QWORD PTR [rbp-0xd0]
    d1ab:	49 89 02             	mov    QWORD PTR [r10],rax
    d1ae:	e9 fd fd ff ff       	jmp    cfb0 <_dl_rtld_di_serinfo@@GLIBC_PRIVATE+0x3b30>
    d1b3:	4c 8b ad 78 ff ff ff 	mov    r13,QWORD PTR [rbp-0x88]
    d1ba:	4d 85 ed             	test   r13,r13
    d1bd:	0f 84 ed fd ff ff    	je     cfb0 <_dl_rtld_di_serinfo@@GLIBC_PRIVATE+0x3b30>
    d1c3:	49 8b 55 10          	mov    rdx,QWORD PTR [r13+0x10]
    d1c7:	49 39 57 10          	cmp    QWORD PTR [r15+0x10],rdx
    d1cb:	48 89 c6             	mov    rsi,rax
    d1ce:	49 0f 46 57 10       	cmovbe rdx,QWORD PTR [r15+0x10]
    d1d3:	4c 89 d7             	mov    rdi,r10
    d1d6:	e8 75 0b 01 00       	call   1dd50 <realloc@@GLIBC_2.2.5+0x3e20>
    d1db:	49 8b 47 10          	mov    rax,QWORD PTR [r15+0x10]
    d1df:	49 39 45 10          	cmp    QWORD PTR [r13+0x10],rax
    d1e3:	77 16                	ja     d1fb <_dl_rtld_di_serinfo@@GLIBC_PRIVATE+0x3d7b>
    d1e5:	0f 83 c5 fd ff ff    	jae    cfb0 <_dl_rtld_di_serinfo@@GLIBC_PRIVATE+0x3b30>
    d1eb:	44 8b 2d ea 8a 21 00 	mov    r13d,DWORD PTR [rip+0x218aea]        # 225cdc <_rtld_global_ro@@GLIBC_PRIVATE+0x3c>
    d1f2:	45 85 ed             	test   r13d,r13d
    d1f5:	0f 84 b5 fd ff ff    	je     cfb0 <_dl_rtld_di_serinfo@@GLIBC_PRIVATE+0x3b30>
    d1fb:	48 8d 35 56 45 01 00 	lea    rsi,[rip+0x14556]        # 21758 <realloc@@GLIBC_2.2.5+0x7828>
    d202:	e9 57 ff ff ff       	jmp    d15e <_dl_rtld_di_serinfo@@GLIBC_PRIVATE+0x3cde>
    d207:	4c 29 d0             	sub    rax,r10
    d20a:	48 03 43 10          	add    rax,QWORD PTR [rbx+0x10]
    d20e:	48 63 d0             	movsxd rdx,eax
    d211:	41 89 02             	mov    DWORD PTR [r10],eax
    d214:	48 39 d0             	cmp    rax,rdx
    d217:	0f 84 93 fd ff ff    	je     cfb0 <_dl_rtld_di_serinfo@@GLIBC_PRIVATE+0x3b30>
    d21d:	48 8d 35 f4 44 01 00 	lea    rsi,[rip+0x144f4]        # 21718 <realloc@@GLIBC_2.2.5+0x77e8>
    d224:	e9 35 ff ff ff       	jmp    d15e <_dl_rtld_di_serinfo@@GLIBC_PRIVATE+0x3cde>
    d229:	48 8b b5 78 ff ff ff 	mov    rsi,QWORD PTR [rbp-0x88]
    d230:	48 85 f6             	test   rsi,rsi
    d233:	0f 84 77 fd ff ff    	je     cfb0 <_dl_rtld_di_serinfo@@GLIBC_PRIVATE+0x3b30>
    d239:	48 8b 81 40 04 00 00 	mov    rax,QWORD PTR [rcx+0x440]
    d240:	48 8d 78 01          	lea    rdi,[rax+0x1]
    d244:	48 89 c2             	mov    rdx,rax
    d247:	48 83 ff 01          	cmp    rdi,0x1
    d24b:	0f 86 7b 05 00 00    	jbe    d7cc <_dl_rtld_di_serinfo@@GLIBC_PRIVATE+0x434c>
    d251:	48 8b 43 10          	mov    rax,QWORD PTR [rbx+0x10]
    d255:	48 03 46 08          	add    rax,QWORD PTR [rsi+0x8]
    d259:	48 29 d0             	sub    rax,rdx
    d25c:	49 89 02             	mov    QWORD PTR [r10],rax
    d25f:	e9 4c fd ff ff       	jmp    cfb0 <_dl_rtld_di_serinfo@@GLIBC_PRIVATE+0x3b30>
    d264:	48 8b 95 78 ff ff ff 	mov    rdx,QWORD PTR [rbp-0x88]
    d26b:	48 85 d2             	test   rdx,rdx
    d26e:	0f 84 3c fd ff ff    	je     cfb0 <_dl_rtld_di_serinfo@@GLIBC_PRIVATE+0x3b30>
    d274:	48 8b 43 10          	mov    rax,QWORD PTR [rbx+0x10]
    d278:	48 03 42 08          	add    rax,QWORD PTR [rdx+0x8]
    d27c:	49 89 02             	mov    QWORD PTR [r10],rax
    d27f:	e9 2c fd ff ff       	jmp    cfb0 <_dl_rtld_di_serinfo@@GLIBC_PRIVATE+0x3b30>
    d284:	48 85 c9             	test   rcx,rcx
    d287:	0f 84 23 fd ff ff    	je     cfb0 <_dl_rtld_di_serinfo@@GLIBC_PRIVATE+0x3b30>
    d28d:	48 8b 81 48 04 00 00 	mov    rax,QWORD PTR [rcx+0x448]
    d294:	49 89 02             	mov    QWORD PTR [r10],rax
    d297:	e9 14 fd ff ff       	jmp    cfb0 <_dl_rtld_di_serinfo@@GLIBC_PRIVATE+0x3b30>
    d29c:	48 8b bd 78 ff ff ff 	mov    rdi,QWORD PTR [rbp-0x88]
    d2a3:	48 85 ff             	test   rdi,rdi
    d2a6:	0f 84 d8 04 00 00    	je     d784 <_dl_rtld_di_serinfo@@GLIBC_PRIVATE+0x4304>
    d2ac:	48 8b 81 40 04 00 00 	mov    rax,QWORD PTR [rcx+0x440]
    d2b3:	48 83 f8 ff          	cmp    rax,0xffffffffffffffff
    d2b7:	0f 84 de 04 00 00    	je     d79b <_dl_rtld_di_serinfo@@GLIBC_PRIVATE+0x431b>
    d2bd:	48 85 c0             	test   rax,rax
    d2c0:	0f 84 3d 05 00 00    	je     d803 <_dl_rtld_di_serinfo@@GLIBC_PRIVATE+0x4383>
    d2c6:	48 8b 53 10          	mov    rdx,QWORD PTR [rbx+0x10]
    d2ca:	48 03 57 08          	add    rdx,QWORD PTR [rdi+0x8]
    d2ce:	48 29 c2             	sub    rdx,rax
    d2d1:	48 8d 05 a8 bb 00 00 	lea    rax,[rip+0xbba8]        # 18e80 <_dl_find_dso_for_object@@GLIBC_PRIVATE+0x4460>
    d2d8:	49 89 52 08          	mov    QWORD PTR [r10+0x8],rdx
    d2dc:	49 89 02             	mov    QWORD PTR [r10],rax
    d2df:	e9 cc fc ff ff       	jmp    cfb0 <_dl_rtld_di_serinfo@@GLIBC_PRIVATE+0x3b30>
    d2e4:	4c 89 f8             	mov    rax,r15
    d2e7:	e9 b4 fd ff ff       	jmp    d0a0 <_dl_rtld_di_serinfo@@GLIBC_PRIVATE+0x3c20>
    d2ec:	83 c8 02             	or     eax,0x2
    d2ef:	45 31 c9             	xor    r9d,r9d
    d2f2:	e9 02 fc ff ff       	jmp    cef9 <_dl_rtld_di_serinfo@@GLIBC_PRIVATE+0x3a79>
    d2f7:	ba 01 00 00 00       	mov    edx,0x1
    d2fc:	4c 89 e7             	mov    rdi,r12
    d2ff:	e8 cc ec ff ff       	call   bfd0 <_dl_rtld_di_serinfo@@GLIBC_PRIVATE+0x2b50>
    d304:	66 83 7a 06 00       	cmp    WORD PTR [rdx+0x6],0x0
    d309:	0f 84 e1 f4 ff ff    	je     c7f0 <_dl_rtld_di_serinfo@@GLIBC_PRIVATE+0x3370>
    d30f:	44 8b 85 48 ff ff ff 	mov    r8d,DWORD PTR [rbp-0xb8]
    d316:	45 85 c0             	test   r8d,r8d
    d319:	0f 85 d1 f4 ff ff    	jne    c7f0 <_dl_rtld_di_serinfo@@GLIBC_PRIVATE+0x3370>
    d31f:	48 8b 52 08          	mov    rdx,QWORD PTR [rdx+0x8]
    d323:	48 03 10             	add    rdx,QWORD PTR [rax]
    d326:	48 89 d0             	mov    rax,rdx
    d329:	ff d0                	call   rax
    d32b:	e9 c0 f4 ff ff       	jmp    c7f0 <_dl_rtld_di_serinfo@@GLIBC_PRIVATE+0x3370>
    d330:	49 8b 44 24 50       	mov    rax,QWORD PTR [r12+0x50]
    d335:	48 85 c0             	test   rax,rax
    d338:	0f 84 61 f0 ff ff    	je     c39f <_dl_rtld_di_serinfo@@GLIBC_PRIVATE+0x2f1f>
    d33e:	49 8b 94 24 e0 00 00 	mov    rdx,QWORD PTR [r12+0xe0]
    d345:	00 
    d346:	31 c9                	xor    ecx,ecx
    d348:	48 8b 40 08          	mov    rax,QWORD PTR [rax+0x8]
    d34c:	bf 20 00 00 00       	mov    edi,0x20
    d351:	4c 89 a5 68 ff ff ff 	mov    QWORD PTR [rbp-0x98],r12
    d358:	48 83 7a 08 07       	cmp    QWORD PTR [rdx+0x8],0x7
    d35d:	0f 94 c1             	sete   cl
    d360:	31 d2                	xor    edx,edx
    d362:	48 8d 0c cd 10 00 00 	lea    rcx,[rcx*8+0x10]
    d369:	00 
    d36a:	48 f7 f1             	div    rcx
    d36d:	48 89 c6             	mov    rsi,rax
    d370:	e8 1b 37 ff ff       	call   a90 <calloc@plt>
    d375:	4c 8b 9d 68 ff ff ff 	mov    r11,QWORD PTR [rbp-0x98]
    d37c:	48 85 c0             	test   rax,rax
    d37f:	49 89 83 28 03 00 00 	mov    QWORD PTR [r11+0x328],rax
    d386:	0f 85 13 f0 ff ff    	jne    c39f <_dl_rtld_di_serinfo@@GLIBC_PRIVATE+0x2f1f>
    d38c:	48 8b 05 ed 88 21 00 	mov    rax,QWORD PTR [rip+0x2188ed]        # 225c80 <_dl_argv@@GLIBC_PRIVATE>
    d393:	49 8b 4b 08          	mov    rcx,QWORD PTR [r11+0x8]
    d397:	48 8d 15 12 20 01 00 	lea    rdx,[rip+0x12012]        # 1f3b0 <realloc@@GLIBC_2.2.5+0x5480>
    d39e:	48 8d 35 03 44 01 00 	lea    rsi,[rip+0x14403]        # 217a8 <realloc@@GLIBC_2.2.5+0x7878>
    d3a5:	bf 02 00 00 00       	mov    edi,0x2
    d3aa:	48 8b 00             	mov    rax,QWORD PTR [rax]
    d3ad:	48 85 c0             	test   rax,rax
    d3b0:	48 0f 45 d0          	cmovne rdx,rax
    d3b4:	31 c0                	xor    eax,eax
    d3b6:	e8 55 43 00 00       	call   11710 <_dl_debug_state@@GLIBC_PRIVATE+0x880>
    d3bb:	bf 7f 00 00 00       	mov    edi,0x7f
    d3c0:	e8 db df 00 00       	call   1b3a0 <realloc@@GLIBC_2.2.5+0x1470>
    d3c5:	0f 1f 00             	nop    DWORD PTR [rax]
    d3c8:	48 8b 9d 08 ff ff ff 	mov    rbx,QWORD PTR [rbp-0xf8]
    d3cf:	4d 89 dc             	mov    r12,r11
    d3d2:	8b 53 10             	mov    edx,DWORD PTR [rbx+0x10]
    d3d5:	48 8b 73 08          	mov    rsi,QWORD PTR [rbx+0x8]
    d3d9:	48 8b 3b             	mov    rdi,QWORD PTR [rbx]
    d3dc:	e8 5f df 00 00       	call   1b340 <realloc@@GLIBC_2.2.5+0x1410>
    d3e1:	85 c0                	test   eax,eax
    d3e3:	0f 88 a3 05 00 00    	js     d98c <_dl_rtld_di_serinfo@@GLIBC_PRIVATE+0x450c>
    d3e9:	48 8b 5b 18          	mov    rbx,QWORD PTR [rbx+0x18]
    d3ed:	48 85 db             	test   rbx,rbx
    d3f0:	75 e0                	jne    d3d2 <_dl_rtld_di_serinfo@@GLIBC_PRIVATE+0x3f52>
    d3f2:	4d 89 e3             	mov    r11,r12
    d3f5:	e9 bb ef ff ff       	jmp    c3b5 <_dl_rtld_di_serinfo@@GLIBC_PRIVATE+0x2f35>
    d3fa:	66 83 7a 06 00       	cmp    WORD PTR [rdx+0x6],0x0
    d3ff:	0f 84 77 fb ff ff    	je     cf7c <_dl_rtld_di_serinfo@@GLIBC_PRIVATE+0x3afc>
    d405:	8b 95 48 ff ff ff    	mov    edx,DWORD PTR [rbp-0xb8]
    d40b:	85 d2                	test   edx,edx
    d40d:	0f 85 69 fb ff ff    	jne    cf7c <_dl_rtld_di_serinfo@@GLIBC_PRIVATE+0x3afc>
    d413:	48 89 8d 10 ff ff ff 	mov    QWORD PTR [rbp-0xf0],rcx
    d41a:	4c 89 95 30 ff ff ff 	mov    QWORD PTR [rbp-0xd0],r10
    d421:	ff d0                	call   rax
    d423:	48 8b 8d 10 ff ff ff 	mov    rcx,QWORD PTR [rbp-0xf0]
    d42a:	4c 8b 95 30 ff ff ff 	mov    r10,QWORD PTR [rbp-0xd0]
    d431:	e9 46 fb ff ff       	jmp    cf7c <_dl_rtld_di_serinfo@@GLIBC_PRIVATE+0x3afc>
    d436:	f6 c4 10             	test   ah,0x10
    d439:	0f 84 91 01 00 00    	je     d5d0 <_dl_rtld_di_serinfo@@GLIBC_PRIVATE+0x4150>
    d43f:	48 8d 05 da 9d 00 00 	lea    rax,[rip+0x9dda]        # 17220 <_dl_find_dso_for_object@@GLIBC_PRIVATE+0x2800>
    d446:	48 89 42 10          	mov    QWORD PTR [rdx+0x10],rax
    d44a:	48 8b 3d 1f 89 21 00 	mov    rdi,QWORD PTR [rip+0x21891f]        # 225d70 <_rtld_global_ro@@GLIBC_PRIVATE+0xd0>
    d451:	48 85 ff             	test   rdi,rdi
    d454:	0f 84 39 ed ff ff    	je     c193 <_dl_rtld_di_serinfo@@GLIBC_PRIVATE+0x2d13>
    d45a:	4c 89 de             	mov    rsi,r11
    d45d:	4c 89 9d 68 ff ff ff 	mov    QWORD PTR [rbp-0x98],r11
    d464:	e8 47 43 00 00       	call   117b0 <_dl_debug_state@@GLIBC_PRIVATE+0x920>
    d469:	85 c0                	test   eax,eax
    d46b:	4c 8b 9d 68 ff ff ff 	mov    r11,QWORD PTR [rbp-0x98]
    d472:	0f 84 1b ed ff ff    	je     c193 <_dl_rtld_di_serinfo@@GLIBC_PRIVATE+0x2d13>
    d478:	4c 89 1d 31 95 21 00 	mov    QWORD PTR [rip+0x219531],r11        # 2269b0 <_rtld_global@@GLIBC_PRIVATE+0x970>
    d47f:	e9 0f ed ff ff       	jmp    c193 <_dl_rtld_di_serinfo@@GLIBC_PRIVATE+0x2d13>
    d484:	48 89 9d 20 ff ff ff 	mov    QWORD PTR [rbp-0xe0],rbx
    d48b:	48 89 9d 28 ff ff ff 	mov    QWORD PTR [rbp-0xd8],rbx
    d492:	e9 19 fb ff ff       	jmp    cfb0 <_dl_rtld_di_serinfo@@GLIBC_PRIVATE+0x3b30>
    d497:	41 8b bf 00 04 00 00 	mov    edi,DWORD PTR [r15+0x400]
    d49e:	85 ff                	test   edi,edi
    d4a0:	0f 85 c0 f2 ff ff    	jne    c766 <_dl_rtld_di_serinfo@@GLIBC_PRIVATE+0x32e6>
    d4a6:	49 8b 97 10 04 00 00 	mov    rdx,QWORD PTR [r15+0x410]
    d4ad:	48 83 05 0b 95 21 00 	add    QWORD PTR [rip+0x21950b],0x1        # 2269c0 <_rtld_global@@GLIBC_PRIVATE+0x980>
    d4b4:	01 
    d4b5:	49 8b 87 08 04 00 00 	mov    rax,QWORD PTR [r15+0x408]
    d4bc:	48 89 55 88          	mov    QWORD PTR [rbp-0x78],rdx
    d4c0:	e9 12 f3 ff ff       	jmp    c7d7 <_dl_rtld_di_serinfo@@GLIBC_PRIVATE+0x3357>
    d4c5:	48 8b 43 10          	mov    rax,QWORD PTR [rbx+0x10]
    d4c9:	49 89 42 08          	mov    QWORD PTR [r10+0x8],rax
    d4cd:	48 8d 05 bc b9 00 00 	lea    rax,[rip+0xb9bc]        # 18e90 <_dl_find_dso_for_object@@GLIBC_PRIVATE+0x4470>
    d4d4:	49 89 02             	mov    QWORD PTR [r10],rax
    d4d7:	e9 e4 f1 ff ff       	jmp    c6c0 <_dl_rtld_di_serinfo@@GLIBC_PRIVATE+0x3240>
    d4dc:	89 c8                	mov    eax,ecx
    d4de:	e9 4a f7 ff ff       	jmp    cc2d <_dl_rtld_di_serinfo@@GLIBC_PRIVATE+0x37ad>
    d4e3:	48 8b 43 10          	mov    rax,QWORD PTR [rbx+0x10]
    d4e7:	48 03 46 08          	add    rax,QWORD PTR [rsi+0x8]
    d4eb:	48 89 cf             	mov    rdi,rcx
    d4ee:	4c 89 9d 28 ff ff ff 	mov    QWORD PTR [rbp-0xd8],r11
    d4f5:	4c 89 95 30 ff ff ff 	mov    QWORD PTR [rbp-0xd0],r10
    d4fc:	48 89 c6             	mov    rsi,rax
    d4ff:	e8 2c b4 00 00       	call   18930 <_dl_find_dso_for_object@@GLIBC_PRIVATE+0x3f10>
    d504:	4c 8b 95 30 ff ff ff 	mov    r10,QWORD PTR [rbp-0xd0]
    d50b:	49 89 42 08          	mov    QWORD PTR [r10+0x8],rax
    d50f:	48 8d 05 8a b9 00 00 	lea    rax,[rip+0xb98a]        # 18ea0 <_dl_find_dso_for_object@@GLIBC_PRIVATE+0x4480>
    d516:	49 89 02             	mov    QWORD PTR [r10],rax
    d519:	4c 8b 9d 28 ff ff ff 	mov    r11,QWORD PTR [rbp-0xd8]
    d520:	e9 9b f1 ff ff       	jmp    c6c0 <_dl_rtld_di_serinfo@@GLIBC_PRIVATE+0x3240>
    d525:	49 83 fe 24          	cmp    r14,0x24
    d529:	76 34                	jbe    d55f <_dl_rtld_di_serinfo@@GLIBC_PRIVATE+0x40df>
    d52b:	31 c9                	xor    ecx,ecx
    d52d:	b8 04 00 00 00       	mov    eax,0x4
    d532:	49 83 fe 06          	cmp    r14,0x6
    d536:	74 66                	je     d59e <_dl_rtld_di_serinfo@@GLIBC_PRIVATE+0x411e>
    d538:	41 39 8c 24 00 04 00 	cmp    DWORD PTR [r12+0x400],ecx
    d53f:	00 
    d540:	74 6a                	je     d5ac <_dl_rtld_di_serinfo@@GLIBC_PRIVATE+0x412c>
    d542:	49 83 fe 10          	cmp    r14,0x10
    d546:	74 0a                	je     d552 <_dl_rtld_di_serinfo@@GLIBC_PRIVATE+0x40d2>
    d548:	49 83 fe 07          	cmp    r14,0x7
    d54c:	0f 85 75 f9 ff ff    	jne    cec7 <_dl_rtld_di_serinfo@@GLIBC_PRIVATE+0x3a47>
    d552:	45 31 c9             	xor    r9d,r9d
    d555:	b8 01 00 00 00       	mov    eax,0x1
    d55a:	e9 9a f9 ff ff       	jmp    cef9 <_dl_rtld_di_serinfo@@GLIBC_PRIVATE+0x3a79>
    d55f:	44 89 e9             	mov    ecx,r13d
    d562:	48 b8 80 00 07 00 10 	movabs rax,0x1000070080
    d569:	00 00 00 
    d56c:	48 d3 e8             	shr    rax,cl
    d56f:	83 e0 01             	and    eax,0x1
    d572:	48 83 f0 01          	xor    rax,0x1
    d576:	89 c1                	mov    ecx,eax
    d578:	f7 d8                	neg    eax
    d57a:	83 e1 01             	and    ecx,0x1
    d57d:	83 c0 03             	add    eax,0x3
    d580:	89 ca                	mov    edx,ecx
    d582:	c1 e2 1f             	shl    edx,0x1f
    d585:	c1 fa 1f             	sar    edx,0x1f
    d588:	83 c2 05             	add    edx,0x5
    d58b:	80 f9 01             	cmp    cl,0x1
    d58e:	0f 92 c1             	setb   cl
    d591:	49 83 fe 05          	cmp    r14,0x5
    d595:	0f b6 c9             	movzx  ecx,cl
    d598:	0f 85 df 01 00 00    	jne    d77d <_dl_rtld_di_serinfo@@GLIBC_PRIVATE+0x42fd>
    d59e:	41 39 84 24 00 04 00 	cmp    DWORD PTR [r12+0x400],eax
    d5a5:	00 
    d5a6:	0f 85 1b f9 ff ff    	jne    cec7 <_dl_rtld_di_serinfo@@GLIBC_PRIVATE+0x3a47>
    d5ac:	49 8b 94 24 10 04 00 	mov    rdx,QWORD PTR [r12+0x410]
    d5b3:	00 
    d5b4:	48 83 05 04 94 21 00 	add    QWORD PTR [rip+0x219404],0x1        # 2269c0 <_rtld_global@@GLIBC_PRIVATE+0x980>
    d5bb:	01 
    d5bc:	49 8b 8c 24 08 04 00 	mov    rcx,QWORD PTR [r12+0x408]
    d5c3:	00 
    d5c4:	48 89 95 78 ff ff ff 	mov    QWORD PTR [rbp-0x88],rdx
    d5cb:	e9 8d f9 ff ff       	jmp    cf5d <_dl_rtld_di_serinfo@@GLIBC_PRIVATE+0x3add>
    d5d0:	a8 40                	test   al,0x40
    d5d2:	48 8d 0d 27 a2 00 00 	lea    rcx,[rip+0xa227]        # 17800 <_dl_find_dso_for_object@@GLIBC_PRIVATE+0x2de0>
    d5d9:	48 8d 05 e0 a7 00 00 	lea    rax,[rip+0xa7e0]        # 17dc0 <_dl_find_dso_for_object@@GLIBC_PRIVATE+0x33a0>
    d5e0:	48 0f 45 c1          	cmovne rax,rcx
    d5e4:	48 89 42 10          	mov    QWORD PTR [rdx+0x10],rax
    d5e8:	e9 5d fe ff ff       	jmp    d44a <_dl_rtld_di_serinfo@@GLIBC_PRIVATE+0x3fca>
    d5ed:	48 89 cf             	mov    rdi,rcx
    d5f0:	4c 89 9d e0 fe ff ff 	mov    QWORD PTR [rbp-0x120],r11
    d5f7:	4c 89 95 28 ff ff ff 	mov    QWORD PTR [rbp-0xd8],r10
    d5fe:	48 89 8d 30 ff ff ff 	mov    QWORD PTR [rbp-0xd0],rcx
    d605:	e8 36 e8 ff ff       	call   be40 <_dl_rtld_di_serinfo@@GLIBC_PRIVATE+0x29c0>
    d60a:	48 8b 8d 30 ff ff ff 	mov    rcx,QWORD PTR [rbp-0xd0]
    d611:	48 8b 75 80          	mov    rsi,QWORD PTR [rbp-0x80]
    d615:	4c 8b 9d e0 fe ff ff 	mov    r11,QWORD PTR [rbp-0x120]
    d61c:	4c 8b 95 28 ff ff ff 	mov    r10,QWORD PTR [rbp-0xd8]
    d623:	48 8b 91 40 04 00 00 	mov    rdx,QWORD PTR [rcx+0x440]
    d62a:	e9 6e f3 ff ff       	jmp    c99d <_dl_rtld_di_serinfo@@GLIBC_PRIVATE+0x351d>
    d62f:	4c 8b 81 30 04 00 00 	mov    r8,QWORD PTR [rcx+0x430]
    d636:	4c 3b 05 53 99 21 00 	cmp    r8,QWORD PTR [rip+0x219953]        # 226f90 <_rtld_global@@GLIBC_PRIVATE+0xf50>
    d63d:	0f 87 a0 fe ff ff    	ja     d4e3 <_dl_rtld_di_serinfo@@GLIBC_PRIVATE+0x4063>
    d643:	48 8b 15 3e 99 21 00 	mov    rdx,QWORD PTR [rip+0x21993e]        # 226f88 <_rtld_global@@GLIBC_PRIVATE+0xf48>
    d64a:	48 8b 05 2f 99 21 00 	mov    rax,QWORD PTR [rip+0x21992f]        # 226f80 <_rtld_global@@GLIBC_PRIVATE+0xf40>
    d651:	48 29 d0             	sub    rax,rdx
    d654:	48 3d ff 08 00 00    	cmp    rax,0x8ff
    d65a:	0f 86 83 fe ff ff    	jbe    d4e3 <_dl_rtld_di_serinfo@@GLIBC_PRIVATE+0x4063>
    d660:	48 8b b9 38 04 00 00 	mov    rdi,QWORD PTR [rcx+0x438]
    d667:	48 2d 00 09 00 00    	sub    rax,0x900
    d66d:	49 89 f9             	mov    r9,rdi
    d670:	4c 03 89 28 04 00 00 	add    r9,QWORD PTR [rcx+0x428]
    d677:	4c 39 c8             	cmp    rax,r9
    d67a:	0f 82 63 fe ff ff    	jb     d4e3 <_dl_rtld_di_serinfo@@GLIBC_PRIVATE+0x4063>
    d680:	48 29 fa             	sub    rdx,rdi
    d683:	48 8d 3c 02          	lea    rdi,[rdx+rax*1]
    d687:	4c 29 c8             	sub    rax,r9
    d68a:	31 d2                	xor    edx,edx
    d68c:	49 f7 f0             	div    r8
    d68f:	49 0f af c0          	imul   rax,r8
    d693:	48 29 c7             	sub    rdi,rax
    d696:	48 8b 41 28          	mov    rax,QWORD PTR [rcx+0x28]
    d69a:	48 89 3d e7 98 21 00 	mov    QWORD PTR [rip+0x2198e7],rdi        # 226f88 <_rtld_global@@GLIBC_PRIVATE+0xf48>
    d6a1:	48 89 b9 40 04 00 00 	mov    QWORD PTR [rcx+0x440],rdi
    d6a8:	48 89 fa             	mov    rdx,rdi
    d6ab:	f6 80 14 03 00 00 04 	test   BYTE PTR [rax+0x314],0x4
    d6b2:	0f 84 88 00 00 00    	je     d740 <_dl_rtld_di_serinfo@@GLIBC_PRIVATE+0x42c0>
    d6b8:	64 48 8b 04 25 08 00 	mov    rax,QWORD PTR fs:0x8
    d6bf:	00 00 
    d6c1:	48 8b 35 d8 98 21 00 	mov    rsi,QWORD PTR [rip+0x2198d8]        # 226fa0 <_rtld_global@@GLIBC_PRIVATE+0xf60>
    d6c8:	48 39 30             	cmp    QWORD PTR [rax],rsi
    d6cb:	0f 85 2c 02 00 00    	jne    d8fd <_dl_rtld_di_serinfo@@GLIBC_PRIVATE+0x447d>
    d6d1:	4c 89 9d e0 fe ff ff 	mov    QWORD PTR [rbp-0x120],r11
    d6d8:	4c 89 95 28 ff ff ff 	mov    QWORD PTR [rbp-0xd8],r10
    d6df:	48 89 cf             	mov    rdi,rcx
    d6e2:	48 89 8d 30 ff ff ff 	mov    QWORD PTR [rbp-0xd0],rcx
    d6e9:	ff 15 b9 98 21 00    	call   QWORD PTR [rip+0x2198b9]        # 226fa8 <_rtld_global@@GLIBC_PRIVATE+0xf68>
    d6ef:	48 8b 8d 30 ff ff ff 	mov    rcx,QWORD PTR [rbp-0xd0]
    d6f6:	48 8b 75 80          	mov    rsi,QWORD PTR [rbp-0x80]
    d6fa:	4c 8b 95 28 ff ff ff 	mov    r10,QWORD PTR [rbp-0xd8]
    d701:	4c 8b 9d e0 fe ff ff 	mov    r11,QWORD PTR [rbp-0x120]
    d708:	48 8b 91 40 04 00 00 	mov    rdx,QWORD PTR [rcx+0x440]
    d70f:	e9 43 f2 ff ff       	jmp    c957 <_dl_rtld_di_serinfo@@GLIBC_PRIVATE+0x34d7>
    d714:	66 83 7a 06 00       	cmp    WORD PTR [rdx+0x6],0x0
    d719:	0f 84 91 f9 ff ff    	je     d0b0 <_dl_rtld_di_serinfo@@GLIBC_PRIVATE+0x3c30>
    d71f:	44 8b 8d 48 ff ff ff 	mov    r9d,DWORD PTR [rbp-0xb8]
    d726:	45 85 c9             	test   r9d,r9d
    d729:	0f 85 81 f9 ff ff    	jne    d0b0 <_dl_rtld_di_serinfo@@GLIBC_PRIVATE+0x3c30>
    d72f:	48 8b 52 08          	mov    rdx,QWORD PTR [rdx+0x8]
    d733:	48 03 10             	add    rdx,QWORD PTR [rax]
    d736:	48 89 d0             	mov    rax,rdx
    d739:	ff d0                	call   rax
    d73b:	e9 70 f9 ff ff       	jmp    d0b0 <_dl_rtld_di_serinfo@@GLIBC_PRIVATE+0x3c30>
    d740:	80 89 15 03 00 00 04 	or     BYTE PTR [rcx+0x315],0x4
    d747:	e9 0b f2 ff ff       	jmp    c957 <_dl_rtld_di_serinfo@@GLIBC_PRIVATE+0x34d7>
    d74c:	41 8b 87 00 04 00 00 	mov    eax,DWORD PTR [r15+0x400]
    d753:	85 c0                	test   eax,eax
    d755:	0f 85 ec f8 ff ff    	jne    d047 <_dl_rtld_di_serinfo@@GLIBC_PRIVATE+0x3bc7>
    d75b:	49 8b 97 10 04 00 00 	mov    rdx,QWORD PTR [r15+0x410]
    d762:	48 83 05 56 92 21 00 	add    QWORD PTR [rip+0x219256],0x1        # 2269c0 <_rtld_global@@GLIBC_PRIVATE+0x980>
    d769:	01 
    d76a:	49 8b 87 08 04 00 00 	mov    rax,QWORD PTR [r15+0x408]
    d771:	48 89 95 70 ff ff ff 	mov    QWORD PTR [rbp-0x90],rdx
    d778:	e9 1e f9 ff ff       	jmp    d09b <_dl_rtld_di_serinfo@@GLIBC_PRIVATE+0x3c1b>
    d77d:	89 d0                	mov    eax,edx
    d77f:	e9 ae fd ff ff       	jmp    d532 <_dl_rtld_di_serinfo@@GLIBC_PRIVATE+0x40b2>
    d784:	48 8b 43 10          	mov    rax,QWORD PTR [rbx+0x10]
    d788:	49 89 42 08          	mov    QWORD PTR [r10+0x8],rax
    d78c:	48 8d 05 fd b6 00 00 	lea    rax,[rip+0xb6fd]        # 18e90 <_dl_find_dso_for_object@@GLIBC_PRIVATE+0x4470>
    d793:	49 89 02             	mov    QWORD PTR [r10],rax
    d796:	e9 15 f8 ff ff       	jmp    cfb0 <_dl_rtld_di_serinfo@@GLIBC_PRIVATE+0x3b30>
    d79b:	48 8b 73 10          	mov    rsi,QWORD PTR [rbx+0x10]
    d79f:	48 03 77 08          	add    rsi,QWORD PTR [rdi+0x8]
    d7a3:	48 89 cf             	mov    rdi,rcx
    d7a6:	4c 89 95 30 ff ff ff 	mov    QWORD PTR [rbp-0xd0],r10
    d7ad:	e8 7e b1 00 00       	call   18930 <_dl_find_dso_for_object@@GLIBC_PRIVATE+0x3f10>
    d7b2:	4c 8b 95 30 ff ff ff 	mov    r10,QWORD PTR [rbp-0xd0]
    d7b9:	49 89 42 08          	mov    QWORD PTR [r10+0x8],rax
    d7bd:	48 8d 05 dc b6 00 00 	lea    rax,[rip+0xb6dc]        # 18ea0 <_dl_find_dso_for_object@@GLIBC_PRIVATE+0x4480>
    d7c4:	49 89 02             	mov    QWORD PTR [r10],rax
    d7c7:	e9 e4 f7 ff ff       	jmp    cfb0 <_dl_rtld_di_serinfo@@GLIBC_PRIVATE+0x3b30>
    d7cc:	48 89 cf             	mov    rdi,rcx
    d7cf:	4c 89 95 10 ff ff ff 	mov    QWORD PTR [rbp-0xf0],r10
    d7d6:	48 89 8d 30 ff ff ff 	mov    QWORD PTR [rbp-0xd0],rcx
    d7dd:	e8 5e e6 ff ff       	call   be40 <_dl_rtld_di_serinfo@@GLIBC_PRIVATE+0x29c0>
    d7e2:	48 8b 8d 30 ff ff ff 	mov    rcx,QWORD PTR [rbp-0xd0]
    d7e9:	48 8b b5 78 ff ff ff 	mov    rsi,QWORD PTR [rbp-0x88]
    d7f0:	4c 8b 95 10 ff ff ff 	mov    r10,QWORD PTR [rbp-0xf0]
    d7f7:	48 8b 91 40 04 00 00 	mov    rdx,QWORD PTR [rcx+0x440]
    d7fe:	e9 4e fa ff ff       	jmp    d251 <_dl_rtld_di_serinfo@@GLIBC_PRIVATE+0x3dd1>
    d803:	4c 8b 81 30 04 00 00 	mov    r8,QWORD PTR [rcx+0x430]
    d80a:	4c 3b 05 7f 97 21 00 	cmp    r8,QWORD PTR [rip+0x21977f]        # 226f90 <_rtld_global@@GLIBC_PRIVATE+0xf50>
    d811:	77 88                	ja     d79b <_dl_rtld_di_serinfo@@GLIBC_PRIVATE+0x431b>
    d813:	48 8b 05 6e 97 21 00 	mov    rax,QWORD PTR [rip+0x21976e]        # 226f88 <_rtld_global@@GLIBC_PRIVATE+0xf48>
    d81a:	48 8b 15 5f 97 21 00 	mov    rdx,QWORD PTR [rip+0x21975f]        # 226f80 <_rtld_global@@GLIBC_PRIVATE+0xf40>
    d821:	48 29 c2             	sub    rdx,rax
    d824:	48 81 fa ff 08 00 00 	cmp    rdx,0x8ff
    d82b:	0f 86 6a ff ff ff    	jbe    d79b <_dl_rtld_di_serinfo@@GLIBC_PRIVATE+0x431b>
    d831:	48 8b b1 38 04 00 00 	mov    rsi,QWORD PTR [rcx+0x438]
    d838:	48 81 ea 00 09 00 00 	sub    rdx,0x900
    d83f:	49 89 f1             	mov    r9,rsi
    d842:	4c 03 89 28 04 00 00 	add    r9,QWORD PTR [rcx+0x428]
    d849:	4c 39 ca             	cmp    rdx,r9
    d84c:	0f 82 49 ff ff ff    	jb     d79b <_dl_rtld_di_serinfo@@GLIBC_PRIVATE+0x431b>
    d852:	48 29 f0             	sub    rax,rsi
    d855:	48 8d 34 10          	lea    rsi,[rax+rdx*1]
    d859:	48 89 d0             	mov    rax,rdx
    d85c:	31 d2                	xor    edx,edx
    d85e:	4c 29 c8             	sub    rax,r9
    d861:	49 f7 f0             	div    r8
    d864:	48 8b 51 28          	mov    rdx,QWORD PTR [rcx+0x28]
    d868:	49 0f af c0          	imul   rax,r8
    d86c:	48 29 c6             	sub    rsi,rax
    d86f:	48 89 35 12 97 21 00 	mov    QWORD PTR [rip+0x219712],rsi        # 226f88 <_rtld_global@@GLIBC_PRIVATE+0xf48>
    d876:	48 89 b1 40 04 00 00 	mov    QWORD PTR [rcx+0x440],rsi
    d87d:	48 89 f0             	mov    rax,rsi
    d880:	f6 82 14 03 00 00 04 	test   BYTE PTR [rdx+0x314],0x4
    d887:	0f 84 ab 00 00 00    	je     d938 <_dl_rtld_di_serinfo@@GLIBC_PRIVATE+0x44b8>
    d88d:	64 48 8b 04 25 08 00 	mov    rax,QWORD PTR fs:0x8
    d894:	00 00 
    d896:	48 8b 35 03 97 21 00 	mov    rsi,QWORD PTR [rip+0x219703]        # 226fa0 <_rtld_global@@GLIBC_PRIVATE+0xf60>
    d89d:	48 39 30             	cmp    QWORD PTR [rax],rsi
    d8a0:	0f 85 9e 00 00 00    	jne    d944 <_dl_rtld_di_serinfo@@GLIBC_PRIVATE+0x44c4>
    d8a6:	48 89 cf             	mov    rdi,rcx
    d8a9:	4c 89 95 10 ff ff ff 	mov    QWORD PTR [rbp-0xf0],r10
    d8b0:	48 89 8d 30 ff ff ff 	mov    QWORD PTR [rbp-0xd0],rcx
    d8b7:	ff 15 eb 96 21 00    	call   QWORD PTR [rip+0x2196eb]        # 226fa8 <_rtld_global@@GLIBC_PRIVATE+0xf68>
    d8bd:	48 8b 8d 30 ff ff ff 	mov    rcx,QWORD PTR [rbp-0xd0]
    d8c4:	48 8b bd 78 ff ff ff 	mov    rdi,QWORD PTR [rbp-0x88]
    d8cb:	4c 8b 95 10 ff ff ff 	mov    r10,QWORD PTR [rbp-0xf0]
    d8d2:	48 8b 81 40 04 00 00 	mov    rax,QWORD PTR [rcx+0x440]
    d8d9:	e9 e8 f9 ff ff       	jmp    d2c6 <_dl_rtld_di_serinfo@@GLIBC_PRIVATE+0x3e46>
    d8de:	48 8d 0d 7b 4a 01 00 	lea    rcx,[rip+0x14a7b]        # 22360 <realloc@@GLIBC_2.2.5+0x8430>
    d8e5:	48 8d 35 9c 35 01 00 	lea    rsi,[rip+0x1359c]        # 20e88 <realloc@@GLIBC_2.2.5+0x6f58>
    d8ec:	48 8d 3d b5 35 01 00 	lea    rdi,[rip+0x135b5]        # 20ea8 <realloc@@GLIBC_2.2.5+0x6f78>
    d8f3:	ba 05 02 00 00       	mov    edx,0x205
    d8f8:	e8 e3 c5 00 00       	call   19ee0 <free@@GLIBC_2.2.5+0x160>
    d8fd:	48 8b b9 48 04 00 00 	mov    rdi,QWORD PTR [rcx+0x448]
    d904:	4c 89 9d e0 fe ff ff 	mov    QWORD PTR [rbp-0x120],r11
    d90b:	4c 89 95 28 ff ff ff 	mov    QWORD PTR [rbp-0xd8],r10
    d912:	48 89 8d 30 ff ff ff 	mov    QWORD PTR [rbp-0xd0],rcx
    d919:	e8 02 5f 00 00       	call   13820 <_dl_deallocate_tls@@GLIBC_PRIVATE+0x90>
    d91e:	4c 8b 9d e0 fe ff ff 	mov    r11,QWORD PTR [rbp-0x120]
    d925:	4c 8b 95 28 ff ff ff 	mov    r10,QWORD PTR [rbp-0xd8]
    d92c:	48 8b 8d 30 ff ff ff 	mov    rcx,QWORD PTR [rbp-0xd0]
    d933:	e9 99 fd ff ff       	jmp    d6d1 <_dl_rtld_di_serinfo@@GLIBC_PRIVATE+0x4251>
    d938:	80 89 15 03 00 00 04 	or     BYTE PTR [rcx+0x315],0x4
    d93f:	e9 82 f9 ff ff       	jmp    d2c6 <_dl_rtld_di_serinfo@@GLIBC_PRIVATE+0x3e46>
    d944:	48 8b b9 48 04 00 00 	mov    rdi,QWORD PTR [rcx+0x448]
    d94b:	4c 89 95 10 ff ff ff 	mov    QWORD PTR [rbp-0xf0],r10
    d952:	48 89 8d 30 ff ff ff 	mov    QWORD PTR [rbp-0xd0],rcx
    d959:	e8 c2 5e 00 00       	call   13820 <_dl_deallocate_tls@@GLIBC_PRIVATE+0x90>
    d95e:	4c 8b 95 10 ff ff ff 	mov    r10,QWORD PTR [rbp-0xf0]
    d965:	48 8b 8d 30 ff ff ff 	mov    rcx,QWORD PTR [rbp-0xd0]
    d96c:	e9 35 ff ff ff       	jmp    d8a6 <_dl_rtld_di_serinfo@@GLIBC_PRIVATE+0x4426>
    d971:	48 8d 0d 08 3d 01 00 	lea    rcx,[rip+0x13d08]        # 21680 <realloc@@GLIBC_2.2.5+0x7750>
    d978:	4d 89 e3             	mov    r11,r12
    d97b:	49 8b 73 08          	mov    rsi,QWORD PTR [r11+0x8]
    d97f:	8b 3d 9b 97 21 00    	mov    edi,DWORD PTR [rip+0x21979b]        # 227120 <_rtld_global@@GLIBC_PRIVATE+0x10e0>
    d985:	31 d2                	xor    edx,edx
    d987:	e8 64 27 00 00       	call   100f0 <_dl_rtld_di_serinfo@@GLIBC_PRIVATE+0x6c70>
    d98c:	4d 89 e3             	mov    r11,r12
    d98f:	48 8d 0d 1a 3d 01 00 	lea    rcx,[rip+0x13d1a]        # 216b0 <realloc@@GLIBC_2.2.5+0x7780>
    d996:	eb e3                	jmp    d97b <_dl_rtld_di_serinfo@@GLIBC_PRIVATE+0x44fb>
    d998:	0f 1f 84 00 00 00 00 	nop    DWORD PTR [rax+rax*1+0x0]
    d99f:	00 
    d9a0:	53                   	push   rbx
    d9a1:	48 89 fb             	mov    rbx,rdi
    d9a4:	48 8b 3f             	mov    rdi,QWORD PTR [rdi]
    d9a7:	8b 4b 08             	mov    ecx,DWORD PTR [rbx+0x8]
    d9aa:	48 8b 73 18          	mov    rsi,QWORD PTR [rbx+0x18]
    d9ae:	44 8b 43 0c          	mov    r8d,DWORD PTR [rbx+0xc]
    d9b2:	0f b6 87 14 03 00 00 	movzx  eax,BYTE PTR [rdi+0x314]
    d9b9:	4c 8b 4f 30          	mov    r9,QWORD PTR [rdi+0x30]
    d9bd:	83 e0 03             	and    eax,0x3
    d9c0:	84 c0                	test   al,al
    d9c2:	0f b6 d0             	movzx  edx,al
    d9c5:	b8 01 00 00 00       	mov    eax,0x1
    d9ca:	0f 44 d0             	cmove  edx,eax
    d9cd:	e8 3e ae ff ff       	call   8810 <free@plt+0x7d60>
    d9d2:	48 89 43 20          	mov    QWORD PTR [rbx+0x20],rax
    d9d6:	5b                   	pop    rbx
    d9d7:	c3                   	ret
    d9d8:	0f 1f 84 00 00 00 00 	nop    DWORD PTR [rax+rax*1+0x0]
    d9df:	00 
    d9e0:	41 57                	push   r15
    d9e2:	41 56                	push   r14
    d9e4:	48 89 f8             	mov    rax,rdi
    d9e7:	41 55                	push   r13
    d9e9:	41 54                	push   r12
    d9eb:	48 83 c0 08          	add    rax,0x8
    d9ef:	55                   	push   rbp
    d9f0:	53                   	push   rbx
    d9f1:	48 83 ec 38          	sub    rsp,0x38
    d9f5:	48 89 37             	mov    QWORD PTR [rdi],rsi
    d9f8:	0f b6 96 14 03 00 00 	movzx  edx,BYTE PTR [rsi+0x314]
    d9ff:	48 89 7c 24 28       	mov    QWORD PTR [rsp+0x28],rdi
    da04:	83 e2 9f             	and    edx,0xffffff9f
    da07:	83 ca 20             	or     edx,0x20
    da0a:	88 96 14 03 00 00    	mov    BYTE PTR [rsi+0x314],dl
    da10:	48 8b 96 b8 03 00 00 	mov    rdx,QWORD PTR [rsi+0x3b8]
    da17:	48 85 d2             	test   rdx,rdx
    da1a:	0f 84 6d 03 00 00    	je     dd8d <_dl_rtld_di_serinfo@@GLIBC_PRIVATE+0x490d>
    da20:	48 8d 4a 08          	lea    rcx,[rdx+0x8]
    da24:	48 8b 52 08          	mov    rdx,QWORD PTR [rdx+0x8]
    da28:	48 89 4c 24 18       	mov    QWORD PTR [rsp+0x18],rcx
    da2d:	48 85 d2             	test   rdx,rdx
    da30:	75 25                	jne    da57 <_dl_rtld_di_serinfo@@GLIBC_PRIVATE+0x45d7>
    da32:	e9 56 03 00 00       	jmp    dd8d <_dl_rtld_di_serinfo@@GLIBC_PRIVATE+0x490d>
    da37:	66 0f 1f 84 00 00 00 	nop    WORD PTR [rax+rax*1+0x0]
    da3e:	00 00 
    da40:	48 83 44 24 18 08    	add    QWORD PTR [rsp+0x18],0x8
    da46:	48 8b 4c 24 18       	mov    rcx,QWORD PTR [rsp+0x18]
    da4b:	48 8b 11             	mov    rdx,QWORD PTR [rcx]
    da4e:	48 85 d2             	test   rdx,rdx
    da51:	0f 84 36 03 00 00    	je     dd8d <_dl_rtld_di_serinfo@@GLIBC_PRIVATE+0x490d>
    da57:	f6 82 14 03 00 00 60 	test   BYTE PTR [rdx+0x314],0x60
    da5e:	75 e0                	jne    da40 <_dl_rtld_di_serinfo@@GLIBC_PRIVATE+0x45c0>
    da60:	48 89 10             	mov    QWORD PTR [rax],rdx
    da63:	48 8d 70 08          	lea    rsi,[rax+0x8]
    da67:	0f b6 82 14 03 00 00 	movzx  eax,BYTE PTR [rdx+0x314]
    da6e:	83 e0 9f             	and    eax,0xffffff9f
    da71:	83 c8 20             	or     eax,0x20
    da74:	88 82 14 03 00 00    	mov    BYTE PTR [rdx+0x314],al
    da7a:	48 8b 82 b8 03 00 00 	mov    rax,QWORD PTR [rdx+0x3b8]
    da81:	48 85 c0             	test   rax,rax
    da84:	0f 84 fb 02 00 00    	je     dd85 <_dl_rtld_di_serinfo@@GLIBC_PRIVATE+0x4905>
    da8a:	48 8d 48 08          	lea    rcx,[rax+0x8]
    da8e:	48 8b 40 08          	mov    rax,QWORD PTR [rax+0x8]
    da92:	48 89 4c 24 20       	mov    QWORD PTR [rsp+0x20],rcx
    da97:	48 85 c0             	test   rax,rax
    da9a:	75 23                	jne    dabf <_dl_rtld_di_serinfo@@GLIBC_PRIVATE+0x463f>
    da9c:	e9 e4 02 00 00       	jmp    dd85 <_dl_rtld_di_serinfo@@GLIBC_PRIVATE+0x4905>
    daa1:	0f 1f 80 00 00 00 00 	nop    DWORD PTR [rax+0x0]
    daa8:	48 83 44 24 20 08    	add    QWORD PTR [rsp+0x20],0x8
    daae:	48 8b 44 24 20       	mov    rax,QWORD PTR [rsp+0x20]
    dab3:	48 8b 00             	mov    rax,QWORD PTR [rax]
    dab6:	48 85 c0             	test   rax,rax
    dab9:	0f 84 c6 02 00 00    	je     dd85 <_dl_rtld_di_serinfo@@GLIBC_PRIVATE+0x4905>
    dabf:	f6 80 14 03 00 00 60 	test   BYTE PTR [rax+0x314],0x60
    dac6:	75 e0                	jne    daa8 <_dl_rtld_di_serinfo@@GLIBC_PRIVATE+0x4628>
    dac8:	48 89 06             	mov    QWORD PTR [rsi],rax
    dacb:	0f b6 90 14 03 00 00 	movzx  edx,BYTE PTR [rax+0x314]
    dad2:	4c 8d 7e 08          	lea    r15,[rsi+0x8]
    dad6:	83 e2 9f             	and    edx,0xffffff9f
    dad9:	83 ca 20             	or     edx,0x20
    dadc:	88 90 14 03 00 00    	mov    BYTE PTR [rax+0x314],dl
    dae2:	48 8b 80 b8 03 00 00 	mov    rax,QWORD PTR [rax+0x3b8]
    dae9:	48 85 c0             	test   rax,rax
    daec:	0f 84 7b 02 00 00    	je     dd6d <_dl_rtld_di_serinfo@@GLIBC_PRIVATE+0x48ed>
    daf2:	48 8d 48 08          	lea    rcx,[rax+0x8]
    daf6:	48 8b 40 08          	mov    rax,QWORD PTR [rax+0x8]
    dafa:	48 89 4c 24 10       	mov    QWORD PTR [rsp+0x10],rcx
    daff:	48 85 c0             	test   rax,rax
    db02:	75 23                	jne    db27 <_dl_rtld_di_serinfo@@GLIBC_PRIVATE+0x46a7>
    db04:	e9 64 02 00 00       	jmp    dd6d <_dl_rtld_di_serinfo@@GLIBC_PRIVATE+0x48ed>
    db09:	0f 1f 80 00 00 00 00 	nop    DWORD PTR [rax+0x0]
    db10:	48 83 44 24 10 08    	add    QWORD PTR [rsp+0x10],0x8
    db16:	48 8b 44 24 10       	mov    rax,QWORD PTR [rsp+0x10]
    db1b:	48 8b 00             	mov    rax,QWORD PTR [rax]
    db1e:	48 85 c0             	test   rax,rax
    db21:	0f 84 46 02 00 00    	je     dd6d <_dl_rtld_di_serinfo@@GLIBC_PRIVATE+0x48ed>
    db27:	f6 80 14 03 00 00 60 	test   BYTE PTR [rax+0x314],0x60
    db2e:	75 e0                	jne    db10 <_dl_rtld_di_serinfo@@GLIBC_PRIVATE+0x4690>
    db30:	49 89 07             	mov    QWORD PTR [r15],rax
    db33:	0f b6 90 14 03 00 00 	movzx  edx,BYTE PTR [rax+0x314]
    db3a:	49 8d 77 08          	lea    rsi,[r15+0x8]
    db3e:	83 e2 9f             	and    edx,0xffffff9f
    db41:	83 ca 20             	or     edx,0x20
    db44:	88 90 14 03 00 00    	mov    BYTE PTR [rax+0x314],dl
    db4a:	48 8b 80 b8 03 00 00 	mov    rax,QWORD PTR [rax+0x3b8]
    db51:	48 85 c0             	test   rax,rax
    db54:	0f 84 23 02 00 00    	je     dd7d <_dl_rtld_di_serinfo@@GLIBC_PRIVATE+0x48fd>
    db5a:	48 8d 48 08          	lea    rcx,[rax+0x8]
    db5e:	48 8b 40 08          	mov    rax,QWORD PTR [rax+0x8]
    db62:	49 89 f7             	mov    r15,rsi
    db65:	48 89 4c 24 08       	mov    QWORD PTR [rsp+0x8],rcx
    db6a:	48 85 c0             	test   rax,rax
    db6d:	75 15                	jne    db84 <_dl_rtld_di_serinfo@@GLIBC_PRIVATE+0x4704>
    db6f:	eb 9f                	jmp    db10 <_dl_rtld_di_serinfo@@GLIBC_PRIVATE+0x4690>
    db71:	48 83 44 24 08 08    	add    QWORD PTR [rsp+0x8],0x8
    db77:	48 8b 44 24 08       	mov    rax,QWORD PTR [rsp+0x8]
    db7c:	48 8b 00             	mov    rax,QWORD PTR [rax]
    db7f:	48 85 c0             	test   rax,rax
    db82:	74 8c                	je     db10 <_dl_rtld_di_serinfo@@GLIBC_PRIVATE+0x4690>
    db84:	f6 80 14 03 00 00 60 	test   BYTE PTR [rax+0x314],0x60
    db8b:	75 e4                	jne    db71 <_dl_rtld_di_serinfo@@GLIBC_PRIVATE+0x46f1>
    db8d:	49 89 07             	mov    QWORD PTR [r15],rax
    db90:	0f b6 90 14 03 00 00 	movzx  edx,BYTE PTR [rax+0x314]
    db97:	49 8d 77 08          	lea    rsi,[r15+0x8]
    db9b:	83 e2 9f             	and    edx,0xffffff9f
    db9e:	83 ca 20             	or     edx,0x20
    dba1:	88 90 14 03 00 00    	mov    BYTE PTR [rax+0x314],dl
    dba7:	48 8b 80 b8 03 00 00 	mov    rax,QWORD PTR [rax+0x3b8]
    dbae:	48 85 c0             	test   rax,rax
    dbb1:	0f 84 be 01 00 00    	je     dd75 <_dl_rtld_di_serinfo@@GLIBC_PRIVATE+0x48f5>
    dbb7:	4c 8d 60 08          	lea    r12,[rax+0x8]
    dbbb:	48 8b 40 08          	mov    rax,QWORD PTR [rax+0x8]
    dbbf:	49 89 f7             	mov    r15,rsi
    dbc2:	48 85 c0             	test   rax,rax
    dbc5:	75 16                	jne    dbdd <_dl_rtld_di_serinfo@@GLIBC_PRIVATE+0x475d>
    dbc7:	eb a8                	jmp    db71 <_dl_rtld_di_serinfo@@GLIBC_PRIVATE+0x46f1>
    dbc9:	0f 1f 80 00 00 00 00 	nop    DWORD PTR [rax+0x0]
    dbd0:	49 83 c4 08          	add    r12,0x8
    dbd4:	49 8b 04 24          	mov    rax,QWORD PTR [r12]
    dbd8:	48 85 c0             	test   rax,rax
    dbdb:	74 94                	je     db71 <_dl_rtld_di_serinfo@@GLIBC_PRIVATE+0x46f1>
    dbdd:	f6 80 14 03 00 00 60 	test   BYTE PTR [rax+0x314],0x60
    dbe4:	75 ea                	jne    dbd0 <_dl_rtld_di_serinfo@@GLIBC_PRIVATE+0x4750>
    dbe6:	49 89 07             	mov    QWORD PTR [r15],rax
    dbe9:	0f b6 90 14 03 00 00 	movzx  edx,BYTE PTR [rax+0x314]
    dbf0:	49 8d 77 08          	lea    rsi,[r15+0x8]
    dbf4:	83 e2 9f             	and    edx,0xffffff9f
    dbf7:	83 ca 20             	or     edx,0x20
    dbfa:	88 90 14 03 00 00    	mov    BYTE PTR [rax+0x314],dl
    dc00:	48 8b 80 b8 03 00 00 	mov    rax,QWORD PTR [rax+0x3b8]
    dc07:	48 85 c0             	test   rax,rax
    dc0a:	0f 84 55 01 00 00    	je     dd65 <_dl_rtld_di_serinfo@@GLIBC_PRIVATE+0x48e5>
    dc10:	48 8d 68 08          	lea    rbp,[rax+0x8]
    dc14:	48 8b 40 08          	mov    rax,QWORD PTR [rax+0x8]
    dc18:	49 89 f7             	mov    r15,rsi
    dc1b:	48 85 c0             	test   rax,rax
    dc1e:	75 15                	jne    dc35 <_dl_rtld_di_serinfo@@GLIBC_PRIVATE+0x47b5>
    dc20:	eb ae                	jmp    dbd0 <_dl_rtld_di_serinfo@@GLIBC_PRIVATE+0x4750>
    dc22:	66 0f 1f 44 00 00    	nop    WORD PTR [rax+rax*1+0x0]
    dc28:	48 83 c5 08          	add    rbp,0x8
    dc2c:	48 8b 45 00          	mov    rax,QWORD PTR [rbp+0x0]
    dc30:	48 85 c0             	test   rax,rax
    dc33:	74 9b                	je     dbd0 <_dl_rtld_di_serinfo@@GLIBC_PRIVATE+0x4750>
    dc35:	f6 80 14 03 00 00 60 	test   BYTE PTR [rax+0x314],0x60
    dc3c:	75 ea                	jne    dc28 <_dl_rtld_di_serinfo@@GLIBC_PRIVATE+0x47a8>
    dc3e:	49 89 07             	mov    QWORD PTR [r15],rax
    dc41:	0f b6 90 14 03 00 00 	movzx  edx,BYTE PTR [rax+0x314]
    dc48:	49 8d 77 08          	lea    rsi,[r15+0x8]
    dc4c:	83 e2 9f             	and    edx,0xffffff9f
    dc4f:	83 ca 20             	or     edx,0x20
    dc52:	88 90 14 03 00 00    	mov    BYTE PTR [rax+0x314],dl
    dc58:	48 8b 80 b8 03 00 00 	mov    rax,QWORD PTR [rax+0x3b8]
    dc5f:	48 85 c0             	test   rax,rax
    dc62:	0f 84 f5 00 00 00    	je     dd5d <_dl_rtld_di_serinfo@@GLIBC_PRIVATE+0x48dd>
    dc68:	48 8d 58 08          	lea    rbx,[rax+0x8]
    dc6c:	48 8b 40 08          	mov    rax,QWORD PTR [rax+0x8]
    dc70:	49 89 f7             	mov    r15,rsi
    dc73:	48 85 c0             	test   rax,rax
    dc76:	75 14                	jne    dc8c <_dl_rtld_di_serinfo@@GLIBC_PRIVATE+0x480c>
    dc78:	eb ae                	jmp    dc28 <_dl_rtld_di_serinfo@@GLIBC_PRIVATE+0x47a8>
    dc7a:	66 0f 1f 44 00 00    	nop    WORD PTR [rax+rax*1+0x0]
    dc80:	48 83 c3 08          	add    rbx,0x8
    dc84:	48 8b 03             	mov    rax,QWORD PTR [rbx]
    dc87:	48 85 c0             	test   rax,rax
    dc8a:	74 9c                	je     dc28 <_dl_rtld_di_serinfo@@GLIBC_PRIVATE+0x47a8>
    dc8c:	f6 80 14 03 00 00 60 	test   BYTE PTR [rax+0x314],0x60
    dc93:	75 eb                	jne    dc80 <_dl_rtld_di_serinfo@@GLIBC_PRIVATE+0x4800>
    dc95:	49 89 07             	mov    QWORD PTR [r15],rax
    dc98:	0f b6 90 14 03 00 00 	movzx  edx,BYTE PTR [rax+0x314]
    dc9f:	49 8d 77 08          	lea    rsi,[r15+0x8]
    dca3:	83 e2 9f             	and    edx,0xffffff9f
    dca6:	83 ca 20             	or     edx,0x20
    dca9:	88 90 14 03 00 00    	mov    BYTE PTR [rax+0x314],dl
    dcaf:	48 8b 80 b8 03 00 00 	mov    rax,QWORD PTR [rax+0x3b8]
    dcb6:	48 85 c0             	test   rax,rax
    dcb9:	0f 84 96 00 00 00    	je     dd55 <_dl_rtld_di_serinfo@@GLIBC_PRIVATE+0x48d5>
    dcbf:	4c 8d 70 08          	lea    r14,[rax+0x8]
    dcc3:	48 8b 40 08          	mov    rax,QWORD PTR [rax+0x8]
    dcc7:	49 89 f7             	mov    r15,rsi
    dcca:	48 85 c0             	test   rax,rax
    dccd:	75 15                	jne    dce4 <_dl_rtld_di_serinfo@@GLIBC_PRIVATE+0x4864>
    dccf:	eb af                	jmp    dc80 <_dl_rtld_di_serinfo@@GLIBC_PRIVATE+0x4800>
    dcd1:	0f 1f 80 00 00 00 00 	nop    DWORD PTR [rax+0x0]
    dcd8:	49 83 c6 08          	add    r14,0x8
    dcdc:	49 8b 06             	mov    rax,QWORD PTR [r14]
    dcdf:	48 85 c0             	test   rax,rax
    dce2:	74 9c                	je     dc80 <_dl_rtld_di_serinfo@@GLIBC_PRIVATE+0x4800>
    dce4:	f6 80 14 03 00 00 60 	test   BYTE PTR [rax+0x314],0x60
    dceb:	75 eb                	jne    dcd8 <_dl_rtld_di_serinfo@@GLIBC_PRIVATE+0x4858>
    dced:	49 89 07             	mov    QWORD PTR [r15],rax
    dcf0:	0f b6 90 14 03 00 00 	movzx  edx,BYTE PTR [rax+0x314]
    dcf7:	49 8d 7f 08          	lea    rdi,[r15+0x8]
    dcfb:	83 e2 9f             	and    edx,0xffffff9f
    dcfe:	83 ca 20             	or     edx,0x20
    dd01:	88 90 14 03 00 00    	mov    BYTE PTR [rax+0x314],dl
    dd07:	48 8b 80 b8 03 00 00 	mov    rax,QWORD PTR [rax+0x3b8]
    dd0e:	48 85 c0             	test   rax,rax
    dd11:	74 3d                	je     dd50 <_dl_rtld_di_serinfo@@GLIBC_PRIVATE+0x48d0>
    dd13:	48 8b 70 08          	mov    rsi,QWORD PTR [rax+0x8]
    dd17:	4c 8d 68 08          	lea    r13,[rax+0x8]
    dd1b:	49 89 ff             	mov    r15,rdi
    dd1e:	48 85 f6             	test   rsi,rsi
    dd21:	75 12                	jne    dd35 <_dl_rtld_di_serinfo@@GLIBC_PRIVATE+0x48b5>
    dd23:	eb b3                	jmp    dcd8 <_dl_rtld_di_serinfo@@GLIBC_PRIVATE+0x4858>
    dd25:	0f 1f 00             	nop    DWORD PTR [rax]
    dd28:	49 83 c5 08          	add    r13,0x8
    dd2c:	49 8b 75 00          	mov    rsi,QWORD PTR [r13+0x0]
    dd30:	48 85 f6             	test   rsi,rsi
    dd33:	74 a3                	je     dcd8 <_dl_rtld_di_serinfo@@GLIBC_PRIVATE+0x4858>
    dd35:	f6 86 14 03 00 00 60 	test   BYTE PTR [rsi+0x314],0x60
    dd3c:	75 ea                	jne    dd28 <_dl_rtld_di_serinfo@@GLIBC_PRIVATE+0x48a8>
    dd3e:	4c 89 ff             	mov    rdi,r15
    dd41:	e8 9a fc ff ff       	call   d9e0 <_dl_rtld_di_serinfo@@GLIBC_PRIVATE+0x4560>
    dd46:	4d 8d 3c c7          	lea    r15,[r15+rax*8]
    dd4a:	eb dc                	jmp    dd28 <_dl_rtld_di_serinfo@@GLIBC_PRIVATE+0x48a8>
    dd4c:	0f 1f 40 00          	nop    DWORD PTR [rax+0x0]
    dd50:	49 89 ff             	mov    r15,rdi
    dd53:	eb 83                	jmp    dcd8 <_dl_rtld_di_serinfo@@GLIBC_PRIVATE+0x4858>
    dd55:	49 89 f7             	mov    r15,rsi
    dd58:	e9 23 ff ff ff       	jmp    dc80 <_dl_rtld_di_serinfo@@GLIBC_PRIVATE+0x4800>
    dd5d:	49 89 f7             	mov    r15,rsi
    dd60:	e9 c3 fe ff ff       	jmp    dc28 <_dl_rtld_di_serinfo@@GLIBC_PRIVATE+0x47a8>
    dd65:	49 89 f7             	mov    r15,rsi
    dd68:	e9 63 fe ff ff       	jmp    dbd0 <_dl_rtld_di_serinfo@@GLIBC_PRIVATE+0x4750>
    dd6d:	4c 89 fe             	mov    rsi,r15
    dd70:	e9 33 fd ff ff       	jmp    daa8 <_dl_rtld_di_serinfo@@GLIBC_PRIVATE+0x4628>
    dd75:	49 89 f7             	mov    r15,rsi
    dd78:	e9 f4 fd ff ff       	jmp    db71 <_dl_rtld_di_serinfo@@GLIBC_PRIVATE+0x46f1>
    dd7d:	49 89 f7             	mov    r15,rsi
    dd80:	e9 8b fd ff ff       	jmp    db10 <_dl_rtld_di_serinfo@@GLIBC_PRIVATE+0x4690>
    dd85:	48 89 f0             	mov    rax,rsi
    dd88:	e9 b3 fc ff ff       	jmp    da40 <_dl_rtld_di_serinfo@@GLIBC_PRIVATE+0x45c0>
    dd8d:	48 2b 44 24 28       	sub    rax,QWORD PTR [rsp+0x28]
    dd92:	48 83 c4 38          	add    rsp,0x38
    dd96:	5b                   	pop    rbx
    dd97:	5d                   	pop    rbp
    dd98:	41 5c                	pop    r12
    dd9a:	48 c1 f8 03          	sar    rax,0x3
    dd9e:	41 5d                	pop    r13
    dda0:	41 5e                	pop    r14
    dda2:	41 5f                	pop    r15
    dda4:	c3                   	ret
    dda5:	90                   	nop
    dda6:	66 2e 0f 1f 84 00 00 	cs nop WORD PTR [rax+rax*1+0x0]
    ddad:	00 00 00 
    ddb0:	8d 42 02             	lea    eax,[rdx+0x2]
    ddb3:	55                   	push   rbp
    ddb4:	48 8d 04 40          	lea    rax,[rax+rax*2]
    ddb8:	48 89 e5             	mov    rbp,rsp
    ddbb:	41 57                	push   r15
    ddbd:	41 56                	push   r14
    ddbf:	41 55                	push   r13
    ddc1:	48 8d 04 c5 1e 00 00 	lea    rax,[rax*8+0x1e]
    ddc8:	00 
    ddc9:	41 54                	push   r12
    ddcb:	53                   	push   rbx
    ddcc:	48 c1 e8 04          	shr    rax,0x4
    ddd0:	48 81 ec e8 00 00 00 	sub    rsp,0xe8
    ddd7:	44 89 85 fc fe ff ff 	mov    DWORD PTR [rbp-0x104],r8d
    ddde:	48 c1 e0 04          	shl    rax,0x4
    dde2:	48 89 bd 38 ff ff ff 	mov    QWORD PTR [rbp-0xc8],rdi
    dde9:	89 8d 04 ff ff ff    	mov    DWORD PTR [rbp-0xfc],ecx
    ddef:	48 29 c4             	sub    rsp,rax
    ddf2:	4c 8d 44 24 0f       	lea    r8,[rsp+0xf]
    ddf7:	49 83 e0 f0          	and    r8,0xfffffffffffffff0
    ddfb:	49 8d 40 18          	lea    rax,[r8+0x18]
    ddff:	4d 89 c7             	mov    r15,r8
    de02:	41 c7 00 00 00 00 00 	mov    DWORD PTR [r8],0x0
    de09:	49 89 78 08          	mov    QWORD PTR [r8+0x8],rdi
    de0d:	49 89 40 10          	mov    QWORD PTR [r8+0x10],rax
    de11:	0f b6 87 14 03 00 00 	movzx  eax,BYTE PTR [rdi+0x314]
    de18:	88 85 78 ff ff ff    	mov    BYTE PTR [rbp-0x88],al
    de1e:	83 e0 9f             	and    eax,0xffffff9f
    de21:	83 c8 20             	or     eax,0x20
    de24:	85 d2                	test   edx,edx
    de26:	88 87 14 03 00 00    	mov    BYTE PTR [rdi+0x314],al
    de2c:	0f 84 50 0f 00 00    	je     ed82 <_dl_rtld_di_serinfo@@GLIBC_PRIVATE+0x5902>
    de32:	8d 42 01             	lea    eax,[rdx+0x1]
    de35:	49 89 f1             	mov    r9,rsi
    de38:	b9 01 00 00 00       	mov    ecx,0x1
    de3d:	be 01 00 00 00       	mov    esi,0x1
    de42:	89 85 20 ff ff ff    	mov    DWORD PTR [rbp-0xe0],eax
    de48:	41 89 c3             	mov    r11d,eax
    de4b:	48 8d 04 49          	lea    rax,[rcx+rcx*2]
    de4f:	8d 4e 01             	lea    ecx,[rsi+0x1]
    de52:	49 8b 39             	mov    rdi,QWORD PTR [r9]
    de55:	49 83 c1 08          	add    r9,0x8
    de59:	4c 8d 14 49          	lea    r10,[rcx+rcx*2]
    de5d:	49 8d 04 c0          	lea    rax,[r8+rax*8]
    de61:	48 89 ce             	mov    rsi,rcx
    de64:	4f 8d 14 d0          	lea    r10,[r8+r10*8]
    de68:	c7 00 00 00 00 00    	mov    DWORD PTR [rax],0x0
    de6e:	48 89 78 08          	mov    QWORD PTR [rax+0x8],rdi
    de72:	4c 89 50 10          	mov    QWORD PTR [rax+0x10],r10
    de76:	0f b6 87 14 03 00 00 	movzx  eax,BYTE PTR [rdi+0x314]
    de7d:	83 e0 9f             	and    eax,0xffffff9f
    de80:	83 c8 20             	or     eax,0x20
    de83:	44 39 d9             	cmp    ecx,r11d
    de86:	88 87 14 03 00 00    	mov    BYTE PTR [rdi+0x314],al
    de8c:	75 bd                	jne    de4b <_dl_rtld_di_serinfo@@GLIBC_PRIVATE+0x49cb>
    de8e:	89 d2                	mov    edx,edx
    de90:	4d 8b 68 08          	mov    r13,QWORD PTR [r8+0x8]
    de94:	48 8d 04 52          	lea    rax,[rdx+rdx*2]
    de98:	48 c1 e0 03          	shl    rax,0x3
    de9c:	4c 01 c0             	add    rax,r8
    de9f:	48 c7 45 90 00 00 00 	mov    QWORD PTR [rbp-0x70],0x0
    dea6:	00 
    dea7:	4c 89 85 28 ff ff ff 	mov    QWORD PTR [rbp-0xd8],r8
    deae:	48 89 85 68 ff ff ff 	mov    QWORD PTR [rbp-0x98],rax
    deb5:	48 c7 40 10 00 00 00 	mov    QWORD PTR [rax+0x10],0x0
    debc:	00 
    debd:	8b 05 5d 92 21 00    	mov    eax,DWORD PTR [rip+0x21925d]        # 227120 <_rtld_global@@GLIBC_PRIVATE+0x10e0>
    dec3:	48 c7 85 10 ff ff ff 	mov    QWORD PTR [rbp-0xf0],0x0
    deca:	00 00 00 00 
    dece:	c7 05 48 92 21 00 00 	mov    DWORD PTR [rip+0x219248],0x0        # 227120 <_rtld_global@@GLIBC_PRIVATE+0x10e0>
    ded5:	00 00 00 
    ded8:	48 c7 85 18 ff ff ff 	mov    QWORD PTR [rbp-0xe8],0x0
    dedf:	00 00 00 00 
    dee3:	4c 89 bd 08 ff ff ff 	mov    QWORD PTR [rbp-0xf8],r15
    deea:	89 85 00 ff ff ff    	mov    DWORD PTR [rbp-0x100],eax
    def0:	48 8d 45 a0          	lea    rax,[rbp-0x60]
    def4:	48 89 85 58 ff ff ff 	mov    QWORD PTR [rbp-0xa8],rax
    defb:	48 8d 45 8f          	lea    rax,[rbp-0x71]
    deff:	48 89 85 50 ff ff ff 	mov    QWORD PTR [rbp-0xb0],rax
    df06:	48 8d 45 90          	lea    rax,[rbp-0x70]
    df0a:	48 89 85 48 ff ff ff 	mov    QWORD PTR [rbp-0xb8],rax
    df11:	48 8d 45 98          	lea    rax,[rbp-0x68]
    df15:	48 89 85 40 ff ff ff 	mov    QWORD PTR [rbp-0xc0],rax
    df1c:	4c 89 c0             	mov    rax,r8
    df1f:	49 83 bd b8 02 00 00 	cmp    QWORD PTR [r13+0x2b8],0x0
    df26:	00 
    df27:	c7 00 01 00 00 00    	mov    DWORD PTR [rax],0x1
    df2d:	48 c7 85 78 ff ff ff 	mov    QWORD PTR [rbp-0x88],0x0
    df34:	00 00 00 00 
    df38:	0f 84 5a 0b 00 00    	je     ea98 <_dl_rtld_di_serinfo@@GLIBC_PRIVATE+0x5618>
    df3e:	49 83 7d 48 00       	cmp    QWORD PTR [r13+0x48],0x0
    df43:	0f 84 27 0b 00 00    	je     ea70 <_dl_rtld_di_serinfo@@GLIBC_PRIVATE+0x55f0>
    df49:	49 8b 45 68          	mov    rax,QWORD PTR [r13+0x68]
    df4d:	4d 8b 65 10          	mov    r12,QWORD PTR [r13+0x10]
    df51:	4c 89 6d a0          	mov    QWORD PTR [rbp-0x60],r13
    df55:	48 8b 40 08          	mov    rax,QWORD PTR [rax+0x8]
    df59:	48 89 85 70 ff ff ff 	mov    QWORD PTR [rbp-0x90],rax
    df60:	48 89 45 b0          	mov    QWORD PTR [rbp-0x50],rax
    df64:	8b 85 04 ff ff ff    	mov    eax,DWORD PTR [rbp-0xfc]
    df6a:	89 45 a8             	mov    DWORD PTR [rbp-0x58],eax
    df6d:	8b 85 fc fe ff ff    	mov    eax,DWORD PTR [rbp-0x104]
    df73:	89 45 ac             	mov    DWORD PTR [rbp-0x54],eax
    df76:	49 8b 04 24          	mov    rax,QWORD PTR [r12]
    df7a:	48 85 c0             	test   rax,rax
    df7d:	0f 84 09 0b 00 00    	je     ea8c <_dl_rtld_di_serinfo@@GLIBC_PRIVATE+0x560c>
    df83:	48 8b b5 28 ff ff ff 	mov    rsi,QWORD PTR [rbp-0xd8]
    df8a:	45 31 ff             	xor    r15d,r15d
    df8d:	48 89 f3             	mov    rbx,rsi
    df90:	eb 28                	jmp    dfba <_dl_rtld_di_serinfo@@GLIBC_PRIVATE+0x4b3a>
    df92:	48 8b 8d 78 ff ff ff 	mov    rcx,QWORD PTR [rbp-0x88]
    df99:	48 85 c9             	test   rcx,rcx
    df9c:	74 0b                	je     dfa9 <_dl_rtld_di_serinfo@@GLIBC_PRIVATE+0x4b29>
    df9e:	44 89 fa             	mov    edx,r15d
    dfa1:	41 83 c7 01          	add    r15d,0x1
    dfa5:	48 89 04 d1          	mov    QWORD PTR [rcx+rdx*8],rax
    dfa9:	49 83 c4 10          	add    r12,0x10
    dfad:	49 8b 04 24          	mov    rax,QWORD PTR [r12]
    dfb1:	48 85 c0             	test   rax,rax
    dfb4:	0f 84 19 02 00 00    	je     e1d3 <_dl_rtld_di_serinfo@@GLIBC_PRIVATE+0x4d53>
    dfba:	48 83 f8 01          	cmp    rax,0x1
    dfbe:	0f 85 bc 00 00 00    	jne    e080 <_dl_rtld_di_serinfo@@GLIBC_PRIVATE+0x4c00>
    dfc4:	4c 8b b5 70 ff ff ff 	mov    r14,QWORD PTR [rbp-0x90]
    dfcb:	4d 03 74 24 08       	add    r14,QWORD PTR [r12+0x8]
    dfd0:	be 24 00 00 00       	mov    esi,0x24
    dfd5:	4c 89 f7             	mov    rdi,r14
    dfd8:	e8 33 d7 00 00       	call   1b710 <realloc@@GLIBC_2.2.5+0x17e0>
    dfdd:	48 85 c0             	test   rax,rax
    dfe0:	0f 85 77 02 00 00    	jne    e25d <_dl_rtld_di_serinfo@@GLIBC_PRIVATE+0x4ddd>
    dfe6:	4c 8b 85 58 ff ff ff 	mov    r8,QWORD PTR [rbp-0xa8]
    dfed:	48 8b 95 50 ff ff ff 	mov    rdx,QWORD PTR [rbp-0xb0]
    dff4:	48 8d 0d a5 f9 ff ff 	lea    rcx,[rip+0xfffffffffffff9a5]        # d9a0 <_dl_rtld_di_serinfo@@GLIBC_PRIVATE+0x4520>
    dffb:	48 8b b5 48 ff ff ff 	mov    rsi,QWORD PTR [rbp-0xb8]
    e002:	48 8b bd 40 ff ff ff 	mov    rdi,QWORD PTR [rbp-0xc0]
    e009:	4c 89 75 b8          	mov    QWORD PTR [rbp-0x48],r14
    e00d:	e8 0e 23 00 00       	call   10320 <_dl_rtld_di_serinfo@@GLIBC_PRIVATE+0x6ea0>
    e012:	48 8b 4d 90          	mov    rcx,QWORD PTR [rbp-0x70]
    e016:	48 85 c9             	test   rcx,rcx
    e019:	0f 85 39 04 00 00    	jne    e458 <_dl_rtld_di_serinfo@@GLIBC_PRIVATE+0x4fd8>
    e01f:	48 8b 45 c0          	mov    rax,QWORD PTR [rbp-0x40]
    e023:	f6 80 14 03 00 00 60 	test   BYTE PTR [rax+0x314],0x60
    e02a:	0f 85 62 ff ff ff    	jne    df92 <_dl_rtld_di_serinfo@@GLIBC_PRIVATE+0x4b12>
    e030:	48 83 ec 30          	sub    rsp,0x30
    e034:	48 8b b5 68 ff ff ff 	mov    rsi,QWORD PTR [rbp-0x98]
    e03b:	83 85 20 ff ff ff 01 	add    DWORD PTR [rbp-0xe0],0x1
    e042:	48 8d 54 24 0f       	lea    rdx,[rsp+0xf]
    e047:	48 83 e2 f0          	and    rdx,0xfffffffffffffff0
    e04b:	48 89 42 08          	mov    QWORD PTR [rdx+0x8],rax
    e04f:	c7 02 00 00 00 00    	mov    DWORD PTR [rdx],0x0
    e055:	48 c7 42 10 00 00 00 	mov    QWORD PTR [rdx+0x10],0x0
    e05c:	00 
    e05d:	48 89 56 10          	mov    QWORD PTR [rsi+0x10],rdx
    e061:	0f b6 88 14 03 00 00 	movzx  ecx,BYTE PTR [rax+0x314]
    e068:	48 89 95 68 ff ff ff 	mov    QWORD PTR [rbp-0x98],rdx
    e06f:	83 e1 9f             	and    ecx,0xffffff9f
    e072:	83 c9 20             	or     ecx,0x20
    e075:	88 88 14 03 00 00    	mov    BYTE PTR [rax+0x314],cl
    e07b:	e9 12 ff ff ff       	jmp    df92 <_dl_rtld_di_serinfo@@GLIBC_PRIVATE+0x4b12>
    e080:	48 83 e0 fd          	and    rax,0xfffffffffffffffd
    e084:	48 3d fd ff ff 7f    	cmp    rax,0x7ffffffd
    e08a:	0f 85 19 ff ff ff    	jne    dfa9 <_dl_rtld_di_serinfo@@GLIBC_PRIVATE+0x4b29>
    e090:	4c 8b b5 70 ff ff ff 	mov    r14,QWORD PTR [rbp-0x90]
    e097:	4d 03 74 24 08       	add    r14,QWORD PTR [r12+0x8]
    e09c:	be 24 00 00 00       	mov    esi,0x24
    e0a1:	4c 89 f7             	mov    rdi,r14
    e0a4:	e8 67 d6 00 00       	call   1b710 <realloc@@GLIBC_2.2.5+0x17e0>
    e0a9:	48 85 c0             	test   rax,rax
    e0ac:	0f 85 66 02 00 00    	jne    e318 <_dl_rtld_di_serinfo@@GLIBC_PRIVATE+0x4e98>
    e0b2:	f6 05 e7 7b 21 00 01 	test   BYTE PTR [rip+0x217be7],0x1        # 225ca0 <_rtld_global_ro@@GLIBC_PRIVATE>
    e0b9:	4c 89 75 b8          	mov    QWORD PTR [rbp-0x48],r14
    e0bd:	0f 85 d2 0a 00 00    	jne    eb95 <_dl_rtld_di_serinfo@@GLIBC_PRIVATE+0x5715>
    e0c3:	48 8b bd 40 ff ff ff 	mov    rdi,QWORD PTR [rbp-0xc0]
    e0ca:	4c 8b 85 58 ff ff ff 	mov    r8,QWORD PTR [rbp-0xa8]
    e0d1:	48 8d 0d c8 f8 ff ff 	lea    rcx,[rip+0xfffffffffffff8c8]        # d9a0 <_dl_rtld_di_serinfo@@GLIBC_PRIVATE+0x4520>
    e0d8:	48 8b 95 50 ff ff ff 	mov    rdx,QWORD PTR [rbp-0xb0]
    e0df:	48 8b b5 48 ff ff ff 	mov    rsi,QWORD PTR [rbp-0xb8]
    e0e6:	e8 35 22 00 00       	call   10320 <_dl_rtld_di_serinfo@@GLIBC_PRIVATE+0x6ea0>
    e0eb:	48 8b 7d 90          	mov    rdi,QWORD PTR [rbp-0x70]
    e0ef:	48 85 ff             	test   rdi,rdi
    e0f2:	0f 85 92 0d 00 00    	jne    ee8a <_dl_rtld_di_serinfo@@GLIBC_PRIVATE+0x5a0a>
    e0f8:	48 83 ec 30          	sub    rsp,0x30
    e0fc:	48 8b 03             	mov    rax,QWORD PTR [rbx]
    e0ff:	48 8b b5 78 ff ff ff 	mov    rsi,QWORD PTR [rbp-0x88]
    e106:	48 8d 54 24 0f       	lea    rdx,[rsp+0xf]
    e10b:	48 83 e2 f0          	and    rdx,0xfffffffffffffff0
    e10f:	48 85 f6             	test   rsi,rsi
    e112:	48 89 02             	mov    QWORD PTR [rdx],rax
    e115:	48 8b 43 08          	mov    rax,QWORD PTR [rbx+0x8]
    e119:	48 89 42 08          	mov    QWORD PTR [rdx+0x8],rax
    e11d:	48 8b 43 10          	mov    rax,QWORD PTR [rbx+0x10]
    e121:	48 89 42 10          	mov    QWORD PTR [rdx+0x10],rax
    e125:	48 8b 45 c0          	mov    rax,QWORD PTR [rbp-0x40]
    e129:	c7 03 00 00 00 00    	mov    DWORD PTR [rbx],0x0
    e12f:	48 89 43 08          	mov    QWORD PTR [rbx+0x8],rax
    e133:	74 0b                	je     e140 <_dl_rtld_di_serinfo@@GLIBC_PRIVATE+0x4cc0>
    e135:	44 89 f9             	mov    ecx,r15d
    e138:	41 83 c7 01          	add    r15d,0x1
    e13c:	48 89 04 ce          	mov    QWORD PTR [rsi+rcx*8],rax
    e140:	f6 80 14 03 00 00 60 	test   BYTE PTR [rax+0x314],0x60
    e147:	0f 85 8c 08 00 00    	jne    e9d9 <_dl_rtld_di_serinfo@@GLIBC_PRIVATE+0x5559>
    e14d:	48 89 53 10          	mov    QWORD PTR [rbx+0x10],rdx
    e151:	0f b6 88 14 03 00 00 	movzx  ecx,BYTE PTR [rax+0x314]
    e158:	83 85 20 ff ff ff 01 	add    DWORD PTR [rbp-0xe0],0x1
    e15f:	83 e1 9f             	and    ecx,0xffffff9f
    e162:	83 c9 20             	or     ecx,0x20
    e165:	88 88 14 03 00 00    	mov    BYTE PTR [rax+0x314],cl
    e16b:	48 8b 48 20          	mov    rcx,QWORD PTR [rax+0x20]
    e16f:	48 85 c9             	test   rcx,rcx
    e172:	74 08                	je     e17c <_dl_rtld_di_serinfo@@GLIBC_PRIVATE+0x4cfc>
    e174:	48 8b 70 18          	mov    rsi,QWORD PTR [rax+0x18]
    e178:	48 89 71 18          	mov    QWORD PTR [rcx+0x18],rsi
    e17c:	48 8b 70 18          	mov    rsi,QWORD PTR [rax+0x18]
    e180:	48 85 f6             	test   rsi,rsi
    e183:	74 04                	je     e189 <_dl_rtld_di_serinfo@@GLIBC_PRIVATE+0x4d09>
    e185:	48 89 4e 20          	mov    QWORD PTR [rsi+0x20],rcx
    e189:	48 8b 4a 08          	mov    rcx,QWORD PTR [rdx+0x8]
    e18d:	48 8b 71 20          	mov    rsi,QWORD PTR [rcx+0x20]
    e191:	48 89 70 20          	mov    QWORD PTR [rax+0x20],rsi
    e195:	48 89 41 20          	mov    QWORD PTR [rcx+0x20],rax
    e199:	48 8b 70 20          	mov    rsi,QWORD PTR [rax+0x20]
    e19d:	48 85 f6             	test   rsi,rsi
    e1a0:	74 04                	je     e1a6 <_dl_rtld_di_serinfo@@GLIBC_PRIVATE+0x4d26>
    e1a2:	48 89 46 18          	mov    QWORD PTR [rsi+0x18],rax
    e1a6:	48 89 48 18          	mov    QWORD PTR [rax+0x18],rcx
    e1aa:	48 8b 85 68 ff ff ff 	mov    rax,QWORD PTR [rbp-0x98]
    e1b1:	48 39 d8             	cmp    rax,rbx
    e1b4:	48 89 d3             	mov    rbx,rdx
    e1b7:	48 0f 44 c2          	cmove  rax,rdx
    e1bb:	49 83 c4 10          	add    r12,0x10
    e1bf:	48 89 85 68 ff ff ff 	mov    QWORD PTR [rbp-0x98],rax
    e1c6:	49 8b 04 24          	mov    rax,QWORD PTR [r12]
    e1ca:	48 85 c0             	test   rax,rax
    e1cd:	0f 85 e7 fd ff ff    	jne    dfba <_dl_rtld_di_serinfo@@GLIBC_PRIVATE+0x4b3a>
    e1d3:	48 8b b5 78 ff ff ff 	mov    rsi,QWORD PTR [rbp-0x88]
    e1da:	48 85 f6             	test   rsi,rsi
    e1dd:	74 64                	je     e243 <_dl_rtld_di_serinfo@@GLIBC_PRIVATE+0x4dc3>
    e1df:	41 8d 5f 01          	lea    ebx,[r15+0x1]
    e1e3:	44 89 f8             	mov    eax,r15d
    e1e6:	48 c7 04 c6 00 00 00 	mov    QWORD PTR [rsi+rax*8],0x0
    e1ed:	00 
    e1ee:	8d 7c 1b 01          	lea    edi,[rbx+rbx*1+0x1]
    e1f2:	48 c1 e7 03          	shl    rdi,0x3
    e1f6:	e8 85 28 ff ff       	call   a80 <malloc@plt>
    e1fb:	48 85 c0             	test   rax,rax
    e1fe:	49 89 c4             	mov    r12,rax
    e201:	0f 84 27 0c 00 00    	je     ee2e <_dl_rtld_di_serinfo@@GLIBC_PRIVATE+0x59ae>
    e207:	48 8b b5 78 ff ff ff 	mov    rsi,QWORD PTR [rbp-0x88]
    e20e:	48 c1 e3 03          	shl    rbx,0x3
    e212:	48 8d 78 08          	lea    rdi,[rax+0x8]
    e216:	48 89 da             	mov    rdx,rbx
    e219:	4c 89 28             	mov    QWORD PTR [rax],r13
    e21c:	e8 2f fb 00 00       	call   1dd50 <realloc@@GLIBC_2.2.5+0x3e20>
    e221:	41 8d 47 02          	lea    eax,[r15+0x2]
    e225:	48 89 da             	mov    rdx,rbx
    e228:	4c 89 e6             	mov    rsi,r12
    e22b:	49 8d 3c c4          	lea    rdi,[r12+rax*8]
    e22f:	e8 1c fb 00 00       	call   1dd50 <realloc@@GLIBC_2.2.5+0x3e20>
    e234:	41 80 8d 16 03 00 00 	or     BYTE PTR [r13+0x316],0x1
    e23b:	01 
    e23c:	4d 89 a5 b8 03 00 00 	mov    QWORD PTR [r13+0x3b8],r12
    e243:	48 8b 85 28 ff ff ff 	mov    rax,QWORD PTR [rbp-0xd8]
    e24a:	8b 10                	mov    edx,DWORD PTR [rax]
    e24c:	85 d2                	test   edx,edx
    e24e:	0f 85 c6 07 00 00    	jne    ea1a <_dl_rtld_di_serinfo@@GLIBC_PRIVATE+0x559a>
    e254:	4c 8b 68 08          	mov    r13,QWORD PTR [rax+0x8]
    e258:	e9 c2 fc ff ff       	jmp    df1f <_dl_rtld_di_serinfo@@GLIBC_PRIVATE+0x4a9f>
    e25d:	31 f6                	xor    esi,esi
    e25f:	48 89 c7             	mov    rdi,rax
    e262:	e8 d9 94 ff ff       	call   7740 <free@plt+0x6c90>
    e267:	48 85 c0             	test   rax,rax
    e26a:	48 89 85 60 ff ff ff 	mov    QWORD PTR [rbp-0xa0],rax
    e271:	0f 84 6f fd ff ff    	je     dfe6 <_dl_rtld_di_serinfo@@GLIBC_PRIVATE+0x4b66>
    e277:	8b 05 eb 7b 21 00    	mov    eax,DWORD PTR [rip+0x217beb]        # 225e68 <__libc_enable_secure@@GLIBC_PRIVATE>
    e27d:	85 c0                	test   eax,eax
    e27f:	0f 85 27 0c 00 00    	jne    eeac <_dl_rtld_di_serinfo@@GLIBC_PRIVATE+0x5a2c>
    e285:	4c 89 f7             	mov    rdi,r14
    e288:	e8 33 eb 00 00       	call   1cdc0 <realloc@@GLIBC_2.2.5+0x2e90>
    e28d:	49 8b bd 38 03 00 00 	mov    rdi,QWORD PTR [r13+0x338]
    e294:	48 89 c1             	mov    rcx,rax
    e297:	48 85 ff             	test   rdi,rdi
    e29a:	0f 84 60 01 00 00    	je     e400 <_dl_rtld_di_serinfo@@GLIBC_PRIVATE+0x4f80>
    e2a0:	48 83 ff ff          	cmp    rdi,0xffffffffffffffff
    e2a4:	0f 84 4f 01 00 00    	je     e3f9 <_dl_rtld_di_serinfo@@GLIBC_PRIVATE+0x4f79>
    e2aa:	48 89 85 30 ff ff ff 	mov    QWORD PTR [rbp-0xd0],rax
    e2b1:	e8 0a eb 00 00       	call   1cdc0 <realloc@@GLIBC_2.2.5+0x2e90>
    e2b6:	48 8b 8d 30 ff ff ff 	mov    rcx,QWORD PTR [rbp-0xd0]
    e2bd:	48 83 3d eb 79 21 00 	cmp    QWORD PTR [rip+0x2179eb],0x14        # 225cb0 <_rtld_global_ro@@GLIBC_PRIVATE+0x10>
    e2c4:	14 
    e2c5:	ba 14 00 00 00       	mov    edx,0x14
    e2ca:	4c 89 f6             	mov    rsi,r14
    e2cd:	48 0f 43 15 db 79 21 	cmovae rdx,QWORD PTR [rip+0x2179db]        # 225cb0 <_rtld_global_ro@@GLIBC_PRIVATE+0x10>
    e2d4:	00 
    e2d5:	4c 89 ef             	mov    rdi,r13
    e2d8:	48 39 c2             	cmp    rdx,rax
    e2db:	48 0f 43 c2          	cmovae rax,rdx
    e2df:	48 83 e8 04          	sub    rax,0x4
    e2e3:	48 0f af 85 60 ff ff 	imul   rax,QWORD PTR [rbp-0xa0]
    e2ea:	ff 
    e2eb:	48 8d 44 01 1e       	lea    rax,[rcx+rax*1+0x1e]
    e2f0:	31 c9                	xor    ecx,ecx
    e2f2:	48 83 e0 f0          	and    rax,0xfffffffffffffff0
    e2f6:	48 29 c4             	sub    rsp,rax
    e2f9:	48 8d 54 24 0f       	lea    rdx,[rsp+0xf]
    e2fe:	48 83 e2 f0          	and    rdx,0xfffffffffffffff0
    e302:	e8 c9 95 ff ff       	call   78d0 <free@plt+0x6e20>
    e307:	80 38 00             	cmp    BYTE PTR [rax],0x0
    e30a:	0f 84 c6 00 00 00    	je     e3d6 <_dl_rtld_di_serinfo@@GLIBC_PRIVATE+0x4f56>
    e310:	49 89 c6             	mov    r14,rax
    e313:	e9 ce fc ff ff       	jmp    dfe6 <_dl_rtld_di_serinfo@@GLIBC_PRIVATE+0x4b66>
    e318:	31 f6                	xor    esi,esi
    e31a:	48 89 c7             	mov    rdi,rax
    e31d:	e8 1e 94 ff ff       	call   7740 <free@plt+0x6c90>
    e322:	48 85 c0             	test   rax,rax
    e325:	48 89 85 60 ff ff ff 	mov    QWORD PTR [rbp-0xa0],rax
    e32c:	0f 84 80 fd ff ff    	je     e0b2 <_dl_rtld_di_serinfo@@GLIBC_PRIVATE+0x4c32>
    e332:	8b 05 30 7b 21 00    	mov    eax,DWORD PTR [rip+0x217b30]        # 225e68 <__libc_enable_secure@@GLIBC_PRIVATE>
    e338:	85 c0                	test   eax,eax
    e33a:	0f 85 49 0c 00 00    	jne    ef89 <_dl_rtld_di_serinfo@@GLIBC_PRIVATE+0x5b09>
    e340:	4c 89 f7             	mov    rdi,r14
    e343:	e8 78 ea 00 00       	call   1cdc0 <realloc@@GLIBC_2.2.5+0x2e90>
    e348:	49 8b bd 38 03 00 00 	mov    rdi,QWORD PTR [r13+0x338]
    e34f:	48 89 85 30 ff ff ff 	mov    QWORD PTR [rbp-0xd0],rax
    e356:	48 85 ff             	test   rdi,rdi
    e359:	0f 84 f2 0b 00 00    	je     ef51 <_dl_rtld_di_serinfo@@GLIBC_PRIVATE+0x5ad1>
    e35f:	48 83 ff ff          	cmp    rdi,0xffffffffffffffff
    e363:	0f 84 e1 0b 00 00    	je     ef4a <_dl_rtld_di_serinfo@@GLIBC_PRIVATE+0x5aca>
    e369:	e8 52 ea 00 00       	call   1cdc0 <realloc@@GLIBC_2.2.5+0x2e90>
    e36e:	48 83 3d 3a 79 21 00 	cmp    QWORD PTR [rip+0x21793a],0x14        # 225cb0 <_rtld_global_ro@@GLIBC_PRIVATE+0x10>
    e375:	14 
    e376:	ba 14 00 00 00       	mov    edx,0x14
    e37b:	48 8b 8d 30 ff ff ff 	mov    rcx,QWORD PTR [rbp-0xd0]
    e382:	48 0f 43 15 26 79 21 	cmovae rdx,QWORD PTR [rip+0x217926]        # 225cb0 <_rtld_global_ro@@GLIBC_PRIVATE+0x10>
    e389:	00 
    e38a:	4c 89 f6             	mov    rsi,r14
    e38d:	4c 89 ef             	mov    rdi,r13
    e390:	48 39 c2             	cmp    rdx,rax
    e393:	48 0f 43 c2          	cmovae rax,rdx
    e397:	48 83 e8 04          	sub    rax,0x4
    e39b:	48 0f af 85 60 ff ff 	imul   rax,QWORD PTR [rbp-0xa0]
    e3a2:	ff 
    e3a3:	48 8d 44 01 1e       	lea    rax,[rcx+rax*1+0x1e]
    e3a8:	31 c9                	xor    ecx,ecx
    e3aa:	48 83 e0 f0          	and    rax,0xfffffffffffffff0
    e3ae:	48 29 c4             	sub    rsp,rax
    e3b1:	48 8d 54 24 0f       	lea    rdx,[rsp+0xf]
    e3b6:	48 83 e2 f0          	and    rdx,0xfffffffffffffff0
    e3ba:	e8 11 95 ff ff       	call   78d0 <free@plt+0x6e20>
    e3bf:	80 38 00             	cmp    BYTE PTR [rax],0x0
    e3c2:	0f 85 b9 07 00 00    	jne    eb81 <_dl_rtld_di_serinfo@@GLIBC_PRIVATE+0x5701>
    e3c8:	49 81 3c 24 fd ff ff 	cmp    QWORD PTR [r12],0x7ffffffd
    e3cf:	7f 
    e3d0:	0f 84 61 0b 00 00    	je     ef37 <_dl_rtld_di_serinfo@@GLIBC_PRIVATE+0x5ab7>
    e3d6:	f6 05 c3 78 21 00 01 	test   BYTE PTR [rip+0x2178c3],0x1        # 225ca0 <_rtld_global_ro@@GLIBC_PRIVATE>
    e3dd:	0f 84 c6 fb ff ff    	je     dfa9 <_dl_rtld_di_serinfo@@GLIBC_PRIVATE+0x4b29>
    e3e3:	48 8d 3d 1e 34 01 00 	lea    rdi,[rip+0x1341e]        # 21808 <realloc@@GLIBC_2.2.5+0x78d8>
    e3ea:	4c 89 f6             	mov    rsi,r14
    e3ed:	31 c0                	xor    eax,eax
    e3ef:	e8 bc 31 00 00       	call   115b0 <_dl_debug_state@@GLIBC_PRIVATE+0x720>
    e3f4:	e9 b0 fb ff ff       	jmp    dfa9 <_dl_rtld_di_serinfo@@GLIBC_PRIVATE+0x4b29>
    e3f9:	31 c0                	xor    eax,eax
    e3fb:	e9 bd fe ff ff       	jmp    e2bd <_dl_rtld_di_serinfo@@GLIBC_PRIVATE+0x4e3d>
    e400:	49 8b 45 08          	mov    rax,QWORD PTR [r13+0x8]
    e404:	80 38 00             	cmp    BYTE PTR [rax],0x0
    e407:	74 10                	je     e419 <_dl_rtld_di_serinfo@@GLIBC_PRIVATE+0x4f99>
    e409:	48 8d 05 c8 85 21 00 	lea    rax,[rip+0x2185c8]        # 2269d8 <_rtld_global@@GLIBC_PRIVATE+0x998>
    e410:	49 39 c5             	cmp    r13,rax
    e413:	0f 85 ea 0a 00 00    	jne    ef03 <_dl_rtld_di_serinfo@@GLIBC_PRIVATE+0x5a83>
    e419:	48 89 8d 30 ff ff ff 	mov    QWORD PTR [rbp-0xd0],rcx
    e420:	e8 5b 58 00 00       	call   13c80 <__tls_get_addr@@GLIBC_2.3+0x1a0>
    e425:	48 8d 50 ff          	lea    rdx,[rax-0x1]
    e429:	49 89 85 38 03 00 00 	mov    QWORD PTR [r13+0x338],rax
    e430:	48 8b 8d 30 ff ff ff 	mov    rcx,QWORD PTR [rbp-0xd0]
    e437:	48 83 fa fd          	cmp    rdx,0xfffffffffffffffd
    e43b:	77 bc                	ja     e3f9 <_dl_rtld_di_serinfo@@GLIBC_PRIVATE+0x4f79>
    e43d:	48 89 c7             	mov    rdi,rax
    e440:	48 89 8d 30 ff ff ff 	mov    QWORD PTR [rbp-0xd0],rcx
    e447:	e8 74 e9 00 00       	call   1cdc0 <realloc@@GLIBC_2.2.5+0x2e90>
    e44c:	48 8b 8d 30 ff ff ff 	mov    rcx,QWORD PTR [rbp-0xd0]
    e453:	e9 65 fe ff ff       	jmp    e2bd <_dl_rtld_di_serinfo@@GLIBC_PRIVATE+0x4e3d>
    e458:	4c 8b bd 08 ff ff ff 	mov    r15,QWORD PTR [rbp-0xf8]
    e45f:	89 85 30 ff ff ff    	mov    DWORD PTR [rbp-0xd0],eax
    e465:	48 89 cf             	mov    rdi,rcx
    e468:	48 89 8d 78 ff ff ff 	mov    QWORD PTR [rbp-0x88],rcx
    e46f:	e8 4c e9 00 00       	call   1cdc0 <realloc@@GLIBC_2.2.5+0x2e90>
    e474:	48 8d 50 01          	lea    rdx,[rax+0x1]
    e478:	48 83 c0 1f          	add    rax,0x1f
    e47c:	48 8b 8d 78 ff ff ff 	mov    rcx,QWORD PTR [rbp-0x88]
    e483:	48 83 e0 f0          	and    rax,0xfffffffffffffff0
    e487:	48 29 c4             	sub    rsp,rax
    e48a:	48 8d 7c 24 0f       	lea    rdi,[rsp+0xf]
    e48f:	48 89 ce             	mov    rsi,rcx
    e492:	48 83 e7 f0          	and    rdi,0xfffffffffffffff0
    e496:	e8 b5 f8 00 00       	call   1dd50 <realloc@@GLIBC_2.2.5+0x3e20>
    e49b:	4c 8b 65 98          	mov    r12,QWORD PTR [rbp-0x68]
    e49f:	48 89 c3             	mov    rbx,rax
    e4a2:	4c 89 e7             	mov    rdi,r12
    e4a5:	e8 16 e9 00 00       	call   1cdc0 <realloc@@GLIBC_2.2.5+0x2e90>
    e4aa:	48 8d 50 01          	lea    rdx,[rax+0x1]
    e4ae:	48 83 c0 1f          	add    rax,0x1f
    e4b2:	4c 89 e6             	mov    rsi,r12
    e4b5:	48 83 e0 f0          	and    rax,0xfffffffffffffff0
    e4b9:	48 29 c4             	sub    rsp,rax
    e4bc:	48 8d 7c 24 0f       	lea    rdi,[rsp+0xf]
    e4c1:	48 83 e7 f0          	and    rdi,0xfffffffffffffff0
    e4c5:	e8 86 f8 00 00       	call   1dd50 <realloc@@GLIBC_2.2.5+0x3e20>
    e4ca:	80 7d 8f 00          	cmp    BYTE PTR [rbp-0x71],0x0
    e4ce:	48 89 45 98          	mov    QWORD PTR [rbp-0x68],rax
    e4d2:	48 8b 8d 78 ff ff ff 	mov    rcx,QWORD PTR [rbp-0x88]
    e4d9:	0f 85 89 06 00 00    	jne    eb68 <_dl_rtld_di_serinfo@@GLIBC_PRIVATE+0x56e8>
    e4df:	8b b5 30 ff ff ff    	mov    esi,DWORD PTR [rbp-0xd0]
    e4e5:	b8 ff ff ff ff       	mov    eax,0xffffffff
    e4ea:	48 89 5d 90          	mov    QWORD PTR [rbp-0x70],rbx
    e4ee:	89 c1                	mov    ecx,eax
    e4f0:	85 f6                	test   esi,esi
    e4f2:	0f 45 ce             	cmovne ecx,esi
    e4f5:	89 8d 30 ff ff ff    	mov    DWORD PTR [rbp-0xd0],ecx
    e4fb:	44 8b 1d 1e 8c 21 00 	mov    r11d,DWORD PTR [rip+0x218c1e]        # 227120 <_rtld_global@@GLIBC_PRIVATE+0x10e0>
    e502:	45 85 db             	test   r11d,r11d
    e505:	75 10                	jne    e517 <_dl_rtld_di_serinfo@@GLIBC_PRIVATE+0x5097>
    e507:	8b 85 00 ff ff ff    	mov    eax,DWORD PTR [rbp-0x100]
    e50d:	85 c0                	test   eax,eax
    e50f:	74 06                	je     e517 <_dl_rtld_di_serinfo@@GLIBC_PRIVATE+0x5097>
    e511:	89 05 09 8c 21 00    	mov    DWORD PTR [rip+0x218c09],eax        # 227120 <_rtld_global@@GLIBC_PRIVATE+0x10e0>
    e517:	48 8b 85 38 ff ff ff 	mov    rax,QWORD PTR [rbp-0xc8]
    e51e:	48 8b 88 b8 03 00 00 	mov    rcx,QWORD PTR [rax+0x3b8]
    e525:	48 85 c9             	test   rcx,rcx
    e528:	48 89 8d 18 ff ff ff 	mov    QWORD PTR [rbp-0xe8],rcx
    e52f:	74 23                	je     e554 <_dl_rtld_di_serinfo@@GLIBC_PRIVATE+0x50d4>
    e531:	0f b6 80 14 03 00 00 	movzx  eax,BYTE PTR [rax+0x314]
    e538:	88 85 78 ff ff ff    	mov    BYTE PTR [rbp-0x88],al
    e53e:	83 e0 03             	and    eax,0x3
    e541:	3c 02                	cmp    al,0x2
    e543:	0f 84 e7 05 00 00    	je     eb30 <_dl_rtld_di_serinfo@@GLIBC_PRIVATE+0x56b0>
    e549:	48 c7 85 18 ff ff ff 	mov    QWORD PTR [rbp-0xe8],0x0
    e550:	00 00 00 00 
    e554:	8b 85 20 ff ff ff    	mov    eax,DWORD PTR [rbp-0xe0]
    e55a:	8d 7c 00 01          	lea    edi,[rax+rax*1+0x1]
    e55e:	48 c1 e7 03          	shl    rdi,0x3
    e562:	e8 19 25 ff ff       	call   a80 <malloc@plt>
    e567:	48 85 c0             	test   rax,rax
    e56a:	49 89 c6             	mov    r14,rax
    e56d:	0f 84 d9 08 00 00    	je     ee4c <_dl_rtld_di_serinfo@@GLIBC_PRIVATE+0x59cc>
    e573:	8b 8d 20 ff ff ff    	mov    ecx,DWORD PTR [rbp-0xe0]
    e579:	44 8b 95 04 ff ff ff 	mov    r10d,DWORD PTR [rbp-0xfc]
    e580:	48 8b b5 38 ff ff ff 	mov    rsi,QWORD PTR [rbp-0xc8]
    e587:	89 c8                	mov    eax,ecx
    e589:	83 c0 01             	add    eax,0x1
    e58c:	45 85 d2             	test   r10d,r10d
    e58f:	89 8e c0 02 00 00    	mov    DWORD PTR [rsi+0x2c0],ecx
    e595:	4d 8d 2c c6          	lea    r13,[r14+rax*8]
    e599:	4c 89 ae b8 02 00 00 	mov    QWORD PTR [rsi+0x2b8],r13
    e5a0:	0f 85 92 07 00 00    	jne    ed38 <_dl_rtld_di_serinfo@@GLIBC_PRIVATE+0x58b8>
    e5a6:	31 c0                	xor    eax,eax
    e5a8:	49 8b 4f 08          	mov    rcx,QWORD PTR [r15+0x8]
    e5ac:	8d 50 01             	lea    edx,[rax+0x1]
    e5af:	49 89 4c c5 00       	mov    QWORD PTR [r13+rax*8+0x0],rcx
    e5b4:	49 8b 47 08          	mov    rax,QWORD PTR [r15+0x8]
    e5b8:	4c 8b ae b8 02 00 00 	mov    r13,QWORD PTR [rsi+0x2b8]
    e5bf:	80 a0 14 03 00 00 9f 	and    BYTE PTR [rax+0x314],0x9f
    e5c6:	89 d0                	mov    eax,edx
    e5c8:	4d 8b 7f 10          	mov    r15,QWORD PTR [r15+0x10]
    e5cc:	4d 85 ff             	test   r15,r15
    e5cf:	75 d7                	jne    e5a8 <_dl_rtld_di_serinfo@@GLIBC_PRIVATE+0x5128>
    e5d1:	f6 05 c9 76 21 00 08 	test   BYTE PTR [rip+0x2176c9],0x8        # 225ca1 <_rtld_global_ro@@GLIBC_PRIVATE+0x1>
    e5d8:	89 95 50 ff ff ff    	mov    DWORD PTR [rbp-0xb0],edx
    e5de:	0f 85 ec 05 00 00    	jne    ebd0 <_dl_rtld_di_serinfo@@GLIBC_PRIVATE+0x5750>
    e5e4:	48 8b 85 38 ff ff ff 	mov    rax,QWORD PTR [rbp-0xc8]
    e5eb:	49 3b 45 00          	cmp    rax,QWORD PTR [r13+0x0]
    e5ef:	0f 85 1f 07 00 00    	jne    ed14 <_dl_rtld_di_serinfo@@GLIBC_PRIVATE+0x5894>
    e5f5:	4c 8b b8 c0 03 00 00 	mov    r15,QWORD PTR [rax+0x3c0]
    e5fc:	4d 85 ff             	test   r15,r15
    e5ff:	0f 84 e8 07 00 00    	je     eded <_dl_rtld_di_serinfo@@GLIBC_PRIVATE+0x596d>
    e605:	8b 85 50 ff ff ff    	mov    eax,DWORD PTR [rbp-0xb0]
    e60b:	83 f8 01             	cmp    eax,0x1
    e60e:	0f 86 82 07 00 00    	jbe    ed96 <_dl_rtld_di_serinfo@@GLIBC_PRIVATE+0x5916>
    e614:	49 8d 4d 08          	lea    rcx,[r13+0x8]
    e618:	83 e8 02             	sub    eax,0x2
    e61b:	49 8d 7c c5 10       	lea    rdi,[r13+rax*8+0x10]
    e620:	48 89 ca             	mov    rdx,rcx
    e623:	48 8b 32             	mov    rsi,QWORD PTR [rdx]
    e626:	48 83 c2 08          	add    rdx,0x8
    e62a:	0f b6 86 14 03 00 00 	movzx  eax,BYTE PTR [rsi+0x314]
    e631:	83 e0 9f             	and    eax,0xffffff9f
    e634:	83 c8 20             	or     eax,0x20
    e637:	48 39 fa             	cmp    rdx,rdi
    e63a:	88 86 14 03 00 00    	mov    BYTE PTR [rsi+0x314],al
    e640:	75 e1                	jne    e623 <_dl_rtld_di_serinfo@@GLIBC_PRIVATE+0x51a3>
    e642:	41 8b 37             	mov    esi,DWORD PTR [r15]
    e645:	4d 8d 67 08          	lea    r12,[r15+0x8]
    e649:	85 f6                	test   esi,esi
    e64b:	0f 84 8c 07 00 00    	je     eddd <_dl_rtld_di_serinfo@@GLIBC_PRIVATE+0x595d>
    e651:	31 c0                	xor    eax,eax
    e653:	4c 89 ad 78 ff ff ff 	mov    QWORD PTR [rbp-0x88],r13
    e65a:	31 db                	xor    ebx,ebx
    e65c:	4d 89 fd             	mov    r13,r15
    e65f:	49 89 c7             	mov    r15,rax
    e662:	eb 0d                	jmp    e671 <_dl_rtld_di_serinfo@@GLIBC_PRIVATE+0x51f1>
    e664:	83 c3 01             	add    ebx,0x1
    e667:	41 39 5d 00          	cmp    DWORD PTR [r13+0x0],ebx
    e66b:	0f 86 a8 00 00 00    	jbe    e719 <_dl_rtld_di_serinfo@@GLIBC_PRIVATE+0x5299>
    e671:	89 d8                	mov    eax,ebx
    e673:	48 8d 14 c5 00 00 00 	lea    rdx,[rax*8+0x0]
    e67a:	00 
    e67b:	49 8b 04 c4          	mov    rax,QWORD PTR [r12+rax*8]
    e67f:	f6 80 14 03 00 00 60 	test   BYTE PTR [rax+0x314],0x60
    e686:	74 dc                	je     e664 <_dl_rtld_di_serinfo@@GLIBC_PRIVATE+0x51e4>
    e688:	48 8b 85 38 ff ff ff 	mov    rax,QWORD PTR [rbp-0xc8]
    e68f:	48 89 95 70 ff ff ff 	mov    QWORD PTR [rbp-0x90],rdx
    e696:	8b 80 c8 03 00 00    	mov    eax,DWORD PTR [rax+0x3c8]
    e69c:	48 8d 3c c5 08 00 00 	lea    rdi,[rax*8+0x8]
    e6a3:	00 
    e6a4:	e8 d7 23 ff ff       	call   a80 <malloc@plt>
    e6a9:	48 85 c0             	test   rax,rax
    e6ac:	49 89 c7             	mov    r15,rax
    e6af:	74 b3                	je     e664 <_dl_rtld_di_serinfo@@GLIBC_PRIVATE+0x51e4>
    e6b1:	48 8b 95 70 ff ff ff 	mov    rdx,QWORD PTR [rbp-0x90]
    e6b8:	48 8d 78 08          	lea    rdi,[rax+0x8]
    e6bc:	4c 89 e6             	mov    rsi,r12
    e6bf:	e8 8c f6 00 00       	call   1dd50 <realloc@@GLIBC_2.2.5+0x3e20>
    e6c4:	41 8b 75 00          	mov    esi,DWORD PTR [r13+0x0]
    e6c8:	44 8d 4b 01          	lea    r9d,[rbx+0x1]
    e6cc:	89 d9                	mov    ecx,ebx
    e6ce:	44 39 ce             	cmp    esi,r9d
    e6d1:	0f 86 fe 06 00 00    	jbe    edd5 <_dl_rtld_di_serinfo@@GLIBC_PRIVATE+0x5955>
    e6d7:	44 89 c8             	mov    eax,r9d
    e6da:	66 0f 1f 44 00 00    	nop    WORD PTR [rax+rax*1+0x0]
    e6e0:	89 c2                	mov    edx,eax
    e6e2:	49 8b 14 d4          	mov    rdx,QWORD PTR [r12+rdx*8]
    e6e6:	f6 82 14 03 00 00 60 	test   BYTE PTR [rdx+0x314],0x60
    e6ed:	75 0a                	jne    e6f9 <_dl_rtld_di_serinfo@@GLIBC_PRIVATE+0x5279>
    e6ef:	89 cf                	mov    edi,ecx
    e6f1:	83 c1 01             	add    ecx,0x1
    e6f4:	49 89 54 ff 08       	mov    QWORD PTR [r15+rdi*8+0x8],rdx
    e6f9:	83 c0 01             	add    eax,0x1
    e6fc:	39 c6                	cmp    esi,eax
    e6fe:	75 e0                	jne    e6e0 <_dl_rtld_di_serinfo@@GLIBC_PRIVATE+0x5260>
    e700:	42 8d 44 0e ff       	lea    eax,[rsi+r9*1-0x1]
    e705:	29 d8                	sub    eax,ebx
    e707:	89 c3                	mov    ebx,eax
    e709:	41 89 0f             	mov    DWORD PTR [r15],ecx
    e70c:	83 c3 01             	add    ebx,0x1
    e70f:	41 39 5d 00          	cmp    DWORD PTR [r13+0x0],ebx
    e713:	0f 87 58 ff ff ff    	ja     e671 <_dl_rtld_di_serinfo@@GLIBC_PRIVATE+0x51f1>
    e719:	83 bd 50 ff ff ff 01 	cmp    DWORD PTR [rbp-0xb0],0x1
    e720:	4c 89 bd 28 ff ff ff 	mov    QWORD PTR [rbp-0xd8],r15
    e727:	4c 8b ad 78 ff ff ff 	mov    r13,QWORD PTR [rbp-0x88]
    e72e:	0f 86 7d 06 00 00    	jbe    edb1 <_dl_rtld_di_serinfo@@GLIBC_PRIVATE+0x5931>
    e734:	49 8d 4d 08          	lea    rcx,[r13+0x8]
    e738:	8b b5 50 ff ff ff    	mov    esi,DWORD PTR [rbp-0xb0]
    e73e:	48 89 ca             	mov    rdx,rcx
    e741:	b8 01 00 00 00       	mov    eax,0x1
    e746:	48 8b 0a             	mov    rcx,QWORD PTR [rdx]
    e749:	83 c0 01             	add    eax,0x1
    e74c:	48 83 c2 08          	add    rdx,0x8
    e750:	80 a1 14 03 00 00 9f 	and    BYTE PTR [rcx+0x314],0x9f
    e757:	39 f0                	cmp    eax,esi
    e759:	72 eb                	jb     e746 <_dl_rtld_di_serinfo@@GLIBC_PRIVATE+0x52c6>
    e75b:	8b 9d 50 ff ff ff    	mov    ebx,DWORD PTR [rbp-0xb0]
    e761:	4c 89 ee             	mov    rsi,r13
    e764:	4c 89 f7             	mov    rdi,r14
    e767:	48 8d 04 dd 00 00 00 	lea    rax,[rbx*8+0x0]
    e76e:	00 
    e76f:	48 89 c2             	mov    rdx,rax
    e772:	48 89 85 20 ff ff ff 	mov    QWORD PTR [rbp-0xe0],rax
    e779:	e8 d2 f5 00 00       	call   1dd50 <realloc@@GLIBC_2.2.5+0x3e20>
    e77e:	48 8d 14 1b          	lea    rdx,[rbx+rbx*1]
    e782:	48 89 a5 10 ff ff ff 	mov    QWORD PTR [rbp-0xf0],rsp
    e789:	31 f6                	xor    esi,esi
    e78b:	41 bd 02 00 00 00    	mov    r13d,0x2
    e791:	48 8d 42 10          	lea    rax,[rdx+0x10]
    e795:	48 c1 e8 04          	shr    rax,0x4
    e799:	48 c1 e0 04          	shl    rax,0x4
    e79d:	48 29 c4             	sub    rsp,rax
    e7a0:	48 89 e7             	mov    rdi,rsp
    e7a3:	e8 88 f2 00 00       	call   1da30 <realloc@@GLIBC_2.2.5+0x3b00>
    e7a8:	8b 85 50 ff ff ff    	mov    eax,DWORD PTR [rbp-0xb0]
    e7ae:	41 b8 01 00 00 00    	mov    r8d,0x1
    e7b4:	4d 89 f1             	mov    r9,r14
    e7b7:	b9 01 00 00 00       	mov    ecx,0x1
    e7bc:	45 89 c6             	mov    r14d,r8d
    e7bf:	49 89 e3             	mov    r11,rsp
    e7c2:	83 e8 01             	sub    eax,0x1
    e7c5:	89 85 40 ff ff ff    	mov    DWORD PTR [rbp-0xc0],eax
    e7cb:	0f 1f 44 00 00       	nop    DWORD PTR [rax+rax*1+0x0]
    e7d0:	49 8d 04 4b          	lea    rax,[r11+rcx*2]
    e7d4:	49 8d 3c c9          	lea    rdi,[r9+rcx*8]
    e7d8:	0f b7 30             	movzx  esi,WORD PTR [rax]
    e7db:	48 8b 1f             	mov    rbx,QWORD PTR [rdi]
    e7de:	83 c6 01             	add    esi,0x1
    e7e1:	66 89 30             	mov    WORD PTR [rax],si
    e7e4:	8b 85 40 ff ff ff    	mov    eax,DWORD PTR [rbp-0xc0]
    e7ea:	66 89 b5 48 ff ff ff 	mov    WORD PTR [rbp-0xb8],si
    e7f1:	41 39 c6             	cmp    r14d,eax
    e7f4:	0f 83 fb 00 00 00    	jae    e8f5 <_dl_rtld_di_serinfo@@GLIBC_PRIVATE+0x5475>
    e7fa:	41 89 c4             	mov    r12d,eax
    e7fd:	45 89 e2             	mov    r10d,r12d
    e800:	4f 8d 3c d1          	lea    r15,[r9+r10*8]
    e804:	49 8b 07             	mov    rax,QWORD PTR [r15]
    e807:	48 8b 80 b8 03 00 00 	mov    rax,QWORD PTR [rax+0x3b8]
    e80e:	48 85 c0             	test   rax,rax
    e811:	0f 84 d1 00 00 00    	je     e8e8 <_dl_rtld_di_serinfo@@GLIBC_PRIVATE+0x5468>
    e817:	66 0f 1f 84 00 00 00 	nop    WORD PTR [rax+rax*1+0x0]
    e81e:	00 00 
    e820:	48 8b 10             	mov    rdx,QWORD PTR [rax]
    e823:	48 85 d2             	test   rdx,rdx
    e826:	0f 84 bc 00 00 00    	je     e8e8 <_dl_rtld_di_serinfo@@GLIBC_PRIVATE+0x5468>
    e82c:	48 83 c0 08          	add    rax,0x8
    e830:	48 39 d3             	cmp    rbx,rdx
    e833:	75 eb                	jne    e820 <_dl_rtld_di_serinfo@@GLIBC_PRIVATE+0x53a0>
    e835:	45 89 e8             	mov    r8d,r13d
    e838:	45 29 f4             	sub    r12d,r14d
    e83b:	4c 89 9d 58 ff ff ff 	mov    QWORD PTR [rbp-0xa8],r11
    e842:	4b 8d 34 c1          	lea    rsi,[r9+r8*8]
    e846:	4a 8d 14 e5 00 00 00 	lea    rdx,[r12*8+0x0]
    e84d:	00 
    e84e:	48 89 8d 60 ff ff ff 	mov    QWORD PTR [rbp-0xa0],rcx
    e855:	4c 89 8d 70 ff ff ff 	mov    QWORD PTR [rbp-0x90],r9
    e85c:	4c 89 85 78 ff ff ff 	mov    QWORD PTR [rbp-0x88],r8
    e863:	4c 89 95 68 ff ff ff 	mov    QWORD PTR [rbp-0x98],r10
    e86a:	e8 61 f0 00 00       	call   1d8d0 <realloc@@GLIBC_2.2.5+0x39a0>
    e86f:	4c 8b 85 78 ff ff ff 	mov    r8,QWORD PTR [rbp-0x88]
    e876:	4c 8b 9d 58 ff ff ff 	mov    r11,QWORD PTR [rbp-0xa8]
    e87d:	8b 85 50 ff ff ff    	mov    eax,DWORD PTR [rbp-0xb0]
    e883:	49 89 1f             	mov    QWORD PTR [r15],rbx
    e886:	4c 8b 8d 70 ff ff ff 	mov    r9,QWORD PTR [rbp-0x90]
    e88d:	48 8b 8d 60 ff ff ff 	mov    rcx,QWORD PTR [rbp-0xa0]
    e894:	43 0f b7 14 43       	movzx  edx,WORD PTR [r11+r8*2]
    e899:	44 29 f0             	sub    eax,r14d
    e89c:	39 c2                	cmp    edx,eax
    e89e:	76 68                	jbe    e908 <_dl_rtld_di_serinfo@@GLIBC_PRIVATE+0x5488>
    e8a0:	8b 95 50 ff ff ff    	mov    edx,DWORD PTR [rbp-0xb0]
    e8a6:	4b 8d 3c 43          	lea    rdi,[r11+r8*2]
    e8aa:	31 f6                	xor    esi,esi
    e8ac:	4c 89 8d 70 ff ff ff 	mov    QWORD PTR [rbp-0x90],r9
    e8b3:	4c 89 9d 78 ff ff ff 	mov    QWORD PTR [rbp-0x88],r11
    e8ba:	45 89 ee             	mov    r14d,r13d
    e8bd:	44 29 ea             	sub    edx,r13d
    e8c0:	48 01 d2             	add    rdx,rdx
    e8c3:	e8 68 f1 00 00       	call   1da30 <realloc@@GLIBC_2.2.5+0x3b00>
    e8c8:	44 89 e9             	mov    ecx,r13d
    e8cb:	4c 8b 9d 78 ff ff ff 	mov    r11,QWORD PTR [rbp-0x88]
    e8d2:	41 83 c5 01          	add    r13d,0x1
    e8d6:	4c 8b 8d 70 ff ff ff 	mov    r9,QWORD PTR [rbp-0x90]
    e8dd:	e9 ee fe ff ff       	jmp    e7d0 <_dl_rtld_di_serinfo@@GLIBC_PRIVATE+0x5350>
    e8e2:	66 0f 1f 44 00 00    	nop    WORD PTR [rax+rax*1+0x0]
    e8e8:	41 83 ec 01          	sub    r12d,0x1
    e8ec:	45 39 e6             	cmp    r14d,r12d
    e8ef:	0f 82 08 ff ff ff    	jb     e7fd <_dl_rtld_di_serinfo@@GLIBC_PRIVATE+0x537d>
    e8f5:	44 3b ad 50 ff ff ff 	cmp    r13d,DWORD PTR [rbp-0xb0]
    e8fc:	74 5d                	je     e95b <_dl_rtld_di_serinfo@@GLIBC_PRIVATE+0x54db>
    e8fe:	45 89 e8             	mov    r8d,r13d
    e901:	eb 9d                	jmp    e8a0 <_dl_rtld_di_serinfo@@GLIBC_PRIVATE+0x5420>
    e903:	0f 1f 44 00 00       	nop    DWORD PTR [rax+rax*1+0x0]
    e908:	49 8d 3c 4b          	lea    rdi,[r11+rcx*2]
    e90c:	4b 8d 34 43          	lea    rsi,[r11+r8*2]
    e910:	4b 8d 14 24          	lea    rdx,[r12+r12*1]
    e914:	4c 89 8d 60 ff ff ff 	mov    QWORD PTR [rbp-0xa0],r9
    e91b:	4c 89 9d 70 ff ff ff 	mov    QWORD PTR [rbp-0x90],r11
    e922:	48 89 8d 78 ff ff ff 	mov    QWORD PTR [rbp-0x88],rcx
    e929:	e8 a2 ef 00 00       	call   1d8d0 <realloc@@GLIBC_2.2.5+0x39a0>
    e92e:	0f b7 85 48 ff ff ff 	movzx  eax,WORD PTR [rbp-0xb8]
    e935:	4c 8b 9d 70 ff ff ff 	mov    r11,QWORD PTR [rbp-0x90]
    e93c:	4c 8b 95 68 ff ff ff 	mov    r10,QWORD PTR [rbp-0x98]
    e943:	48 8b 8d 78 ff ff ff 	mov    rcx,QWORD PTR [rbp-0x88]
    e94a:	4c 8b 8d 60 ff ff ff 	mov    r9,QWORD PTR [rbp-0xa0]
    e951:	66 43 89 04 53       	mov    WORD PTR [r11+r10*2],ax
    e956:	e9 75 fe ff ff       	jmp    e7d0 <_dl_rtld_di_serinfo@@GLIBC_PRIVATE+0x5350>
    e95b:	48 8b a5 10 ff ff ff 	mov    rsp,QWORD PTR [rbp-0xf0]
    e962:	4d 89 ce             	mov    r14,r9
    e965:	48 8b 85 20 ff ff ff 	mov    rax,QWORD PTR [rbp-0xe0]
    e96c:	49 c7 04 06 00 00 00 	mov    QWORD PTR [r14+rax*1],0x0
    e973:	00 
    e974:	48 8b 85 38 ff ff ff 	mov    rax,QWORD PTR [rbp-0xc8]
    e97b:	80 88 16 03 00 00 01 	or     BYTE PTR [rax+0x316],0x1
    e982:	4c 89 b0 b8 03 00 00 	mov    QWORD PTR [rax+0x3b8],r14
    e989:	48 8b b5 28 ff ff ff 	mov    rsi,QWORD PTR [rbp-0xd8]
    e990:	48 85 f6             	test   rsi,rsi
    e993:	74 13                	je     e9a8 <_dl_rtld_di_serinfo@@GLIBC_PRIVATE+0x5528>
    e995:	48 8b b8 c0 03 00 00 	mov    rdi,QWORD PTR [rax+0x3c0]
    e99c:	48 89 b0 c0 03 00 00 	mov    QWORD PTR [rax+0x3c0],rsi
    e9a3:	e8 58 54 00 00       	call   13e00 <__tls_get_addr@@GLIBC_2.3+0x320>
    e9a8:	48 8b 85 18 ff ff ff 	mov    rax,QWORD PTR [rbp-0xe8]
    e9af:	48 85 c0             	test   rax,rax
    e9b2:	74 08                	je     e9bc <_dl_rtld_di_serinfo@@GLIBC_PRIVATE+0x553c>
    e9b4:	48 89 c7             	mov    rdi,rax
    e9b7:	e8 44 54 00 00       	call   13e00 <__tls_get_addr@@GLIBC_2.3+0x320>
    e9bc:	8b bd 30 ff ff ff    	mov    edi,DWORD PTR [rbp-0xd0]
    e9c2:	85 ff                	test   edi,edi
    e9c4:	0f 85 a0 04 00 00    	jne    ee6a <_dl_rtld_di_serinfo@@GLIBC_PRIVATE+0x59ea>
    e9ca:	48 8d 65 d8          	lea    rsp,[rbp-0x28]
    e9ce:	5b                   	pop    rbx
    e9cf:	41 5c                	pop    r12
    e9d1:	41 5d                	pop    r13
    e9d3:	41 5e                	pop    r14
    e9d5:	41 5f                	pop    r15
    e9d7:	5d                   	pop    rbp
    e9d8:	c3                   	ret
    e9d9:	48 89 d1             	mov    rcx,rdx
    e9dc:	eb 0b                	jmp    e9e9 <_dl_rtld_di_serinfo@@GLIBC_PRIVATE+0x5569>
    e9de:	66 90                	xchg   ax,ax
    e9e0:	48 3b 46 08          	cmp    rax,QWORD PTR [rsi+0x8]
    e9e4:	74 53                	je     ea39 <_dl_rtld_di_serinfo@@GLIBC_PRIVATE+0x55b9>
    e9e6:	48 89 f1             	mov    rcx,rsi
    e9e9:	48 8b 71 10          	mov    rsi,QWORD PTR [rcx+0x10]
    e9ed:	48 85 f6             	test   rsi,rsi
    e9f0:	75 ee                	jne    e9e0 <_dl_rtld_di_serinfo@@GLIBC_PRIVATE+0x5560>
    e9f2:	48 8b 02             	mov    rax,QWORD PTR [rdx]
    e9f5:	48 89 03             	mov    QWORD PTR [rbx],rax
    e9f8:	48 8b 42 08          	mov    rax,QWORD PTR [rdx+0x8]
    e9fc:	48 89 43 08          	mov    QWORD PTR [rbx+0x8],rax
    ea00:	48 8b 42 10          	mov    rax,QWORD PTR [rdx+0x10]
    ea04:	48 89 43 10          	mov    QWORD PTR [rbx+0x10],rax
    ea08:	e9 9c f5 ff ff       	jmp    dfa9 <_dl_rtld_di_serinfo@@GLIBC_PRIVATE+0x4b29>
    ea0d:	0f 1f 00             	nop    DWORD PTR [rax]
    ea10:	8b 18                	mov    ebx,DWORD PTR [rax]
    ea12:	85 db                	test   ebx,ebx
    ea14:	0f 84 5b 01 00 00    	je     eb75 <_dl_rtld_di_serinfo@@GLIBC_PRIVATE+0x56f5>
    ea1a:	48 8b 40 10          	mov    rax,QWORD PTR [rax+0x10]
    ea1e:	48 85 c0             	test   rax,rax
    ea21:	75 ed                	jne    ea10 <_dl_rtld_di_serinfo@@GLIBC_PRIVATE+0x5590>
    ea23:	4c 8b bd 08 ff ff ff 	mov    r15,QWORD PTR [rbp-0xf8]
    ea2a:	c7 85 30 ff ff ff 00 	mov    DWORD PTR [rbp-0xd0],0x0
    ea31:	00 00 00 
    ea34:	e9 c2 fa ff ff       	jmp    e4fb <_dl_rtld_di_serinfo@@GLIBC_PRIVATE+0x507b>
    ea39:	48 89 53 10          	mov    QWORD PTR [rbx+0x10],rdx
    ea3d:	48 8b bd 68 ff ff ff 	mov    rdi,QWORD PTR [rbp-0x98]
    ea44:	48 8b 71 10          	mov    rsi,QWORD PTR [rcx+0x10]
    ea48:	48 39 fe             	cmp    rsi,rdi
    ea4b:	48 8b 76 10          	mov    rsi,QWORD PTR [rsi+0x10]
    ea4f:	48 0f 44 f9          	cmove  rdi,rcx
    ea53:	48 89 bd 68 ff ff ff 	mov    QWORD PTR [rbp-0x98],rdi
    ea5a:	48 89 71 10          	mov    QWORD PTR [rcx+0x10],rsi
    ea5e:	48 8b 48 20          	mov    rcx,QWORD PTR [rax+0x20]
    ea62:	48 85 c9             	test   rcx,rcx
    ea65:	0f 85 09 f7 ff ff    	jne    e174 <_dl_rtld_di_serinfo@@GLIBC_PRIVATE+0x4cf4>
    ea6b:	e9 0c f7 ff ff       	jmp    e17c <_dl_rtld_di_serinfo@@GLIBC_PRIVATE+0x4cfc>
    ea70:	49 83 bd e0 01 00 00 	cmp    QWORD PTR [r13+0x1e0],0x0
    ea77:	00 
    ea78:	0f 85 cb f4 ff ff    	jne    df49 <_dl_rtld_di_serinfo@@GLIBC_PRIVATE+0x4ac9>
    ea7e:	49 83 bd d0 01 00 00 	cmp    QWORD PTR [r13+0x1d0],0x0
    ea85:	00 
    ea86:	0f 85 bd f4 ff ff    	jne    df49 <_dl_rtld_di_serinfo@@GLIBC_PRIVATE+0x4ac9>
    ea8c:	45 31 ff             	xor    r15d,r15d
    ea8f:	e9 3f f7 ff ff       	jmp    e1d3 <_dl_rtld_di_serinfo@@GLIBC_PRIVATE+0x4d53>
    ea94:	0f 1f 40 00          	nop    DWORD PTR [rax+0x0]
    ea98:	49 83 bd b8 03 00 00 	cmp    QWORD PTR [r13+0x3b8],0x0
    ea9f:	00 
    eaa0:	0f 85 15 05 00 00    	jne    efbb <_dl_rtld_di_serinfo@@GLIBC_PRIVATE+0x5b3b>
    eaa6:	4c 39 ad 38 ff ff ff 	cmp    QWORD PTR [rbp-0xc8],r13
    eaad:	0f 84 08 05 00 00    	je     efbb <_dl_rtld_di_serinfo@@GLIBC_PRIVATE+0x5b3b>
    eab3:	41 0f b7 85 b2 02 00 	movzx  eax,WORD PTR [r13+0x2b2]
    eaba:	00 
    eabb:	66 85 c0             	test   ax,ax
    eabe:	0f 84 7a f4 ff ff    	je     df3e <_dl_rtld_di_serinfo@@GLIBC_PRIVATE+0x4abe>
    eac4:	48 c1 e0 03          	shl    rax,0x3
    eac8:	48 39 85 10 ff ff ff 	cmp    QWORD PTR [rbp-0xf0],rax
    eacf:	48 8b b5 18 ff ff ff 	mov    rsi,QWORD PTR [rbp-0xe8]
    ead6:	48 89 b5 78 ff ff ff 	mov    QWORD PTR [rbp-0x88],rsi
    eadd:	0f 83 5b f4 ff ff    	jae    df3e <_dl_rtld_di_serinfo@@GLIBC_PRIVATE+0x4abe>
    eae3:	48 83 c0 0f          	add    rax,0xf
    eae7:	48 83 e0 f0          	and    rax,0xfffffffffffffff0
    eaeb:	48 8d 50 1e          	lea    rdx,[rax+0x1e]
    eaef:	81 e2 f0 ff 1f 00    	and    edx,0x1ffff0
    eaf5:	48 29 d4             	sub    rsp,rdx
    eaf8:	48 8d 54 24 0f       	lea    rdx,[rsp+0xf]
    eafd:	48 83 e2 f0          	and    rdx,0xfffffffffffffff0
    eb01:	48 89 95 78 ff ff ff 	mov    QWORD PTR [rbp-0x88],rdx
    eb08:	48 01 c2             	add    rdx,rax
    eb0b:	48 39 d6             	cmp    rsi,rdx
    eb0e:	0f 84 b7 04 00 00    	je     efcb <_dl_rtld_di_serinfo@@GLIBC_PRIVATE+0x5b4b>
    eb14:	48 89 85 10 ff ff ff 	mov    QWORD PTR [rbp-0xf0],rax
    eb1b:	48 8b 85 78 ff ff ff 	mov    rax,QWORD PTR [rbp-0x88]
    eb22:	48 89 85 18 ff ff ff 	mov    QWORD PTR [rbp-0xe8],rax
    eb29:	e9 10 f4 ff ff       	jmp    df3e <_dl_rtld_di_serinfo@@GLIBC_PRIVATE+0x4abe>
    eb2e:	66 90                	xchg   ax,ax
    eb30:	48 8b 85 38 ff ff ff 	mov    rax,QWORD PTR [rbp-0xc8]
    eb37:	48 83 b8 b8 02 00 00 	cmp    QWORD PTR [rax+0x2b8],0x0
    eb3e:	00 
    eb3f:	0f 84 0f fa ff ff    	je     e554 <_dl_rtld_di_serinfo@@GLIBC_PRIVATE+0x50d4>
    eb45:	48 8d 0d f4 38 01 00 	lea    rcx,[rip+0x138f4]        # 22440 <realloc@@GLIBC_2.2.5+0x8510>
    eb4c:	48 8d 35 1c 10 01 00 	lea    rsi,[rip+0x1101c]        # 1fb6f <realloc@@GLIBC_2.2.5+0x5c3f>
    eb53:	48 8d 3d 76 2d 01 00 	lea    rdi,[rip+0x12d76]        # 218d0 <realloc@@GLIBC_2.2.5+0x79a0>
    eb5a:	ba ed 01 00 00       	mov    edx,0x1ed
    eb5f:	e8 7c b3 00 00       	call   19ee0 <free@@GLIBC_2.2.5+0x160>
    eb64:	0f 1f 40 00          	nop    DWORD PTR [rax+0x0]
    eb68:	48 89 cf             	mov    rdi,rcx
    eb6b:	e8 40 1f ff ff       	call   ab0 <free@plt>
    eb70:	e9 6a f9 ff ff       	jmp    e4df <_dl_rtld_di_serinfo@@GLIBC_PRIVATE+0x505f>
    eb75:	48 89 85 28 ff ff ff 	mov    QWORD PTR [rbp-0xd8],rax
    eb7c:	e9 d3 f6 ff ff       	jmp    e254 <_dl_rtld_di_serinfo@@GLIBC_PRIVATE+0x4dd4>
    eb81:	f6 05 18 71 21 00 01 	test   BYTE PTR [rip+0x217118],0x1        # 225ca0 <_rtld_global_ro@@GLIBC_PRIVATE>
    eb88:	49 89 c6             	mov    r14,rax
    eb8b:	4c 89 75 b8          	mov    QWORD PTR [rbp-0x48],r14
    eb8f:	0f 84 2e f5 ff ff    	je     e0c3 <_dl_rtld_di_serinfo@@GLIBC_PRIVATE+0x4c43>
    eb95:	49 8b 55 08          	mov    rdx,QWORD PTR [r13+0x8]
    eb99:	80 3a 00             	cmp    BYTE PTR [rdx],0x0
    eb9c:	75 18                	jne    ebb6 <_dl_rtld_di_serinfo@@GLIBC_PRIVATE+0x5736>
    eb9e:	48 8b 05 db 70 21 00 	mov    rax,QWORD PTR [rip+0x2170db]        # 225c80 <_dl_argv@@GLIBC_PRIVATE>
    eba5:	48 8d 15 71 08 01 00 	lea    rdx,[rip+0x10871]        # 1f41d <realloc@@GLIBC_2.2.5+0x54ed>
    ebac:	48 8b 00             	mov    rax,QWORD PTR [rax]
    ebaf:	48 85 c0             	test   rax,rax
    ebb2:	48 0f 45 d0          	cmovne rdx,rax
    ebb6:	48 8d 3d c3 2c 01 00 	lea    rdi,[rip+0x12cc3]        # 21880 <realloc@@GLIBC_2.2.5+0x7950>
    ebbd:	4c 89 f6             	mov    rsi,r14
    ebc0:	31 c0                	xor    eax,eax
    ebc2:	e8 e9 29 00 00       	call   115b0 <_dl_debug_state@@GLIBC_PRIVATE+0x720>
    ebc7:	e9 f7 f4 ff ff       	jmp    e0c3 <_dl_rtld_di_serinfo@@GLIBC_PRIVATE+0x4c43>
    ebcc:	0f 1f 40 00          	nop    DWORD PTR [rax+0x0]
    ebd0:	48 8b 85 38 ff ff ff 	mov    rax,QWORD PTR [rbp-0xc8]
    ebd7:	48 3b 05 62 74 21 00 	cmp    rax,QWORD PTR [rip+0x217462]        # 226040 <_rtld_global@@GLIBC_PRIVATE>
    ebde:	0f 85 00 fa ff ff    	jne    e5e4 <_dl_rtld_di_serinfo@@GLIBC_PRIVATE+0x5164>
    ebe4:	8b 85 50 ff ff ff    	mov    eax,DWORD PTR [rbp-0xb0]
    ebea:	85 c0                	test   eax,eax
    ebec:	0f 84 f2 f9 ff ff    	je     e5e4 <_dl_rtld_di_serinfo@@GLIBC_PRIVATE+0x5164>
    ebf2:	83 e8 01             	sub    eax,0x1
    ebf5:	31 db                	xor    ebx,ebx
    ebf7:	48 8d 04 c5 08 00 00 	lea    rax,[rax*8+0x8]
    ebfe:	00 
    ebff:	48 89 85 78 ff ff ff 	mov    QWORD PTR [rbp-0x88],rax
    ec06:	4d 8b 7c 1d 00       	mov    r15,QWORD PTR [r13+rbx*1+0x0]
    ec0b:	4c 39 bd 38 ff ff ff 	cmp    QWORD PTR [rbp-0xc8],r15
    ec12:	0f 84 da 00 00 00    	je     ecf2 <_dl_rtld_di_serinfo@@GLIBC_PRIVATE+0x5872>
    ec18:	49 8b 87 88 03 00 00 	mov    rax,QWORD PTR [r15+0x388]
    ec1f:	48 85 c0             	test   rax,rax
    ec22:	74 0d                	je     ec31 <_dl_rtld_di_serinfo@@GLIBC_PRIVATE+0x57b1>
    ec24:	44 8b 48 08          	mov    r9d,DWORD PTR [rax+0x8]
    ec28:	45 85 c9             	test   r9d,r9d
    ec2b:	0f 85 c1 00 00 00    	jne    ecf2 <_dl_rtld_di_serinfo@@GLIBC_PRIVATE+0x5872>
    ec31:	49 83 bf e0 01 00 00 	cmp    QWORD PTR [r15+0x1e0],0x0
    ec38:	00 
    ec39:	0f 85 ad 02 00 00    	jne    eeec <_dl_rtld_di_serinfo@@GLIBC_PRIVATE+0x5a6c>
    ec3f:	49 83 bf d0 01 00 00 	cmp    QWORD PTR [r15+0x1d0],0x0
    ec46:	00 
    ec47:	0f 85 9f 02 00 00    	jne    eeec <_dl_rtld_di_serinfo@@GLIBC_PRIVATE+0x5a6c>
    ec4d:	4c 89 fe             	mov    rsi,r15
    ec50:	4c 89 f7             	mov    rdi,r14
    ec53:	e8 88 ed ff ff       	call   d9e0 <_dl_rtld_di_serinfo@@GLIBC_PRIVATE+0x4560>
    ec58:	3b 85 50 ff ff ff    	cmp    eax,DWORD PTR [rbp-0xb0]
    ec5e:	49 89 c4             	mov    r12,rax
    ec61:	89 c6                	mov    esi,eax
    ec63:	0f 87 64 02 00 00    	ja     eecd <_dl_rtld_di_serinfo@@GLIBC_PRIVATE+0x5a4d>
    ec69:	85 c0                	test   eax,eax
    ec6b:	74 3d                	je     ecaa <_dl_rtld_di_serinfo@@GLIBC_PRIVATE+0x582a>
    ec6d:	49 8b 06             	mov    rax,QWORD PTR [r14]
    ec70:	49 8d 56 08          	lea    rdx,[r14+0x8]
    ec74:	80 a0 14 03 00 00 9f 	and    BYTE PTR [rax+0x314],0x9f
    ec7b:	31 c0                	xor    eax,eax
    ec7d:	eb 24                	jmp    eca3 <_dl_rtld_di_serinfo@@GLIBC_PRIVATE+0x5823>
    ec7f:	90                   	nop
    ec80:	48 8b 0a             	mov    rcx,QWORD PTR [rdx]
    ec83:	80 a1 14 03 00 00 9f 	and    BYTE PTR [rcx+0x314],0x9f
    ec8a:	85 c0                	test   eax,eax
    ec8c:	74 11                	je     ec9f <_dl_rtld_di_serinfo@@GLIBC_PRIVATE+0x581f>
    ec8e:	48 8b 0a             	mov    rcx,QWORD PTR [rdx]
    ec91:	48 83 b9 c0 00 00 00 	cmp    QWORD PTR [rcx+0xc0],0x0
    ec98:	00 
    ec99:	0f 85 21 02 00 00    	jne    eec0 <_dl_rtld_di_serinfo@@GLIBC_PRIVATE+0x5a40>
    ec9f:	48 83 c2 08          	add    rdx,0x8
    eca3:	83 c0 01             	add    eax,0x1
    eca6:	39 c6                	cmp    esi,eax
    eca8:	75 d6                	jne    ec80 <_dl_rtld_di_serinfo@@GLIBC_PRIVATE+0x5800>
    ecaa:	44 89 e0             	mov    eax,r12d
    ecad:	4c 8d 2c c5 10 00 00 	lea    r13,[rax*8+0x10]
    ecb4:	00 
    ecb5:	4c 89 ef             	mov    rdi,r13
    ecb8:	e8 c3 1d ff ff       	call   a80 <malloc@plt>
    ecbd:	48 85 c0             	test   rax,rax
    ecc0:	49 89 87 88 03 00 00 	mov    QWORD PTR [r15+0x388],rax
    ecc7:	0f 84 7f 01 00 00    	je     ee4c <_dl_rtld_di_serinfo@@GLIBC_PRIVATE+0x59cc>
    eccd:	48 8d 78 10          	lea    rdi,[rax+0x10]
    ecd1:	49 8d 55 f0          	lea    rdx,[r13-0x10]
    ecd5:	44 89 60 08          	mov    DWORD PTR [rax+0x8],r12d
    ecd9:	4c 89 f6             	mov    rsi,r14
    ecdc:	48 89 38             	mov    QWORD PTR [rax],rdi
    ecdf:	e8 6c f0 00 00       	call   1dd50 <realloc@@GLIBC_2.2.5+0x3e20>
    ece4:	48 8b 85 38 ff ff ff 	mov    rax,QWORD PTR [rbp-0xc8]
    eceb:	4c 8b a8 b8 02 00 00 	mov    r13,QWORD PTR [rax+0x2b8]
    ecf2:	48 83 c3 08          	add    rbx,0x8
    ecf6:	48 3b 9d 78 ff ff ff 	cmp    rbx,QWORD PTR [rbp-0x88]
    ecfd:	0f 85 03 ff ff ff    	jne    ec06 <_dl_rtld_di_serinfo@@GLIBC_PRIVATE+0x5786>
    ed03:	48 8b 85 38 ff ff ff 	mov    rax,QWORD PTR [rbp-0xc8]
    ed0a:	49 3b 45 00          	cmp    rax,QWORD PTR [r13+0x0]
    ed0e:	0f 84 e1 f8 ff ff    	je     e5f5 <_dl_rtld_di_serinfo@@GLIBC_PRIVATE+0x5175>
    ed14:	48 8d 0d 25 37 01 00 	lea    rcx,[rip+0x13725]        # 22440 <realloc@@GLIBC_2.2.5+0x8510>
    ed1b:	48 8d 35 4d 0e 01 00 	lea    rsi,[rip+0x10e4d]        # 1fb6f <realloc@@GLIBC_2.2.5+0x5c3f>
    ed22:	48 8d 3d 27 2c 01 00 	lea    rdi,[rip+0x12c27]        # 21950 <realloc@@GLIBC_2.2.5+0x7a20>
    ed29:	ba 3e 02 00 00       	mov    edx,0x23e
    ed2e:	e8 ad b1 00 00       	call   19ee0 <free@@GLIBC_2.2.5+0x160>
    ed33:	0f 1f 44 00 00       	nop    DWORD PTR [rax+rax*1+0x0]
    ed38:	48 89 f1             	mov    rcx,rsi
    ed3b:	31 d2                	xor    edx,edx
    ed3d:	49 8b 47 08          	mov    rax,QWORD PTR [r15+0x8]
    ed41:	f6 80 15 03 00 00 02 	test   BYTE PTR [rax+0x315],0x2
    ed48:	74 0e                	je     ed58 <_dl_rtld_di_serinfo@@GLIBC_PRIVATE+0x58d8>
    ed4a:	83 a9 c0 02 00 00 01 	sub    DWORD PTR [rcx+0x2c0],0x1
    ed51:	eb 1a                	jmp    ed6d <_dl_rtld_di_serinfo@@GLIBC_PRIVATE+0x58ed>
    ed53:	0f 1f 44 00 00       	nop    DWORD PTR [rax+rax*1+0x0]
    ed58:	89 d6                	mov    esi,edx
    ed5a:	83 c2 01             	add    edx,0x1
    ed5d:	49 89 44 f5 00       	mov    QWORD PTR [r13+rsi*8+0x0],rax
    ed62:	49 8b 47 08          	mov    rax,QWORD PTR [r15+0x8]
    ed66:	4c 8b a9 b8 02 00 00 	mov    r13,QWORD PTR [rcx+0x2b8]
    ed6d:	80 a0 14 03 00 00 9f 	and    BYTE PTR [rax+0x314],0x9f
    ed74:	4d 8b 7f 10          	mov    r15,QWORD PTR [r15+0x10]
    ed78:	4d 85 ff             	test   r15,r15
    ed7b:	75 c0                	jne    ed3d <_dl_rtld_di_serinfo@@GLIBC_PRIVATE+0x58bd>
    ed7d:	e9 4f f8 ff ff       	jmp    e5d1 <_dl_rtld_di_serinfo@@GLIBC_PRIVATE+0x5151>
    ed82:	49 89 fd             	mov    r13,rdi
    ed85:	31 c0                	xor    eax,eax
    ed87:	c7 85 20 ff ff ff 01 	mov    DWORD PTR [rbp-0xe0],0x1
    ed8e:	00 00 00 
    ed91:	e9 06 f1 ff ff       	jmp    de9c <_dl_rtld_di_serinfo@@GLIBC_PRIVATE+0x4a1c>
    ed96:	45 8b 07             	mov    r8d,DWORD PTR [r15]
    ed99:	4d 8d 67 08          	lea    r12,[r15+0x8]
    ed9d:	45 85 c0             	test   r8d,r8d
    eda0:	0f 85 ab f8 ff ff    	jne    e651 <_dl_rtld_di_serinfo@@GLIBC_PRIVATE+0x51d1>
    eda6:	48 c7 85 28 ff ff ff 	mov    QWORD PTR [rbp-0xd8],0x0
    edad:	00 00 00 00 
    edb1:	8b 85 50 ff ff ff    	mov    eax,DWORD PTR [rbp-0xb0]
    edb7:	4c 89 ee             	mov    rsi,r13
    edba:	4c 89 f7             	mov    rdi,r14
    edbd:	48 c1 e0 03          	shl    rax,0x3
    edc1:	48 89 c2             	mov    rdx,rax
    edc4:	48 89 85 20 ff ff ff 	mov    QWORD PTR [rbp-0xe0],rax
    edcb:	e8 80 ef 00 00       	call   1dd50 <realloc@@GLIBC_2.2.5+0x3e20>
    edd0:	e9 90 fb ff ff       	jmp    e965 <_dl_rtld_di_serinfo@@GLIBC_PRIVATE+0x54e5>
    edd5:	44 89 cb             	mov    ebx,r9d
    edd8:	e9 2c f9 ff ff       	jmp    e709 <_dl_rtld_di_serinfo@@GLIBC_PRIVATE+0x5289>
    eddd:	48 c7 85 28 ff ff ff 	mov    QWORD PTR [rbp-0xd8],0x0
    ede4:	00 00 00 00 
    ede8:	e9 4b f9 ff ff       	jmp    e738 <_dl_rtld_di_serinfo@@GLIBC_PRIVATE+0x52b8>
    eded:	44 8b bd 50 ff ff ff 	mov    r15d,DWORD PTR [rbp-0xb0]
    edf4:	4c 89 ee             	mov    rsi,r13
    edf7:	4c 89 f7             	mov    rdi,r14
    edfa:	44 89 fb             	mov    ebx,r15d
    edfd:	48 8d 04 dd 00 00 00 	lea    rax,[rbx*8+0x0]
    ee04:	00 
    ee05:	48 89 c2             	mov    rdx,rax
    ee08:	48 89 85 20 ff ff ff 	mov    QWORD PTR [rbp-0xe0],rax
    ee0f:	e8 3c ef 00 00       	call   1dd50 <realloc@@GLIBC_2.2.5+0x3e20>
    ee14:	41 83 ff 01          	cmp    r15d,0x1
    ee18:	48 c7 85 28 ff ff ff 	mov    QWORD PTR [rbp-0xd8],0x0
    ee1f:	00 00 00 00 
    ee23:	0f 87 55 f9 ff ff    	ja     e77e <_dl_rtld_di_serinfo@@GLIBC_PRIVATE+0x52fe>
    ee29:	e9 37 fb ff ff       	jmp    e965 <_dl_rtld_di_serinfo@@GLIBC_PRIVATE+0x54e5>
    ee2e:	48 8b 85 38 ff ff ff 	mov    rax,QWORD PTR [rbp-0xc8]
    ee35:	48 8d 0d 74 2a 01 00 	lea    rcx,[rip+0x12a74]        # 218b0 <realloc@@GLIBC_2.2.5+0x7980>
    ee3c:	31 d2                	xor    edx,edx
    ee3e:	bf 0c 00 00 00       	mov    edi,0xc
    ee43:	48 8b 70 08          	mov    rsi,QWORD PTR [rax+0x8]
    ee47:	e8 a4 12 00 00       	call   100f0 <_dl_rtld_di_serinfo@@GLIBC_PRIVATE+0x6c70>
    ee4c:	48 8b 85 38 ff ff ff 	mov    rax,QWORD PTR [rbp-0xc8]
    ee53:	48 8d 0d 9e 2a 01 00 	lea    rcx,[rip+0x12a9e]        # 218f8 <realloc@@GLIBC_2.2.5+0x79c8>
    ee5a:	31 d2                	xor    edx,edx
    ee5c:	bf 0c 00 00 00       	mov    edi,0xc
    ee61:	48 8b 70 08          	mov    rsi,QWORD PTR [rax+0x8]
    ee65:	e8 86 12 00 00       	call   100f0 <_dl_rtld_di_serinfo@@GLIBC_PRIVATE+0x6c70>
    ee6a:	8b 85 30 ff ff ff    	mov    eax,DWORD PTR [rbp-0xd0]
    ee70:	48 8b 4d 90          	mov    rcx,QWORD PTR [rbp-0x70]
    ee74:	bf 00 00 00 00       	mov    edi,0x0
    ee79:	48 8b 75 98          	mov    rsi,QWORD PTR [rbp-0x68]
    ee7d:	83 f8 ff             	cmp    eax,0xffffffff
    ee80:	0f 45 f8             	cmovne edi,eax
    ee83:	31 d2                	xor    edx,edx
    ee85:	e8 66 12 00 00       	call   100f0 <_dl_rtld_di_serinfo@@GLIBC_PRIVATE+0x6c70>
    ee8a:	49 81 3c 24 fd ff ff 	cmp    QWORD PTR [r12],0x7ffffffd
    ee91:	7f 
    ee92:	0f 85 8a 00 00 00    	jne    ef22 <_dl_rtld_di_serinfo@@GLIBC_PRIVATE+0x5aa2>
    ee98:	80 7d 8f 00          	cmp    BYTE PTR [rbp-0x71],0x0
    ee9c:	0f 84 07 f1 ff ff    	je     dfa9 <_dl_rtld_di_serinfo@@GLIBC_PRIVATE+0x4b29>
    eea2:	e8 09 1c ff ff       	call   ab0 <free@plt>
    eea7:	e9 fd f0 ff ff       	jmp    dfa9 <_dl_rtld_di_serinfo@@GLIBC_PRIVATE+0x4b29>
    eeac:	48 8d 0d 2d 29 01 00 	lea    rcx,[rip+0x1292d]        # 217e0 <realloc@@GLIBC_2.2.5+0x78b0>
    eeb3:	31 d2                	xor    edx,edx
    eeb5:	4c 89 f6             	mov    rsi,r14
    eeb8:	31 ff                	xor    edi,edi
    eeba:	e8 31 12 00 00       	call   100f0 <_dl_rtld_di_serinfo@@GLIBC_PRIVATE+0x6c70>
    eebf:	90                   	nop
    eec0:	41 80 8f 15 03 00 00 	or     BYTE PTR [r15+0x315],0x80
    eec7:	80 
    eec8:	e9 d2 fd ff ff       	jmp    ec9f <_dl_rtld_di_serinfo@@GLIBC_PRIVATE+0x581f>
    eecd:	48 8d 0d 6c 35 01 00 	lea    rcx,[rip+0x1356c]        # 22440 <realloc@@GLIBC_2.2.5+0x8510>
    eed4:	48 8d 35 94 0c 01 00 	lea    rsi,[rip+0x10c94]        # 1fb6f <realloc@@GLIBC_2.2.5+0x5c3f>
    eedb:	48 8d 3d 97 0c 01 00 	lea    rdi,[rip+0x10c97]        # 1fb79 <realloc@@GLIBC_2.2.5+0x5c49>
    eee2:	ba 25 02 00 00       	mov    edx,0x225
    eee7:	e8 f4 af 00 00       	call   19ee0 <free@@GLIBC_2.2.5+0x160>
    eeec:	49 8b 77 08          	mov    rsi,QWORD PTR [r15+0x8]
    eef0:	48 8d 0d 29 2a 01 00 	lea    rcx,[rip+0x12a29]        # 21920 <realloc@@GLIBC_2.2.5+0x79f0>
    eef7:	31 d2                	xor    edx,edx
    eef9:	bf 16 00 00 00       	mov    edi,0x16
    eefe:	e8 ed 11 00 00       	call   100f0 <_dl_rtld_di_serinfo@@GLIBC_PRIVATE+0x6c70>
    ef03:	48 8d 0d 36 35 01 00 	lea    rcx,[rip+0x13536]        # 22440 <realloc@@GLIBC_2.2.5+0x8510>
    ef0a:	48 8d 35 5e 0c 01 00 	lea    rsi,[rip+0x10c5e]        # 1fb6f <realloc@@GLIBC_2.2.5+0x5c3f>
    ef11:	48 8d 3d c8 23 01 00 	lea    rdi,[rip+0x123c8]        # 212e0 <realloc@@GLIBC_2.2.5+0x73b0>
    ef18:	ba f9 00 00 00       	mov    edx,0xf9
    ef1d:	e8 be af 00 00       	call   19ee0 <free@@GLIBC_2.2.5+0x160>
    ef22:	89 85 30 ff ff ff    	mov    DWORD PTR [rbp-0xd0],eax
    ef28:	4c 8b bd 08 ff ff ff 	mov    r15,QWORD PTR [rbp-0xf8]
    ef2f:	48 89 f9             	mov    rcx,rdi
    ef32:	e9 2e f5 ff ff       	jmp    e465 <_dl_rtld_di_serinfo@@GLIBC_PRIVATE+0x4fe5>
    ef37:	48 8d 0d 1a 29 01 00 	lea    rcx,[rip+0x1291a]        # 21858 <realloc@@GLIBC_2.2.5+0x7928>
    ef3e:	4c 89 f6             	mov    rsi,r14
    ef41:	31 d2                	xor    edx,edx
    ef43:	31 ff                	xor    edi,edi
    ef45:	e8 a6 11 00 00       	call   100f0 <_dl_rtld_di_serinfo@@GLIBC_PRIVATE+0x6c70>
    ef4a:	31 c0                	xor    eax,eax
    ef4c:	e9 1d f4 ff ff       	jmp    e36e <_dl_rtld_di_serinfo@@GLIBC_PRIVATE+0x4eee>
    ef51:	49 8b 45 08          	mov    rax,QWORD PTR [r13+0x8]
    ef55:	80 38 00             	cmp    BYTE PTR [rax],0x0
    ef58:	74 0c                	je     ef66 <_dl_rtld_di_serinfo@@GLIBC_PRIVATE+0x5ae6>
    ef5a:	48 8d 05 77 7a 21 00 	lea    rax,[rip+0x217a77]        # 2269d8 <_rtld_global@@GLIBC_PRIVATE+0x998>
    ef61:	49 39 c5             	cmp    r13,rax
    ef64:	75 36                	jne    ef9c <_dl_rtld_di_serinfo@@GLIBC_PRIVATE+0x5b1c>
    ef66:	e8 15 4d 00 00       	call   13c80 <__tls_get_addr@@GLIBC_2.3+0x1a0>
    ef6b:	48 8d 50 ff          	lea    rdx,[rax-0x1]
    ef6f:	49 89 85 38 03 00 00 	mov    QWORD PTR [r13+0x338],rax
    ef76:	48 83 fa fd          	cmp    rdx,0xfffffffffffffffd
    ef7a:	77 ce                	ja     ef4a <_dl_rtld_di_serinfo@@GLIBC_PRIVATE+0x5aca>
    ef7c:	48 89 c7             	mov    rdi,rax
    ef7f:	e8 3c de 00 00       	call   1cdc0 <realloc@@GLIBC_2.2.5+0x2e90>
    ef84:	e9 e5 f3 ff ff       	jmp    e36e <_dl_rtld_di_serinfo@@GLIBC_PRIVATE+0x4eee>
    ef89:	48 8d 0d 50 28 01 00 	lea    rcx,[rip+0x12850]        # 217e0 <realloc@@GLIBC_2.2.5+0x78b0>
    ef90:	4c 89 f6             	mov    rsi,r14
    ef93:	31 d2                	xor    edx,edx
    ef95:	31 ff                	xor    edi,edi
    ef97:	e8 54 11 00 00       	call   100f0 <_dl_rtld_di_serinfo@@GLIBC_PRIVATE+0x6c70>
    ef9c:	48 8d 0d 9d 34 01 00 	lea    rcx,[rip+0x1349d]        # 22440 <realloc@@GLIBC_2.2.5+0x8510>
    efa3:	48 8d 35 c5 0b 01 00 	lea    rsi,[rip+0x10bc5]        # 1fb6f <realloc@@GLIBC_2.2.5+0x5c3f>
    efaa:	48 8d 3d 2f 23 01 00 	lea    rdi,[rip+0x1232f]        # 212e0 <realloc@@GLIBC_2.2.5+0x73b0>
    efb1:	ba 2d 01 00 00       	mov    edx,0x12d
    efb6:	e8 25 af 00 00       	call   19ee0 <free@@GLIBC_2.2.5+0x160>
    efbb:	48 c7 85 78 ff ff ff 	mov    QWORD PTR [rbp-0x88],0x0
    efc2:	00 00 00 00 
    efc6:	e9 73 ef ff ff       	jmp    df3e <_dl_rtld_di_serinfo@@GLIBC_PRIVATE+0x4abe>
    efcb:	48 01 85 10 ff ff ff 	add    QWORD PTR [rbp-0xf0],rax
    efd2:	48 8b 85 78 ff ff ff 	mov    rax,QWORD PTR [rbp-0x88]
    efd9:	48 89 85 18 ff ff ff 	mov    QWORD PTR [rbp-0xe8],rax
    efe0:	e9 59 ef ff ff       	jmp    df3e <_dl_rtld_di_serinfo@@GLIBC_PRIVATE+0x4abe>
    efe5:	66 2e 0f 1f 84 00 00 	cs nop WORD PTR [rax+rax*1+0x0]
    efec:	00 00 00 
    efef:	90                   	nop
    eff0:	55                   	push   rbp
    eff1:	48 89 e5             	mov    rbp,rsp
    eff4:	41 57                	push   r15
    eff6:	41 56                	push   r14
    eff8:	41 55                	push   r13
    effa:	41 54                	push   r12
    effc:	45 31 ff             	xor    r15d,r15d
    efff:	53                   	push   rbx
    f000:	48 83 ec 78          	sub    rsp,0x78
    f004:	48 85 ff             	test   rdi,rdi
    f007:	4c 8b 05 ea 6c 21 00 	mov    r8,QWORD PTR [rip+0x216cea]        # 225cf8 <_rtld_global_ro@@GLIBC_PRIVATE+0x58>
    f00e:	41 0f 95 c7          	setne  r15b
    f012:	4c 23 05 e7 6c 21 00 	and    r8,QWORD PTR [rip+0x216ce7]        # 225d00 <_rtld_global_ro@@GLIBC_PRIVATE+0x60>
    f019:	48 89 7d 98          	mov    QWORD PTR [rbp-0x68],rdi
    f01d:	48 89 75 88          	mov    QWORD PTR [rbp-0x78],rsi
    f021:	48 89 55 b0          	mov    QWORD PTR [rbp-0x50],rdx
    f025:	48 89 4d 90          	mov    QWORD PTR [rbp-0x70],rcx
    f029:	4d 89 c6             	mov    r14,r8
    f02c:	74 28                	je     f056 <_dl_rtld_di_serinfo@@GLIBC_PRIVATE+0x5bd6>
    f02e:	31 c9                	xor    ecx,ecx
    f030:	ba 01 00 00 00       	mov    edx,0x1
    f035:	0f 1f 00             	nop    DWORD PTR [rax]
    f038:	4c 89 f0             	mov    rax,r14
    f03b:	48 d3 e8             	shr    rax,cl
    f03e:	48 83 c1 01          	add    rcx,0x1
    f042:	83 e0 01             	and    eax,0x1
    f045:	49 01 c7             	add    r15,rax
    f048:	48 89 d0             	mov    rax,rdx
    f04b:	48 d3 e0             	shl    rax,cl
    f04e:	48 f7 d8             	neg    rax
    f051:	4c 85 f0             	test   rax,r14
    f054:	75 e2                	jne    f038 <_dl_rtld_di_serinfo@@GLIBC_PRIVATE+0x5bb8>
    f056:	48 8b 05 43 6d 21 00 	mov    rax,QWORD PTR [rip+0x216d43]        # 225da0 <_rtld_global_ro@@GLIBC_PRIVATE+0x100>
    f05d:	48 85 c0             	test   rax,rax
    f060:	48 89 45 b8          	mov    QWORD PTR [rbp-0x48],rax
    f064:	0f 84 44 02 00 00    	je     f2ae <_dl_rtld_di_serinfo@@GLIBC_PRIVATE+0x5e2e>
    f06a:	4c 8b 88 a0 02 00 00 	mov    r9,QWORD PTR [rax+0x2a0]
    f071:	0f b7 80 b0 02 00 00 	movzx  eax,WORD PTR [rax+0x2b0]
    f078:	48 85 c0             	test   rax,rax
    f07b:	48 89 45 c8          	mov    QWORD PTR [rbp-0x38],rax
    f07f:	0f 84 29 02 00 00    	je     f2ae <_dl_rtld_di_serinfo@@GLIBC_PRIVATE+0x5e2e>
    f085:	45 31 db             	xor    r11d,r11d
    f088:	4c 89 7d a8          	mov    QWORD PTR [rbp-0x58],r15
    f08c:	4c 89 75 a0          	mov    QWORD PTR [rbp-0x60],r14
    f090:	4d 89 df             	mov    r15,r11
    f093:	4d 89 ce             	mov    r14,r9
    f096:	eb 1a                	jmp    f0b2 <_dl_rtld_di_serinfo@@GLIBC_PRIVATE+0x5c32>
    f098:	0f 1f 84 00 00 00 00 	nop    DWORD PTR [rax+rax*1+0x0]
    f09f:	00 
    f0a0:	49 83 c7 01          	add    r15,0x1
    f0a4:	49 83 c6 38          	add    r14,0x38
    f0a8:	4c 39 7d c8          	cmp    QWORD PTR [rbp-0x38],r15
    f0ac:	0f 84 f4 01 00 00    	je     f2a6 <_dl_rtld_di_serinfo@@GLIBC_PRIVATE+0x5e26>
    f0b2:	41 83 3e 04          	cmp    DWORD PTR [r14],0x4
    f0b6:	75 e8                	jne    f0a0 <_dl_rtld_di_serinfo@@GLIBC_PRIVATE+0x5c20>
    f0b8:	48 8b 45 b8          	mov    rax,QWORD PTR [rbp-0x48]
    f0bc:	4d 8b 6e 28          	mov    r13,QWORD PTR [r14+0x28]
    f0c0:	4c 8b 00             	mov    r8,QWORD PTR [rax]
    f0c3:	4d 03 46 10          	add    r8,QWORD PTR [r14+0x10]
    f0c7:	49 83 fd 0c          	cmp    r13,0xc
    f0cb:	4d 89 c4             	mov    r12,r8
    f0ce:	49 8d 78 0c          	lea    rdi,[r8+0xc]
    f0d2:	76 cc                	jbe    f0a0 <_dl_rtld_di_serinfo@@GLIBC_PRIVATE+0x5c20>
    f0d4:	4c 89 75 c0          	mov    QWORD PTR [rbp-0x40],r14
    f0d8:	4d 89 c6             	mov    r14,r8
    f0db:	eb 34                	jmp    f111 <_dl_rtld_di_serinfo@@GLIBC_PRIVATE+0x5c91>
    f0dd:	0f 1f 00             	nop    DWORD PTR [rax]
    f0e0:	41 8b 44 24 04       	mov    eax,DWORD PTR [r12+0x4]
    f0e5:	48 83 c3 03          	add    rbx,0x3
    f0e9:	48 83 c0 03          	add    rax,0x3
    f0ed:	48 83 e3 fc          	and    rbx,0xfffffffffffffffc
    f0f1:	48 83 e0 fc          	and    rax,0xfffffffffffffffc
    f0f5:	48 8d 44 03 0c       	lea    rax,[rbx+rax*1+0xc]
    f0fa:	49 01 c4             	add    r12,rax
    f0fd:	49 8d 7c 24 0c       	lea    rdi,[r12+0xc]
    f102:	48 89 f8             	mov    rax,rdi
    f105:	4c 29 f0             	sub    rax,r14
    f108:	49 39 c5             	cmp    r13,rax
    f10b:	0f 86 7f 01 00 00    	jbe    f290 <_dl_rtld_di_serinfo@@GLIBC_PRIVATE+0x5e10>
    f111:	41 83 7c 24 08 02    	cmp    DWORD PTR [r12+0x8],0x2
    f117:	41 8b 1c 24          	mov    ebx,DWORD PTR [r12]
    f11b:	75 c3                	jne    f0e0 <_dl_rtld_di_serinfo@@GLIBC_PRIVATE+0x5c60>
    f11d:	83 fb 04             	cmp    ebx,0x4
    f120:	75 be                	jne    f0e0 <_dl_rtld_di_serinfo@@GLIBC_PRIVATE+0x5c60>
    f122:	48 8d 35 5d 0a 01 00 	lea    rsi,[rip+0x10a5d]        # 1fb86 <realloc@@GLIBC_2.2.5+0x5c56>
    f129:	ba 04 00 00 00       	mov    edx,0x4
    f12e:	e8 9d e3 00 00       	call   1d4d0 <realloc@@GLIBC_2.2.5+0x35a0>
    f133:	85 c0                	test   eax,eax
    f135:	41 8b 44 24 04       	mov    eax,DWORD PTR [r12+0x4]
    f13a:	75 a9                	jne    f0e5 <_dl_rtld_di_serinfo@@GLIBC_PRIVATE+0x5c65>
    f13c:	83 f8 0a             	cmp    eax,0xa
    f13f:	76 a4                	jbe    f0e5 <_dl_rtld_di_serinfo@@GLIBC_PRIVATE+0x5c65>
    f141:	89 c3                	mov    ebx,eax
    f143:	41 8b 44 24 10       	mov    eax,DWORD PTR [r12+0x10]
    f148:	4c 8b 7d a8          	mov    r15,QWORD PTR [rbp-0x58]
    f14c:	48 8d 3d 37 0a 01 00 	lea    rdi,[rip+0x10a37]        # 1fb8a <realloc@@GLIBC_2.2.5+0x5c5a>
    f153:	31 f6                	xor    esi,esi
    f155:	4c 8b 75 a0          	mov    r14,QWORD PTR [rbp-0x60]
    f159:	48 83 eb 08          	sub    rbx,0x8
    f15d:	4d 8d 6c 24 18       	lea    r13,[r12+0x18]
    f162:	4d 8d 7c 07 01       	lea    r15,[r15+rax*1+0x1]
    f167:	e8 44 c0 00 00       	call   1b1b0 <realloc@@GLIBC_2.2.5+0x1280>
    f16c:	85 c0                	test   eax,eax
    f16e:	0f 84 50 01 00 00    	je     f2c4 <_dl_rtld_di_serinfo@@GLIBC_PRIVATE+0x5e44>
    f174:	4c 89 f8             	mov    rax,r15
    f177:	48 c1 e0 04          	shl    rax,0x4
    f17b:	48 83 c0 10          	add    rax,0x10
    f17f:	48 29 c4             	sub    rsp,rax
    f182:	48 8d 44 24 0f       	lea    rax,[rsp+0xf]
    f187:	48 83 e0 f0          	and    rax,0xfffffffffffffff0
    f18b:	48 89 45 c0          	mov    QWORD PTR [rbp-0x40],rax
    f18f:	48 89 45 c8          	mov    QWORD PTR [rbp-0x38],rax
    f193:	41 8b 44 24 14       	mov    eax,DWORD PTR [r12+0x14]
    f198:	48 09 05 59 6b 21 00 	or     QWORD PTR [rip+0x216b59],rax        # 225cf8 <_rtld_global_ro@@GLIBC_PRIVATE+0x58>
    f19f:	48 09 05 5a 6b 21 00 	or     QWORD PTR [rip+0x216b5a],rax        # 225d00 <_rtld_global_ro@@GLIBC_PRIVATE+0x60>
    f1a6:	89 c1                	mov    ecx,eax
    f1a8:	49 8d 44 1d 00       	lea    rax,[r13+rbx*1+0x0]
    f1ad:	31 db                	xor    ebx,ebx
    f1af:	49 39 c5             	cmp    r13,rax
    f1b2:	0f 83 3d 06 00 00    	jae    f7f5 <_dl_rtld_di_serinfo@@GLIBC_PRIVATE+0x6375>
    f1b8:	4c 89 7d b8          	mov    QWORD PTR [rbp-0x48],r15
    f1bc:	4c 89 75 a8          	mov    QWORD PTR [rbp-0x58],r14
    f1c0:	41 89 cc             	mov    r12d,ecx
    f1c3:	4d 89 ee             	mov    r14,r13
    f1c6:	49 89 df             	mov    r15,rbx
    f1c9:	49 89 c5             	mov    r13,rax
    f1cc:	eb 22                	jmp    f1f0 <_dl_rtld_di_serinfo@@GLIBC_PRIVATE+0x5d70>
    f1ce:	66 90                	xchg   ax,ax
    f1d0:	4c 89 fa             	mov    rdx,r15
    f1d3:	4c 8d 74 03 01       	lea    r14,[rbx+rax*1+0x1]
    f1d8:	49 83 c7 01          	add    r15,0x1
    f1dc:	48 c1 e2 04          	shl    rdx,0x4
    f1e0:	48 03 55 c0          	add    rdx,QWORD PTR [rbp-0x40]
    f1e4:	4d 39 ee             	cmp    r14,r13
    f1e7:	48 89 1a             	mov    QWORD PTR [rdx],rbx
    f1ea:	48 89 42 08          	mov    QWORD PTR [rdx+0x8],rax
    f1ee:	73 2b                	jae    f21b <_dl_rtld_di_serinfo@@GLIBC_PRIVATE+0x5d9b>
    f1f0:	49 8d 5e 01          	lea    rbx,[r14+0x1]
    f1f4:	48 89 df             	mov    rdi,rbx
    f1f7:	e8 c4 db 00 00       	call   1cdc0 <realloc@@GLIBC_2.2.5+0x2e90>
    f1fc:	41 0f b6 0e          	movzx  ecx,BYTE PTR [r14]
    f200:	ba 01 00 00 00       	mov    edx,0x1
    f205:	d3 e2                	shl    edx,cl
    f207:	44 85 e2             	test   edx,r12d
    f20a:	75 c4                	jne    f1d0 <_dl_rtld_di_serinfo@@GLIBC_PRIVATE+0x5d50>
    f20c:	4c 8d 74 03 01       	lea    r14,[rbx+rax*1+0x1]
    f211:	48 83 6d b8 01       	sub    QWORD PTR [rbp-0x48],0x1
    f216:	4d 39 ee             	cmp    r14,r13
    f219:	72 d5                	jb     f1f0 <_dl_rtld_di_serinfo@@GLIBC_PRIVATE+0x5d70>
    f21b:	4c 89 fb             	mov    rbx,r15
    f21e:	4c 8b 75 a8          	mov    r14,QWORD PTR [rbp-0x58]
    f222:	4c 8b 7d b8          	mov    r15,QWORD PTR [rbp-0x48]
    f226:	48 89 d8             	mov    rax,rbx
    f229:	48 8d 53 01          	lea    rdx,[rbx+0x1]
    f22d:	48 c1 e0 04          	shl    rax,0x4
    f231:	4d 85 f6             	test   r14,r14
    f234:	0f 84 ca 00 00 00    	je     f304 <_dl_rtld_di_serinfo@@GLIBC_PRIVATE+0x5e84>
    f23a:	31 c9                	xor    ecx,ecx
    f23c:	bf 01 00 00 00       	mov    edi,0x1
    f241:	0f 1f 80 00 00 00 00 	nop    DWORD PTR [rax+0x0]
    f248:	49 0f a3 ce          	bt     r14,rcx
    f24c:	73 39                	jae    f287 <_dl_rtld_di_serinfo@@GLIBC_PRIVATE+0x5e07>
    f24e:	48 89 d8             	mov    rax,rbx
    f251:	48 89 fa             	mov    rdx,rdi
    f254:	48 8d 35 4b 04 01 00 	lea    rsi,[rip+0x1044b]        # 1f6a6 <realloc@@GLIBC_2.2.5+0x5776>
    f25b:	48 c1 e0 04          	shl    rax,0x4
    f25f:	48 03 45 c8          	add    rax,QWORD PTR [rbp-0x38]
    f263:	48 d3 e2             	shl    rdx,cl
    f266:	48 83 c1 01          	add    rcx,0x1
    f26a:	49 31 d6             	xor    r14,rdx
    f26d:	48 89 30             	mov    QWORD PTR [rax],rsi
    f270:	48 c7 40 08 00 00 00 	mov    QWORD PTR [rax+0x8],0x0
    f277:	00 
    f278:	48 8d 43 01          	lea    rax,[rbx+0x1]
    f27c:	74 7e                	je     f2fc <_dl_rtld_di_serinfo@@GLIBC_PRIVATE+0x5e7c>
    f27e:	49 0f a3 ce          	bt     r14,rcx
    f282:	48 89 c3             	mov    rbx,rax
    f285:	72 c7                	jb     f24e <_dl_rtld_di_serinfo@@GLIBC_PRIVATE+0x5dce>
    f287:	48 83 c1 01          	add    rcx,0x1
    f28b:	eb bb                	jmp    f248 <_dl_rtld_di_serinfo@@GLIBC_PRIVATE+0x5dc8>
    f28d:	0f 1f 00             	nop    DWORD PTR [rax]
    f290:	4c 8b 75 c0          	mov    r14,QWORD PTR [rbp-0x40]
    f294:	49 83 c7 01          	add    r15,0x1
    f298:	49 83 c6 38          	add    r14,0x38
    f29c:	4c 39 7d c8          	cmp    QWORD PTR [rbp-0x38],r15
    f2a0:	0f 85 0c fe ff ff    	jne    f0b2 <_dl_rtld_di_serinfo@@GLIBC_PRIVATE+0x5c32>
    f2a6:	4c 8b 7d a8          	mov    r15,QWORD PTR [rbp-0x58]
    f2aa:	4c 8b 75 a0          	mov    r14,QWORD PTR [rbp-0x60]
    f2ae:	48 8d 3d d5 08 01 00 	lea    rdi,[rip+0x108d5]        # 1fb8a <realloc@@GLIBC_2.2.5+0x5c5a>
    f2b5:	31 f6                	xor    esi,esi
    f2b7:	e8 f4 be 00 00       	call   1b1b0 <realloc@@GLIBC_2.2.5+0x1280>
    f2bc:	85 c0                	test   eax,eax
    f2be:	0f 85 44 04 00 00    	jne    f708 <_dl_rtld_di_serinfo@@GLIBC_PRIVATE+0x6288>
    f2c4:	bf 10 00 00 00       	mov    edi,0x10
    f2c9:	e8 b2 17 ff ff       	call   a80 <malloc@plt>
    f2ce:	48 85 c0             	test   rax,rax
    f2d1:	0f 84 10 04 00 00    	je     f6e7 <_dl_rtld_di_serinfo@@GLIBC_PRIVATE+0x6267>
    f2d7:	48 8b 4d b0          	mov    rcx,QWORD PTR [rbp-0x50]
    f2db:	48 89 00             	mov    QWORD PTR [rax],rax
    f2de:	48 c7 40 08 00 00 00 	mov    QWORD PTR [rax+0x8],0x0
    f2e5:	00 
    f2e6:	48 c7 01 01 00 00 00 	mov    QWORD PTR [rcx],0x1
    f2ed:	48 8d 65 d8          	lea    rsp,[rbp-0x28]
    f2f1:	5b                   	pop    rbx
    f2f2:	41 5c                	pop    r12
    f2f4:	41 5d                	pop    r13
    f2f6:	41 5e                	pop    r14
    f2f8:	41 5f                	pop    r15
    f2fa:	5d                   	pop    rbp
    f2fb:	c3                   	ret
    f2fc:	48 8d 53 02          	lea    rdx,[rbx+0x2]
    f300:	48 c1 e0 04          	shl    rax,0x4
    f304:	48 8b 4d 98          	mov    rcx,QWORD PTR [rbp-0x68]
    f308:	48 85 c9             	test   rcx,rcx
    f30b:	74 1a                	je     f327 <_dl_rtld_di_serinfo@@GLIBC_PRIVATE+0x5ea7>
    f30d:	48 03 45 c8          	add    rax,QWORD PTR [rbp-0x38]
    f311:	48 89 08             	mov    QWORD PTR [rax],rcx
    f314:	48 8b 4d 88          	mov    rcx,QWORD PTR [rbp-0x78]
    f318:	48 89 48 08          	mov    QWORD PTR [rax+0x8],rcx
    f31c:	48 89 d0             	mov    rax,rdx
    f31f:	48 83 c2 01          	add    rdx,0x1
    f323:	48 c1 e0 04          	shl    rax,0x4
    f327:	48 03 45 c8          	add    rax,QWORD PTR [rbp-0x38]
    f32b:	48 8d 0d 6b 08 01 00 	lea    rcx,[rip+0x1086b]        # 1fb9d <realloc@@GLIBC_2.2.5+0x5c6d>
    f332:	49 39 d7             	cmp    r15,rdx
    f335:	48 89 08             	mov    QWORD PTR [rax],rcx
    f338:	48 c7 40 08 03 00 00 	mov    QWORD PTR [rax+0x8],0x3
    f33f:	00 
    f340:	0f 85 bb 04 00 00    	jne    f801 <_dl_rtld_di_serinfo@@GLIBC_PRIVATE+0x6381>
    f346:	49 83 ff 01          	cmp    r15,0x1
    f34a:	48 8b 45 c8          	mov    rax,QWORD PTR [rbp-0x38]
    f34e:	0f 84 6b 03 00 00    	je     f6bf <_dl_rtld_di_serinfo@@GLIBC_PRIVATE+0x623f>
    f354:	4d 89 f8             	mov    r8,r15
    f357:	48 8b 48 08          	mov    rcx,QWORD PTR [rax+0x8]
    f35b:	49 c1 e0 04          	shl    r8,0x4
    f35f:	49 83 ff 02          	cmp    r15,0x2
    f363:	4a 8d 74 00 f0       	lea    rsi,[rax+r8*1-0x10]
    f368:	48 89 cf             	mov    rdi,rcx
    f36b:	48 89 4d b8          	mov    QWORD PTR [rbp-0x48],rcx
    f36f:	48 89 c1             	mov    rcx,rax
    f372:	48 8b 46 08          	mov    rax,QWORD PTR [rsi+0x8]
    f376:	48 89 c2             	mov    rdx,rax
    f379:	48 89 45 c0          	mov    QWORD PTR [rbp-0x40],rax
    f37d:	48 89 f8             	mov    rax,rdi
    f380:	48 8d 44 10 02       	lea    rax,[rax+rdx*1+0x2]
    f385:	0f 86 2b 03 00 00    	jbe    f6b6 <_dl_rtld_di_serinfo@@GLIBC_PRIVATE+0x6236>
    f38b:	48 8d 14 00          	lea    rdx,[rax+rax*1]
    f38f:	4a 8d 7c 01 f8       	lea    rdi,[rcx+r8*1-0x8]
    f394:	48 89 c8             	mov    rax,rcx
    f397:	48 83 c0 18          	add    rax,0x18
    f39b:	0f 1f 44 00 00       	nop    DWORD PTR [rax+rax*1+0x0]
    f3a0:	48 8b 08             	mov    rcx,QWORD PTR [rax]
    f3a3:	48 83 c0 10          	add    rax,0x10
    f3a7:	48 39 f8             	cmp    rax,rdi
    f3aa:	48 8d 54 0a 01       	lea    rdx,[rdx+rcx*1+0x1]
    f3af:	75 ef                	jne    f3a0 <_dl_rtld_di_serinfo@@GLIBC_PRIVATE+0x5f20>
    f3b1:	49 83 ff 03          	cmp    r15,0x3
    f3b5:	0f 84 41 03 00 00    	je     f6fc <_dl_rtld_di_serinfo@@GLIBC_PRIVATE+0x627c>
    f3bb:	49 83 ff 3f          	cmp    r15,0x3f
    f3bf:	0f 87 22 03 00 00    	ja     f6e7 <_dl_rtld_di_serinfo@@GLIBC_PRIVATE+0x6267>
    f3c5:	48 8d 82 80 00 00 00 	lea    rax,[rdx+0x80]
    f3cc:	b9 43 00 00 00       	mov    ecx,0x43
    f3d1:	44 89 7d 98          	mov    DWORD PTR [rbp-0x68],r15d
    f3d5:	44 29 f9             	sub    ecx,r15d
    f3d8:	48 d3 e8             	shr    rax,cl
    f3db:	48 85 c0             	test   rax,rax
    f3de:	0f 85 03 03 00 00    	jne    f6e7 <_dl_rtld_di_serinfo@@GLIBC_PRIVATE+0x6267>
    f3e4:	8b 45 98             	mov    eax,DWORD PTR [rbp-0x68]
    f3e7:	8d 48 fd             	lea    ecx,[rax-0x3]
    f3ea:	48 89 d0             	mov    rax,rdx
    f3ed:	48 d3 e0             	shl    rax,cl
    f3f0:	0f b6 4d 98          	movzx  ecx,BYTE PTR [rbp-0x68]
    f3f4:	41 b9 01 00 00 00    	mov    r9d,0x1
    f3fa:	48 89 75 80          	mov    QWORD PTR [rbp-0x80],rsi
    f3fe:	44 89 ce             	mov    esi,r9d
    f401:	4c 89 45 88          	mov    QWORD PTR [rbp-0x78],r8
    f405:	44 89 4d a8          	mov    DWORD PTR [rbp-0x58],r9d
    f409:	d3 e6                	shl    esi,cl
    f40b:	48 8b 4d b0          	mov    rcx,QWORD PTR [rbp-0x50]
    f40f:	4c 63 e6             	movsxd r12,esi
    f412:	89 b5 7c ff ff ff    	mov    DWORD PTR [rbp-0x84],esi
    f418:	4c 89 e2             	mov    rdx,r12
    f41b:	48 c1 e2 04          	shl    rdx,0x4
    f41f:	4c 89 21             	mov    QWORD PTR [rcx],r12
    f422:	48 8d 3c 10          	lea    rdi,[rax+rdx*1]
    f426:	48 89 55 b0          	mov    QWORD PTR [rbp-0x50],rdx
    f42a:	e8 51 16 ff ff       	call   a80 <malloc@plt>
    f42f:	48 85 c0             	test   rax,rax
    f432:	48 89 45 a0          	mov    QWORD PTR [rbp-0x60],rax
    f436:	48 8b 55 b0          	mov    rdx,QWORD PTR [rbp-0x50]
    f43a:	44 8b 4d a8          	mov    r9d,DWORD PTR [rbp-0x58]
    f43e:	4c 8b 45 88          	mov    r8,QWORD PTR [rbp-0x78]
    f442:	48 8b 75 80          	mov    rsi,QWORD PTR [rbp-0x80]
    f446:	0f 84 9b 02 00 00    	je     f6e7 <_dl_rtld_di_serinfo@@GLIBC_PRIVATE+0x6267>
    f44c:	48 8d 3c 10          	lea    rdi,[rax+rdx*1]
    f450:	49 83 ff 02          	cmp    r15,0x2
    f454:	48 89 38             	mov    QWORD PTR [rax],rdi
    f457:	48 89 78 10          	mov    QWORD PTR [rax+0x10],rdi
    f45b:	0f 84 d4 02 00 00    	je     f735 <_dl_rtld_di_serinfo@@GLIBC_PRIVATE+0x62b5>
    f461:	8b 45 98             	mov    eax,DWORD PTR [rbp-0x68]
    f464:	4c 89 bd 70 ff ff ff 	mov    QWORD PTR [rbp-0x90],r15
    f46b:	4c 89 a5 68 ff ff ff 	mov    QWORD PTR [rbp-0x98],r12
    f472:	83 e8 01             	sub    eax,0x1
    f475:	89 c1                	mov    ecx,eax
    f477:	89 45 88             	mov    DWORD PTR [rbp-0x78],eax
    f47a:	48 8b 45 c8          	mov    rax,QWORD PTR [rbp-0x38]
    f47e:	41 d3 e1             	shl    r9d,cl
    f481:	44 89 4d 80          	mov    DWORD PTR [rbp-0x80],r9d
    f485:	4d 63 e9             	movsxd r13,r9d
    f488:	48 8b 08             	mov    rcx,QWORD PTR [rax]
    f48b:	49 01 c0             	add    r8,rax
    f48e:	4c 89 45 c8          	mov    QWORD PTR [rbp-0x38],r8
    f492:	48 89 4d b0          	mov    QWORD PTR [rbp-0x50],rcx
    f496:	48 8b 0e             	mov    rcx,QWORD PTR [rsi]
    f499:	48 89 4d a8          	mov    QWORD PTR [rbp-0x58],rcx
    f49d:	49 8d 4f fe          	lea    rcx,[r15-0x2]
    f4a1:	49 89 cf             	mov    r15,rcx
    f4a4:	0f 1f 40 00          	nop    DWORD PTR [rax+0x0]
    f4a8:	48 8b 55 c0          	mov    rdx,QWORD PTR [rbp-0x40]
    f4ac:	48 8b 75 a8          	mov    rsi,QWORD PTR [rbp-0x58]
    f4b0:	49 83 ed 02          	sub    r13,0x2
    f4b4:	4d 89 fc             	mov    r12,r15
    f4b7:	bb 01 00 00 00       	mov    ebx,0x1
    f4bc:	e8 5f e6 00 00       	call   1db20 <realloc@@GLIBC_2.2.5+0x3bf0>
    f4c1:	48 8d 35 8f 05 01 00 	lea    rsi,[rip+0x1058f]        # 1fa57 <realloc@@GLIBC_2.2.5+0x5b27>
    f4c8:	ba 01 00 00 00       	mov    edx,0x1
    f4cd:	48 89 c7             	mov    rdi,rax
    f4d0:	e8 4b e6 00 00       	call   1db20 <realloc@@GLIBC_2.2.5+0x3bf0>
    f4d5:	4c 8b 75 c8          	mov    r14,QWORD PTR [rbp-0x38]
    f4d9:	eb 0f                	jmp    f4ea <_dl_rtld_di_serinfo@@GLIBC_PRIVATE+0x606a>
    f4db:	0f 1f 44 00 00       	nop    DWORD PTR [rax+rax*1+0x0]
    f4e0:	49 83 ee 10          	sub    r14,0x10
    f4e4:	49 83 ec 01          	sub    r12,0x1
    f4e8:	74 3d                	je     f527 <_dl_rtld_di_serinfo@@GLIBC_PRIVATE+0x60a7>
    f4ea:	89 da                	mov    edx,ebx
    f4ec:	44 89 e1             	mov    ecx,r12d
    f4ef:	d3 e2                	shl    edx,cl
    f4f1:	48 63 d2             	movsxd rdx,edx
    f4f4:	4c 85 ea             	test   rdx,r13
    f4f7:	74 e7                	je     f4e0 <_dl_rtld_di_serinfo@@GLIBC_PRIVATE+0x6060>
    f4f9:	49 8b 56 e8          	mov    rdx,QWORD PTR [r14-0x18]
    f4fd:	49 8b 76 e0          	mov    rsi,QWORD PTR [r14-0x20]
    f501:	48 89 c7             	mov    rdi,rax
    f504:	49 83 ee 10          	sub    r14,0x10
    f508:	e8 13 e6 00 00       	call   1db20 <realloc@@GLIBC_2.2.5+0x3bf0>
    f50d:	48 8d 35 43 05 01 00 	lea    rsi,[rip+0x10543]        # 1fa57 <realloc@@GLIBC_2.2.5+0x5b27>
    f514:	ba 01 00 00 00       	mov    edx,0x1
    f519:	48 89 c7             	mov    rdi,rax
    f51c:	e8 ff e5 00 00       	call   1db20 <realloc@@GLIBC_2.2.5+0x3bf0>
    f521:	49 83 ec 01          	sub    r12,0x1
    f525:	75 c3                	jne    f4ea <_dl_rtld_di_serinfo@@GLIBC_PRIVATE+0x606a>
    f527:	48 8b 55 b8          	mov    rdx,QWORD PTR [rbp-0x48]
    f52b:	48 8b 75 b0          	mov    rsi,QWORD PTR [rbp-0x50]
    f52f:	48 89 c7             	mov    rdi,rax
    f532:	e8 e9 e5 00 00       	call   1db20 <realloc@@GLIBC_2.2.5+0x3bf0>
    f537:	48 8d 35 19 05 01 00 	lea    rsi,[rip+0x10519]        # 1fa57 <realloc@@GLIBC_2.2.5+0x5b27>
    f53e:	48 89 c7             	mov    rdi,rax
    f541:	ba 01 00 00 00       	mov    edx,0x1
    f546:	e8 d5 e5 00 00       	call   1db20 <realloc@@GLIBC_2.2.5+0x3bf0>
    f54b:	4d 85 ed             	test   r13,r13
    f54e:	48 89 c7             	mov    rdi,rax
    f551:	0f 85 51 ff ff ff    	jne    f4a8 <_dl_rtld_di_serinfo@@GLIBC_PRIVATE+0x6028>
    f557:	4c 8b bd 70 ff ff ff 	mov    r15,QWORD PTR [rbp-0x90]
    f55e:	4c 8b a5 68 ff ff ff 	mov    r12,QWORD PTR [rbp-0x98]
    f565:	0f b6 4d 98          	movzx  ecx,BYTE PTR [rbp-0x68]
    f569:	48 8b 75 a0          	mov    rsi,QWORD PTR [rbp-0x60]
    f56d:	ba 10 00 00 00       	mov    edx,0x10
    f572:	48 89 f0             	mov    rax,rsi
    f575:	48 d3 e2             	shl    rdx,cl
    f578:	48 01 f2             	add    rdx,rsi
    f57b:	0f 1f 44 00 00       	nop    DWORD PTR [rax+rax*1+0x0]
    f580:	48 c7 40 08 00 00 00 	mov    QWORD PTR [rax+0x8],0x0
    f587:	00 
    f588:	48 83 c0 10          	add    rax,0x10
    f58c:	48 39 d0             	cmp    rax,rdx
    f58f:	75 ef                	jne    f580 <_dl_rtld_di_serinfo@@GLIBC_PRIVATE+0x6100>
    f591:	4c 8b 6d c8          	mov    r13,QWORD PTR [rbp-0x38]
    f595:	4c 8b 4d a0          	mov    r9,QWORD PTR [rbp-0x60]
    f599:	bf 01 00 00 00       	mov    edi,0x1
    f59e:	4c 89 f9             	mov    rcx,r15
    f5a1:	0f 1f 80 00 00 00 00 	nop    DWORD PTR [rax+0x0]
    f5a8:	48 83 e9 01          	sub    rcx,0x1
    f5ac:	41 89 f8             	mov    r8d,edi
    f5af:	41 d3 e0             	shl    r8d,cl
    f5b2:	4d 85 e4             	test   r12,r12
    f5b5:	4d 63 c0             	movsxd r8,r8d
    f5b8:	74 31                	je     f5eb <_dl_rtld_di_serinfo@@GLIBC_PRIVATE+0x616b>
    f5ba:	4c 89 ca             	mov    rdx,r9
    f5bd:	4c 89 e0             	mov    rax,r12
    f5c0:	48 83 e8 01          	sub    rax,0x1
    f5c4:	49 85 c0             	test   r8,rax
    f5c7:	74 19                	je     f5e2 <_dl_rtld_di_serinfo@@GLIBC_PRIVATE+0x6162>
    f5c9:	49 8b 75 f8          	mov    rsi,QWORD PTR [r13-0x8]
    f5cd:	48 83 e8 01          	sub    rax,0x1
    f5d1:	48 83 c6 01          	add    rsi,0x1
    f5d5:	48 01 72 08          	add    QWORD PTR [rdx+0x8],rsi
    f5d9:	48 83 c2 10          	add    rdx,0x10
    f5dd:	49 85 c0             	test   r8,rax
    f5e0:	75 e7                	jne    f5c9 <_dl_rtld_di_serinfo@@GLIBC_PRIVATE+0x6149>
    f5e2:	48 83 c2 10          	add    rdx,0x10
    f5e6:	48 85 c0             	test   rax,rax
    f5e9:	75 d5                	jne    f5c0 <_dl_rtld_di_serinfo@@GLIBC_PRIVATE+0x6140>
    f5eb:	49 83 ed 10          	sub    r13,0x10
    f5ef:	48 85 c9             	test   rcx,rcx
    f5f2:	75 b4                	jne    f5a8 <_dl_rtld_di_serinfo@@GLIBC_PRIVATE+0x6128>
    f5f4:	48 8b 45 a0          	mov    rax,QWORD PTR [rbp-0x60]
    f5f8:	44 8b 85 7c ff ff ff 	mov    r8d,DWORD PTR [rbp-0x84]
    f5ff:	0f b6 4d 88          	movzx  ecx,BYTE PTR [rbp-0x78]
    f603:	41 83 e8 02          	sub    r8d,0x2
    f607:	48 8d 50 20          	lea    rdx,[rax+0x20]
    f60b:	b8 01 00 00 00       	mov    eax,0x1
    f610:	4d 63 c0             	movsxd r8,r8d
    f613:	48 d3 e0             	shl    rax,cl
    f616:	49 39 c0             	cmp    r8,rax
    f619:	74 47                	je     f662 <_dl_rtld_di_serinfo@@GLIBC_PRIVATE+0x61e2>
    f61b:	48 89 d1             	mov    rcx,rdx
    f61e:	4c 89 c6             	mov    rsi,r8
    f621:	eb 1a                	jmp    f63d <_dl_rtld_di_serinfo@@GLIBC_PRIVATE+0x61bd>
    f623:	0f 1f 44 00 00       	nop    DWORD PTR [rax+rax*1+0x0]
    f628:	48 8b 79 e8          	mov    rdi,QWORD PTR [rcx-0x18]
    f62c:	48 03 79 e0          	add    rdi,QWORD PTR [rcx-0x20]
    f630:	48 83 c1 10          	add    rcx,0x10
    f634:	48 89 79 f0          	mov    QWORD PTR [rcx-0x10],rdi
    f638:	48 39 c6             	cmp    rsi,rax
    f63b:	74 1b                	je     f658 <_dl_rtld_di_serinfo@@GLIBC_PRIVATE+0x61d8>
    f63d:	48 83 ee 01          	sub    rsi,0x1
    f641:	40 f6 c6 01          	test   sil,0x1
    f645:	75 e1                	jne    f628 <_dl_rtld_di_serinfo@@GLIBC_PRIVATE+0x61a8>
    f647:	48 8b 79 f0          	mov    rdi,QWORD PTR [rcx-0x10]
    f64b:	48 83 c1 10          	add    rcx,0x10
    f64f:	48 89 79 f0          	mov    QWORD PTR [rcx-0x10],rdi
    f653:	48 39 c6             	cmp    rsi,rax
    f656:	75 e5                	jne    f63d <_dl_rtld_di_serinfo@@GLIBC_PRIVATE+0x61bd>
    f658:	49 29 c0             	sub    r8,rax
    f65b:	49 c1 e0 04          	shl    r8,0x4
    f65f:	4c 01 c2             	add    rdx,r8
    f662:	8b 75 80             	mov    esi,DWORD PTR [rbp-0x80]
    f665:	48 8b 5d c0          	mov    rbx,QWORD PTR [rbp-0x40]
    f669:	f7 de                	neg    esi
    f66b:	48 83 c3 01          	add    rbx,0x1
    f66f:	48 63 f6             	movsxd rsi,esi
    f672:	48 c1 e6 04          	shl    rsi,0x4
    f676:	66 2e 0f 1f 84 00 00 	cs nop WORD PTR [rax+rax*1+0x0]
    f67d:	00 00 00 
    f680:	48 89 d9             	mov    rcx,rbx
    f683:	48 03 0c 32          	add    rcx,QWORD PTR [rdx+rsi*1]
    f687:	48 83 c2 10          	add    rdx,0x10
    f68b:	48 89 4a f0          	mov    QWORD PTR [rdx-0x10],rcx
    f68f:	48 83 e8 01          	sub    rax,0x1
    f693:	75 eb                	jne    f680 <_dl_rtld_di_serinfo@@GLIBC_PRIVATE+0x6200>
    f695:	48 8b 4d a0          	mov    rcx,QWORD PTR [rbp-0x60]
    f699:	48 8b 75 90          	mov    rsi,QWORD PTR [rbp-0x70]
    f69d:	48 8b 41 08          	mov    rax,QWORD PTR [rcx+0x8]
    f6a1:	48 89 06             	mov    QWORD PTR [rsi],rax
    f6a4:	48 8d 65 d8          	lea    rsp,[rbp-0x28]
    f6a8:	48 89 c8             	mov    rax,rcx
    f6ab:	5b                   	pop    rbx
    f6ac:	41 5c                	pop    r12
    f6ae:	41 5d                	pop    r13
    f6b0:	41 5e                	pop    r14
    f6b2:	41 5f                	pop    r15
    f6b4:	5d                   	pop    rbp
    f6b5:	c3                   	ret
    f6b6:	44 89 7d 98          	mov    DWORD PTR [rbp-0x68],r15d
    f6ba:	e9 31 fd ff ff       	jmp    f3f0 <_dl_rtld_di_serinfo@@GLIBC_PRIVATE+0x5f70>
    f6bf:	48 8b 58 08          	mov    rbx,QWORD PTR [rax+0x8]
    f6c3:	48 8b 45 b0          	mov    rax,QWORD PTR [rbp-0x50]
    f6c7:	48 8d 7b 21          	lea    rdi,[rbx+0x21]
    f6cb:	48 c7 00 02 00 00 00 	mov    QWORD PTR [rax],0x2
    f6d2:	4c 8d 63 01          	lea    r12,[rbx+0x1]
    f6d6:	e8 a5 13 ff ff       	call   a80 <malloc@plt>
    f6db:	48 85 c0             	test   rax,rax
    f6de:	49 89 c6             	mov    r14,rax
    f6e1:	0f 85 c7 00 00 00    	jne    f7ae <_dl_rtld_di_serinfo@@GLIBC_PRIVATE+0x632e>
    f6e7:	48 8d 0d c8 04 01 00 	lea    rcx,[rip+0x104c8]        # 1fbb6 <realloc@@GLIBC_2.2.5+0x5c86>
    f6ee:	31 d2                	xor    edx,edx
    f6f0:	31 f6                	xor    esi,esi
    f6f2:	bf 0c 00 00 00       	mov    edi,0xc
    f6f7:	e8 f4 09 00 00       	call   100f0 <_dl_rtld_di_serinfo@@GLIBC_PRIVATE+0x6c70>
    f6fc:	c7 45 98 03 00 00 00 	mov    DWORD PTR [rbp-0x68],0x3
    f703:	e9 dc fc ff ff       	jmp    f3e4 <_dl_rtld_di_serinfo@@GLIBC_PRIVATE+0x5f64>
    f708:	49 83 c7 01          	add    r15,0x1
    f70c:	ba 01 00 00 00       	mov    edx,0x1
    f711:	31 db                	xor    ebx,ebx
    f713:	4c 89 f8             	mov    rax,r15
    f716:	48 c1 e0 04          	shl    rax,0x4
    f71a:	48 83 c0 10          	add    rax,0x10
    f71e:	48 29 c4             	sub    rsp,rax
    f721:	31 c0                	xor    eax,eax
    f723:	4c 8d 6c 24 0f       	lea    r13,[rsp+0xf]
    f728:	49 83 e5 f0          	and    r13,0xfffffffffffffff0
    f72c:	4c 89 6d c8          	mov    QWORD PTR [rbp-0x38],r13
    f730:	e9 fc fa ff ff       	jmp    f231 <_dl_rtld_di_serinfo@@GLIBC_PRIVATE+0x5db1>
    f735:	48 8b 5d c8          	mov    rbx,QWORD PTR [rbp-0x38]
    f739:	44 89 4d a8          	mov    DWORD PTR [rbp-0x58],r9d
    f73d:	4c 89 45 b0          	mov    QWORD PTR [rbp-0x50],r8
    f741:	48 8b 53 18          	mov    rdx,QWORD PTR [rbx+0x18]
    f745:	48 8b 73 10          	mov    rsi,QWORD PTR [rbx+0x10]
    f749:	e8 d2 e3 00 00       	call   1db20 <realloc@@GLIBC_2.2.5+0x3bf0>
    f74e:	48 8d 35 02 03 01 00 	lea    rsi,[rip+0x10302]        # 1fa57 <realloc@@GLIBC_2.2.5+0x5b27>
    f755:	ba 01 00 00 00       	mov    edx,0x1
    f75a:	48 89 c7             	mov    rdi,rax
    f75d:	e8 be e3 00 00       	call   1db20 <realloc@@GLIBC_2.2.5+0x3bf0>
    f762:	48 8b 55 b8          	mov    rdx,QWORD PTR [rbp-0x48]
    f766:	48 8b 33             	mov    rsi,QWORD PTR [rbx]
    f769:	48 89 c7             	mov    rdi,rax
    f76c:	e8 af e3 00 00       	call   1db20 <realloc@@GLIBC_2.2.5+0x3bf0>
    f771:	48 8d 35 df 02 01 00 	lea    rsi,[rip+0x102df]        # 1fa57 <realloc@@GLIBC_2.2.5+0x5b27>
    f778:	ba 01 00 00 00       	mov    edx,0x1
    f77d:	48 89 c7             	mov    rdi,rax
    f780:	e8 9b e3 00 00       	call   1db20 <realloc@@GLIBC_2.2.5+0x3bf0>
    f785:	8b 45 98             	mov    eax,DWORD PTR [rbp-0x68]
    f788:	44 8b 4d a8          	mov    r9d,DWORD PTR [rbp-0x58]
    f78c:	4c 8b 45 b0          	mov    r8,QWORD PTR [rbp-0x50]
    f790:	83 e8 01             	sub    eax,0x1
    f793:	89 c1                	mov    ecx,eax
    f795:	89 45 88             	mov    DWORD PTR [rbp-0x78],eax
    f798:	48 89 d8             	mov    rax,rbx
    f79b:	41 d3 e1             	shl    r9d,cl
    f79e:	4c 01 c0             	add    rax,r8
    f7a1:	44 89 4d 80          	mov    DWORD PTR [rbp-0x80],r9d
    f7a5:	48 89 45 c8          	mov    QWORD PTR [rbp-0x38],rax
    f7a9:	e9 b7 fd ff ff       	jmp    f565 <_dl_rtld_di_serinfo@@GLIBC_PRIVATE+0x60e5>
    f7ae:	48 8d 78 20          	lea    rdi,[rax+0x20]
    f7b2:	4c 89 60 08          	mov    QWORD PTR [rax+0x8],r12
    f7b6:	48 c7 40 18 00 00 00 	mov    QWORD PTR [rax+0x18],0x0
    f7bd:	00 
    f7be:	48 89 da             	mov    rdx,rbx
    f7c1:	48 89 38             	mov    QWORD PTR [rax],rdi
    f7c4:	48 89 78 10          	mov    QWORD PTR [rax+0x10],rdi
    f7c8:	48 8b 45 c8          	mov    rax,QWORD PTR [rbp-0x38]
    f7cc:	48 8b 30             	mov    rsi,QWORD PTR [rax]
    f7cf:	e8 4c e3 00 00       	call   1db20 <realloc@@GLIBC_2.2.5+0x3bf0>
    f7d4:	c6 00 2f             	mov    BYTE PTR [rax],0x2f
    f7d7:	48 8b 45 b0          	mov    rax,QWORD PTR [rbp-0x50]
    f7db:	48 8b 4d 90          	mov    rcx,QWORD PTR [rbp-0x70]
    f7df:	48 c7 00 02 00 00 00 	mov    QWORD PTR [rax],0x2
    f7e6:	49 8b 46 08          	mov    rax,QWORD PTR [r14+0x8]
    f7ea:	48 89 01             	mov    QWORD PTR [rcx],rax
    f7ed:	4c 89 f0             	mov    rax,r14
    f7f0:	e9 f8 fa ff ff       	jmp    f2ed <_dl_rtld_di_serinfo@@GLIBC_PRIVATE+0x5e6d>
    f7f5:	ba 01 00 00 00       	mov    edx,0x1
    f7fa:	31 c0                	xor    eax,eax
    f7fc:	e9 30 fa ff ff       	jmp    f231 <_dl_rtld_di_serinfo@@GLIBC_PRIVATE+0x5db1>
    f801:	48 8d 0d 58 2c 01 00 	lea    rcx,[rip+0x12c58]        # 22460 <realloc@@GLIBC_2.2.5+0x8530>
    f808:	48 8d 35 92 03 01 00 	lea    rsi,[rip+0x10392]        # 1fba1 <realloc@@GLIBC_2.2.5+0x5c71>
    f80f:	48 8d 3d 97 03 01 00 	lea    rdi,[rip+0x10397]        # 1fbad <realloc@@GLIBC_2.2.5+0x5c7d>
    f816:	ba b5 00 00 00       	mov    edx,0xb5
    f81b:	e8 c0 a6 00 00       	call   19ee0 <free@@GLIBC_2.2.5+0x160>
    f820:	53                   	push   rbx
    f821:	49 89 fa             	mov    r10,rdi
    f824:	89 f6                	mov    esi,esi
    f826:	48 8d 14 76          	lea    rdx,[rsi+rsi*2]
    f82a:	48 83 ec 10          	sub    rsp,0x10
    f82e:	48 8b 47 68          	mov    rax,QWORD PTR [rdi+0x68]
    f832:	48 8b 78 08          	mov    rdi,QWORD PTR [rax+0x8]
    f836:	49 8b 82 f8 00 00 00 	mov    rax,QWORD PTR [r10+0xf8]
    f83d:	48 8b 40 08          	mov    rax,QWORD PTR [rax+0x8]
    f841:	4c 8d 04 d0          	lea    r8,[rax+rdx*8]
    f845:	49 8b 42 70          	mov    rax,QWORD PTR [r10+0x70]
    f849:	49 8b 48 08          	mov    rcx,QWORD PTR [r8+0x8]
    f84d:	48 8b 40 08          	mov    rax,QWORD PTR [rax+0x8]
    f851:	48 89 ca             	mov    rdx,rcx
    f854:	48 c1 ea 20          	shr    rdx,0x20
    f858:	48 8d 34 52          	lea    rsi,[rdx+rdx*2]
    f85c:	48 8d 34 f0          	lea    rsi,[rax+rsi*8]
    f860:	49 8b 02             	mov    rax,QWORD PTR [r10]
    f863:	48 89 74 24 08       	mov    QWORD PTR [rsp+0x8],rsi
    f868:	48 89 c3             	mov    rbx,rax
    f86b:	49 03 18             	add    rbx,QWORD PTR [r8]
    f86e:	83 f9 07             	cmp    ecx,0x7
    f871:	0f 85 50 01 00 00    	jne    f9c7 <_dl_rtld_di_serinfo@@GLIBC_PRIVATE+0x6547>
    f877:	f6 46 05 03          	test   BYTE PTR [rsi+0x5],0x3
    f87b:	0f 85 98 00 00 00    	jne    f919 <_dl_rtld_di_serinfo@@GLIBC_PRIVATE+0x6499>
    f881:	49 8b 82 c8 01 00 00 	mov    rax,QWORD PTR [r10+0x1c8]
    f888:	48 85 c0             	test   rax,rax
    f88b:	0f 84 af 00 00 00    	je     f940 <_dl_rtld_di_serinfo@@GLIBC_PRIVATE+0x64c0>
    f891:	48 8b 40 08          	mov    rax,QWORD PTR [rax+0x8]
    f895:	0f b7 04 50          	movzx  eax,WORD PTR [rax+rdx*2]
    f899:	25 ff 7f 00 00       	and    eax,0x7fff
    f89e:	48 8d 14 40          	lea    rdx,[rax+rax*2]
    f8a2:	49 8b 82 e0 02 00 00 	mov    rax,QWORD PTR [r10+0x2e0]
    f8a9:	4c 8d 04 d0          	lea    r8,[rax+rdx*8]
    f8ad:	b8 00 00 00 00       	mov    eax,0x0
    f8b2:	45 8b 48 08          	mov    r9d,DWORD PTR [r8+0x8]
    f8b6:	45 85 c9             	test   r9d,r9d
    f8b9:	4c 0f 44 c0          	cmove  r8,rax
    f8bd:	64 8b 04 25 18 00 00 	mov    eax,DWORD PTR fs:0x18
    f8c4:	00 
    f8c5:	85 c0                	test   eax,eax
    f8c7:	41 b9 01 00 00 00    	mov    r9d,0x1
    f8cd:	0f 85 8d 00 00 00    	jne    f960 <_dl_rtld_di_serinfo@@GLIBC_PRIVATE+0x64e0>
    f8d3:	8b 06                	mov    eax,DWORD PTR [rsi]
    f8d5:	49 8b 8a 80 03 00 00 	mov    rcx,QWORD PTR [r10+0x380]
    f8dc:	48 8d 54 24 08       	lea    rdx,[rsp+0x8]
    f8e1:	6a 00                	push   0x0
    f8e3:	41 51                	push   r9
    f8e5:	4c 89 d6             	mov    rsi,r10
    f8e8:	41 b9 01 00 00 00    	mov    r9d,0x1
    f8ee:	48 01 c7             	add    rdi,rax
    f8f1:	e8 0a af ff ff       	call   a800 <_dl_rtld_di_serinfo@@GLIBC_PRIVATE+0x1380>
    f8f6:	49 89 c0             	mov    r8,rax
    f8f9:	64 8b 04 25 18 00 00 	mov    eax,DWORD PTR fs:0x18
    f900:	00 
    f901:	85 c0                	test   eax,eax
    f903:	59                   	pop    rcx
    f904:	5e                   	pop    rsi
    f905:	75 79                	jne    f980 <_dl_rtld_di_serinfo@@GLIBC_PRIVATE+0x6500>
    f907:	48 8b 74 24 08       	mov    rsi,QWORD PTR [rsp+0x8]
    f90c:	48 85 f6             	test   rsi,rsi
    f90f:	74 3f                	je     f950 <_dl_rtld_di_serinfo@@GLIBC_PRIVATE+0x64d0>
    f911:	4d 85 c0             	test   r8,r8
    f914:	74 42                	je     f958 <_dl_rtld_di_serinfo@@GLIBC_PRIVATE+0x64d8>
    f916:	49 8b 00             	mov    rax,QWORD PTR [r8]
    f919:	0f b6 56 04          	movzx  edx,BYTE PTR [rsi+0x4]
    f91d:	48 03 46 08          	add    rax,QWORD PTR [rsi+0x8]
    f921:	83 e2 0f             	and    edx,0xf
    f924:	80 fa 0a             	cmp    dl,0xa
    f927:	0f 84 93 00 00 00    	je     f9c0 <_dl_rtld_di_serinfo@@GLIBC_PRIVATE+0x6540>
    f92d:	8b 15 b5 63 21 00    	mov    edx,DWORD PTR [rip+0x2163b5]        # 225ce8 <_rtld_global_ro@@GLIBC_PRIVATE+0x48>
    f933:	85 d2                	test   edx,edx
    f935:	75 03                	jne    f93a <_dl_rtld_di_serinfo@@GLIBC_PRIVATE+0x64ba>
    f937:	48 89 03             	mov    QWORD PTR [rbx],rax
    f93a:	48 83 c4 10          	add    rsp,0x10
    f93e:	5b                   	pop    rbx
    f93f:	c3                   	ret
    f940:	45 31 c0             	xor    r8d,r8d
    f943:	e9 75 ff ff ff       	jmp    f8bd <_dl_rtld_di_serinfo@@GLIBC_PRIVATE+0x643d>
    f948:	0f 1f 84 00 00 00 00 	nop    DWORD PTR [rax+rax*1+0x0]
    f94f:	00 
    f950:	31 c0                	xor    eax,eax
    f952:	eb d9                	jmp    f92d <_dl_rtld_di_serinfo@@GLIBC_PRIVATE+0x64ad>
    f954:	0f 1f 40 00          	nop    DWORD PTR [rax+0x0]
    f958:	31 c0                	xor    eax,eax
    f95a:	eb bd                	jmp    f919 <_dl_rtld_di_serinfo@@GLIBC_PRIVATE+0x6499>
    f95c:	0f 1f 40 00          	nop    DWORD PTR [rax+0x0]
    f960:	64 c7 04 25 1c 00 00 	mov    DWORD PTR fs:0x1c,0x1
    f967:	00 01 00 00 00 
    f96c:	41 b9 05 00 00 00    	mov    r9d,0x5
    f972:	e9 5c ff ff ff       	jmp    f8d3 <_dl_rtld_di_serinfo@@GLIBC_PRIVATE+0x6453>
    f977:	66 0f 1f 84 00 00 00 	nop    WORD PTR [rax+rax*1+0x0]
    f97e:	00 00 
    f980:	31 c0                	xor    eax,eax
    f982:	64 87 04 25 1c 00 00 	xchg   DWORD PTR fs:0x1c,eax
    f989:	00 
    f98a:	83 f8 02             	cmp    eax,0x2
    f98d:	0f 85 74 ff ff ff    	jne    f907 <_dl_rtld_di_serinfo@@GLIBC_PRIVATE+0x6487>
    f993:	64 48 8b 3c 25 10 00 	mov    rdi,QWORD PTR fs:0x10
    f99a:	00 00 
    f99c:	45 31 d2             	xor    r10d,r10d
    f99f:	ba 01 00 00 00       	mov    edx,0x1
    f9a4:	be 81 00 00 00       	mov    esi,0x81
    f9a9:	48 83 c7 1c          	add    rdi,0x1c
    f9ad:	b8 ca 00 00 00       	mov    eax,0xca
    f9b2:	0f 05                	syscall
    f9b4:	e9 4e ff ff ff       	jmp    f907 <_dl_rtld_di_serinfo@@GLIBC_PRIVATE+0x6487>
    f9b9:	0f 1f 80 00 00 00 00 	nop    DWORD PTR [rax+0x0]
    f9c0:	ff d0                	call   rax
    f9c2:	e9 66 ff ff ff       	jmp    f92d <_dl_rtld_di_serinfo@@GLIBC_PRIVATE+0x64ad>
    f9c7:	48 8d 0d e2 1f 01 00 	lea    rcx,[rip+0x11fe2]        # 219b0 <realloc@@GLIBC_2.2.5+0x7a80>
    f9ce:	48 8d 35 ff 01 01 00 	lea    rsi,[rip+0x101ff]        # 1fbd4 <realloc@@GLIBC_2.2.5+0x5ca4>
    f9d5:	48 8d 3d 9c 1f 01 00 	lea    rdi,[rip+0x11f9c]        # 21978 <realloc@@GLIBC_2.2.5+0x7a48>
    f9dc:	ba 4f 00 00 00       	mov    edx,0x4f
    f9e1:	e8 fa a4 00 00       	call   19ee0 <free@@GLIBC_2.2.5+0x160>
    f9e6:	66 2e 0f 1f 84 00 00 	cs nop WORD PTR [rax+rax*1+0x0]
    f9ed:	00 00 00 
    f9f0:	41 57                	push   r15
    f9f2:	41 56                	push   r14
    f9f4:	4d 89 c6             	mov    r14,r8
    f9f7:	41 55                	push   r13
    f9f9:	41 54                	push   r12
    f9fb:	55                   	push   rbp
    f9fc:	53                   	push   rbx
    f9fd:	48 89 fd             	mov    rbp,rdi
    fa00:	48 83 ec 78          	sub    rsp,0x78
    fa04:	48 8b 87 28 03 00 00 	mov    rax,QWORD PTR [rdi+0x328]
    fa0b:	48 89 4c 24 08       	mov    QWORD PTR [rsp+0x8],rcx
    fa10:	48 85 c0             	test   rax,rax
    fa13:	0f 84 27 05 00 00    	je     ff40 <_dl_rtld_di_serinfo@@GLIBC_PRIVATE+0x6ac0>
    fa19:	89 f6                	mov    esi,esi
    fa1b:	49 89 d7             	mov    r15,rdx
    fa1e:	48 89 f3             	mov    rbx,rsi
    fa21:	48 c1 e3 05          	shl    rbx,0x5
    fa25:	48 01 c3             	add    rbx,rax
    fa28:	4c 8b 23             	mov    r12,QWORD PTR [rbx]
    fa2b:	4d 85 e4             	test   r12,r12
    fa2e:	0f 85 7c 02 00 00    	jne    fcb0 <_dl_rtld_di_serinfo@@GLIBC_PRIVATE+0x6830>
    fa34:	48 8b 95 f8 00 00 00 	mov    rdx,QWORD PTR [rbp+0xf8]
    fa3b:	48 8b 47 68          	mov    rax,QWORD PTR [rdi+0x68]
    fa3f:	48 8b 4d 70          	mov    rcx,QWORD PTR [rbp+0x70]
    fa43:	4c 8b 6a 08          	mov    r13,QWORD PTR [rdx+0x8]
    fa47:	48 8b 78 08          	mov    rdi,QWORD PTR [rax+0x8]
    fa4b:	48 8d 04 76          	lea    rax,[rsi+rsi*2]
    fa4f:	48 8b 49 08          	mov    rcx,QWORD PTR [rcx+0x8]
    fa53:	49 8d 44 c5 00       	lea    rax,[r13+rax*8+0x0]
    fa58:	48 8b 50 08          	mov    rdx,QWORD PTR [rax+0x8]
    fa5c:	48 89 d0             	mov    rax,rdx
    fa5f:	48 c1 e8 20          	shr    rax,0x20
    fa63:	83 fa 07             	cmp    edx,0x7
    fa66:	48 8d 34 40          	lea    rsi,[rax+rax*2]
    fa6a:	48 8d 34 f1          	lea    rsi,[rcx+rsi*8]
    fa6e:	48 89 74 24 48       	mov    QWORD PTR [rsp+0x48],rsi
    fa73:	0f 85 3f 05 00 00    	jne    ffb8 <_dl_rtld_di_serinfo@@GLIBC_PRIVATE+0x6b38>
    fa79:	f6 46 05 03          	test   BYTE PTR [rsi+0x5],0x3
    fa7d:	0f 85 7d 04 00 00    	jne    ff00 <_dl_rtld_di_serinfo@@GLIBC_PRIVATE+0x6a80>
    fa83:	48 8b 95 c8 01 00 00 	mov    rdx,QWORD PTR [rbp+0x1c8]
    fa8a:	48 85 d2             	test   rdx,rdx
    fa8d:	0f 84 55 04 00 00    	je     fee8 <_dl_rtld_di_serinfo@@GLIBC_PRIVATE+0x6a68>
    fa93:	48 8b 52 08          	mov    rdx,QWORD PTR [rdx+0x8]
    fa97:	0f b7 04 42          	movzx  eax,WORD PTR [rdx+rax*2]
    fa9b:	25 ff 7f 00 00       	and    eax,0x7fff
    faa0:	48 8d 14 40          	lea    rdx,[rax+rax*2]
    faa4:	48 8b 85 e0 02 00 00 	mov    rax,QWORD PTR [rbp+0x2e0]
    faab:	4c 8d 04 d0          	lea    r8,[rax+rdx*8]
    faaf:	45 8b 58 08          	mov    r11d,DWORD PTR [r8+0x8]
    fab3:	45 85 db             	test   r11d,r11d
    fab6:	4d 0f 44 c4          	cmove  r8,r12
    faba:	64 8b 04 25 18 00 00 	mov    eax,DWORD PTR fs:0x18
    fac1:	00 
    fac2:	85 c0                	test   eax,eax
    fac4:	41 b9 01 00 00 00    	mov    r9d,0x1
    faca:	0f 85 88 04 00 00    	jne    ff58 <_dl_rtld_di_serinfo@@GLIBC_PRIVATE+0x6ad8>
    fad0:	8b 06                	mov    eax,DWORD PTR [rsi]
    fad2:	48 8b 8d 80 03 00 00 	mov    rcx,QWORD PTR [rbp+0x380]
    fad9:	48 8d 54 24 48       	lea    rdx,[rsp+0x48]
    fade:	6a 00                	push   0x0
    fae0:	41 51                	push   r9
    fae2:	48 89 ee             	mov    rsi,rbp
    fae5:	41 b9 01 00 00 00    	mov    r9d,0x1
    faeb:	48 01 c7             	add    rdi,rax
    faee:	e8 0d ad ff ff       	call   a800 <_dl_rtld_di_serinfo@@GLIBC_PRIVATE+0x1380>
    faf3:	49 89 c5             	mov    r13,rax
    faf6:	64 8b 04 25 18 00 00 	mov    eax,DWORD PTR fs:0x18
    fafd:	00 
    fafe:	85 c0                	test   eax,eax
    fb00:	41 59                	pop    r9
    fb02:	41 5a                	pop    r10
    fb04:	0f 85 66 04 00 00    	jne    ff70 <_dl_rtld_di_serinfo@@GLIBC_PRIVATE+0x6af0>
    fb0a:	48 8b 54 24 48       	mov    rdx,QWORD PTR [rsp+0x48]
    fb0f:	48 85 d2             	test   rdx,rdx
    fb12:	0f 84 c0 03 00 00    	je     fed8 <_dl_rtld_di_serinfo@@GLIBC_PRIVATE+0x6a58>
    fb18:	4d 85 ed             	test   r13,r13
    fb1b:	0f 84 cf 03 00 00    	je     fef0 <_dl_rtld_di_serinfo@@GLIBC_PRIVATE+0x6a70>
    fb21:	4d 8b 65 00          	mov    r12,QWORD PTR [r13+0x0]
    fb25:	0f b6 42 04          	movzx  eax,BYTE PTR [rdx+0x4]
    fb29:	4c 03 62 08          	add    r12,QWORD PTR [rdx+0x8]
    fb2d:	83 e0 0f             	and    eax,0xf
    fb30:	3c 0a                	cmp    al,0xa
    fb32:	0f 84 e8 03 00 00    	je     ff20 <_dl_rtld_di_serinfo@@GLIBC_PRIVATE+0x6aa0>
    fb38:	8b 35 ca 62 21 00    	mov    esi,DWORD PTR [rip+0x2162ca]        # 225e08 <_rtld_global_ro@@GLIBC_PRIVATE+0x168>
    fb3e:	85 f6                	test   esi,esi
    fb40:	0f 84 41 03 00 00    	je     fe87 <_dl_rtld_di_serinfo@@GLIBC_PRIVATE+0x6a07>
    fb46:	49 8b 45 70          	mov    rax,QWORD PTR [r13+0x70]
    fb4a:	4c 89 6b 08          	mov    QWORD PTR [rbx+0x8],r13
    fb4e:	48 89 d7             	mov    rdi,rdx
    fb51:	48 b9 ab aa aa aa aa 	movabs rcx,0xaaaaaaaaaaaaaaab
    fb58:	aa aa aa 
    fb5b:	48 2b 78 08          	sub    rdi,QWORD PTR [rax+0x8]
    fb5f:	48 89 f8             	mov    rax,rdi
    fb62:	48 c1 f8 03          	sar    rax,0x3
    fb66:	48 0f af c1          	imul   rax,rcx
    fb6a:	89 43 10             	mov    DWORD PTR [rbx+0x10],eax
    fb6d:	41 0f b6 85 15 03 00 	movzx  eax,BYTE PTR [r13+0x315]
    fb74:	00 
    fb75:	0a 85 15 03 00 00    	or     al,BYTE PTR [rbp+0x315]
    fb7b:	a8 10                	test   al,0x10
    fb7d:	0f 84 fd 02 00 00    	je     fe80 <_dl_rtld_di_serinfo@@GLIBC_PRIVATE+0x6a00>
    fb83:	c7 44 24 44 00 00 00 	mov    DWORD PTR [rsp+0x44],0x0
    fb8a:	00 
    fb8b:	48 8b 02             	mov    rax,QWORD PTR [rdx]
    fb8e:	41 bb 03 00 00 00    	mov    r11d,0x3
    fb94:	4c 8b 15 65 62 21 00 	mov    r10,QWORD PTR [rip+0x216265]        # 225e00 <_rtld_global_ro@@GLIBC_PRIVATE+0x160>
    fb9b:	4c 89 74 24 30       	mov    QWORD PTR [rsp+0x30],r14
    fba0:	4d 89 ee             	mov    r14,r13
    fba3:	48 89 44 24 50       	mov    QWORD PTR [rsp+0x50],rax
    fba8:	48 8b 42 08          	mov    rax,QWORD PTR [rdx+0x8]
    fbac:	48 89 44 24 58       	mov    QWORD PTR [rsp+0x58],rax
    fbb1:	48 8b 42 10          	mov    rax,QWORD PTR [rdx+0x10]
    fbb5:	4c 89 64 24 58       	mov    QWORD PTR [rsp+0x58],r12
    fbba:	41 bc 01 00 00 00    	mov    r12d,0x1
    fbc0:	48 89 44 24 60       	mov    QWORD PTR [rsp+0x60],rax
    fbc5:	49 8b 45 68          	mov    rax,QWORD PTR [r13+0x68]
    fbc9:	4d 89 d5             	mov    r13,r10
    fbcc:	c7 43 14 03 00 00 00 	mov    DWORD PTR [rbx+0x14],0x3
    fbd3:	48 8b 40 08          	mov    rax,QWORD PTR [rax+0x8]
    fbd7:	48 89 44 24 18       	mov    QWORD PTR [rsp+0x18],rax
    fbdc:	48 8d 44 24 44       	lea    rax,[rsp+0x44]
    fbe1:	48 89 44 24 20       	mov    QWORD PTR [rsp+0x20],rax
    fbe6:	48 8d 44 24 50       	lea    rax,[rsp+0x50]
    fbeb:	48 89 44 24 28       	mov    QWORD PTR [rsp+0x28],rax
    fbf0:	e9 8e 00 00 00       	jmp    fc83 <_dl_rtld_di_serinfo@@GLIBC_PRIVATE+0x6803>
    fbf5:	0f 1f 00             	nop    DWORD PTR [rax]
    fbf8:	4c 01 f1             	add    rcx,r14
    fbfb:	f6 41 08 01          	test   BYTE PTR [rcx+0x8],0x1
    fbff:	0f 84 9a 00 00 00    	je     fc9f <_dl_rtld_di_serinfo@@GLIBC_PRIVATE+0x681f>
    fc05:	49 8b 45 20          	mov    rax,QWORD PTR [r13+0x20]
    fc09:	48 85 c0             	test   rax,rax
    fc0c:	0f 84 b6 02 00 00    	je     fec8 <_dl_rtld_di_serinfo@@GLIBC_PRIVATE+0x6a48>
    fc12:	48 8b 74 24 48       	mov    rsi,QWORD PTR [rsp+0x48]
    fc17:	4c 8b 54 24 18       	mov    r10,QWORD PTR [rsp+0x18]
    fc1c:	44 89 5c 24 10       	mov    DWORD PTR [rsp+0x10],r11d
    fc21:	4c 8b 44 24 20       	mov    r8,QWORD PTR [rsp+0x20]
    fc26:	8b 3e                	mov    edi,DWORD PTR [rsi]
    fc28:	8b 73 10             	mov    esi,DWORD PTR [rbx+0x10]
    fc2b:	4d 8d 0c 3a          	lea    r9,[r10+rdi*1]
    fc2f:	48 8b 7c 24 28       	mov    rdi,QWORD PTR [rsp+0x28]
    fc34:	ff d0                	call   rax
    fc36:	48 3b 44 24 58       	cmp    rax,QWORD PTR [rsp+0x58]
    fc3b:	8b 54 24 44          	mov    edx,DWORD PTR [rsp+0x44]
    fc3f:	44 8b 5c 24 10       	mov    r11d,DWORD PTR [rsp+0x10]
    fc44:	74 0c                	je     fc52 <_dl_rtld_di_serinfo@@GLIBC_PRIVATE+0x67d2>
    fc46:	83 ca 10             	or     edx,0x10
    fc49:	48 89 44 24 58       	mov    QWORD PTR [rsp+0x58],rax
    fc4e:	89 54 24 44          	mov    DWORD PTR [rsp+0x44],edx
    fc52:	8b 35 b0 61 21 00    	mov    esi,DWORD PTR [rip+0x2161b0]        # 225e08 <_rtld_global_ro@@GLIBC_PRIVATE+0x168>
    fc58:	8b 43 14             	mov    eax,DWORD PTR [rbx+0x14]
    fc5b:	43 8d 0c 24          	lea    ecx,[r12+r12*1]
    fc5f:	21 d0                	and    eax,edx
    fc61:	83 e2 03             	and    edx,0x3
    fc64:	83 e0 03             	and    eax,0x3
    fc67:	d3 e2                	shl    edx,cl
    fc69:	09 c2                	or     edx,eax
    fc6b:	89 53 14             	mov    DWORD PTR [rbx+0x14],edx
    fc6e:	41 39 f4             	cmp    r12d,esi
    fc71:	4d 8b 6d 40          	mov    r13,QWORD PTR [r13+0x40]
    fc75:	41 8d 44 24 01       	lea    eax,[r12+0x1]
    fc7a:	0f 83 30 02 00 00    	jae    feb0 <_dl_rtld_di_serinfo@@GLIBC_PRIVATE+0x6a30>
    fc80:	41 89 c4             	mov    r12d,eax
    fc83:	41 8d 4c 24 ff       	lea    ecx,[r12-0x1]
    fc88:	48 83 c1 47          	add    rcx,0x47
    fc8c:	48 c1 e1 04          	shl    rcx,0x4
    fc90:	48 8d 54 0d 00       	lea    rdx,[rbp+rcx*1+0x0]
    fc95:	f6 42 08 02          	test   BYTE PTR [rdx+0x8],0x2
    fc99:	0f 85 59 ff ff ff    	jne    fbf8 <_dl_rtld_di_serinfo@@GLIBC_PRIVATE+0x6778>
    fc9f:	43 8d 0c 24          	lea    ecx,[r12+r12*1]
    fca3:	44 89 d8             	mov    eax,r11d
    fca6:	d3 e0                	shl    eax,cl
    fca8:	09 43 14             	or     DWORD PTR [rbx+0x14],eax
    fcab:	eb c1                	jmp    fc6e <_dl_rtld_di_serinfo@@GLIBC_PRIVATE+0x67ee>
    fcad:	0f 1f 00             	nop    DWORD PTR [rax]
    fcb0:	8b 35 52 61 21 00    	mov    esi,DWORD PTR [rip+0x216152]        # 225e08 <_rtld_global_ro@@GLIBC_PRIVATE+0x168>
    fcb6:	49 c7 c3 ff ff ff ff 	mov    r11,0xffffffffffffffff
    fcbd:	85 f6                	test   esi,esi
    fcbf:	0f 84 9b 01 00 00    	je     fe60 <_dl_rtld_di_serinfo@@GLIBC_PRIVATE+0x69e0>
    fcc5:	f6 43 14 01          	test   BYTE PTR [rbx+0x14],0x1
    fcc9:	0f 85 91 01 00 00    	jne    fe60 <_dl_rtld_di_serinfo@@GLIBC_PRIVATE+0x69e0>
    fccf:	48 8b 53 08          	mov    rdx,QWORD PTR [rbx+0x8]
    fcd3:	8b 43 10             	mov    eax,DWORD PTR [rbx+0x10]
    fcd6:	4c 89 7c 24 30       	mov    QWORD PTR [rsp+0x30],r15
    fcdb:	4c 89 74 24 38       	mov    QWORD PTR [rsp+0x38],r14
    fce0:	49 89 df             	mov    r15,rbx
    fce3:	4c 8b 2d 16 61 21 00 	mov    r13,QWORD PTR [rip+0x216116]        # 225e00 <_rtld_global_ro@@GLIBC_PRIVATE+0x160>
    fcea:	4d 89 de             	mov    r14,r11
    fced:	48 8b 4a 70          	mov    rcx,QWORD PTR [rdx+0x70]
    fcf1:	48 8d 04 40          	lea    rax,[rax+rax*2]
    fcf5:	48 8b 79 08          	mov    rdi,QWORD PTR [rcx+0x8]
    fcf9:	48 8d 04 c7          	lea    rax,[rdi+rax*8]
    fcfd:	48 8b 08             	mov    rcx,QWORD PTR [rax]
    fd00:	48 89 4c 24 50       	mov    QWORD PTR [rsp+0x50],rcx
    fd05:	48 8b 48 08          	mov    rcx,QWORD PTR [rax+0x8]
    fd09:	48 89 4c 24 58       	mov    QWORD PTR [rsp+0x58],rcx
    fd0e:	48 8b 40 10          	mov    rax,QWORD PTR [rax+0x10]
    fd12:	4c 89 64 24 58       	mov    QWORD PTR [rsp+0x58],r12
    fd17:	41 bc 01 00 00 00    	mov    r12d,0x1
    fd1d:	48 89 44 24 60       	mov    QWORD PTR [rsp+0x60],rax
    fd22:	48 8b 42 68          	mov    rax,QWORD PTR [rdx+0x68]
    fd26:	8b 54 24 50          	mov    edx,DWORD PTR [rsp+0x50]
    fd2a:	48 03 50 08          	add    rdx,QWORD PTR [rax+0x8]
    fd2e:	8b 43 18             	mov    eax,DWORD PTR [rbx+0x18]
    fd31:	89 44 24 44          	mov    DWORD PTR [rsp+0x44],eax
    fd35:	48 8d 44 24 44       	lea    rax,[rsp+0x44]
    fd3a:	48 89 54 24 10       	mov    QWORD PTR [rsp+0x10],rdx
    fd3f:	48 89 44 24 18       	mov    QWORD PTR [rsp+0x18],rax
    fd44:	48 8d 44 24 50       	lea    rax,[rsp+0x50]
    fd49:	48 89 44 24 20       	mov    QWORD PTR [rsp+0x20],rax
    fd4e:	48 8d 44 24 48       	lea    rax,[rsp+0x48]
    fd53:	48 89 44 24 28       	mov    QWORD PTR [rsp+0x28],rax
    fd58:	eb 1b                	jmp    fd75 <_dl_rtld_di_serinfo@@GLIBC_PRIVATE+0x68f5>
    fd5a:	66 0f 1f 44 00 00    	nop    WORD PTR [rax+rax*1+0x0]
    fd60:	41 39 f4             	cmp    r12d,esi
    fd63:	4d 8b 6d 40          	mov    r13,QWORD PTR [r13+0x40]
    fd67:	41 8d 44 24 01       	lea    eax,[r12+0x1]
    fd6c:	0f 83 d6 00 00 00    	jae    fe48 <_dl_rtld_di_serinfo@@GLIBC_PRIVATE+0x69c8>
    fd72:	41 89 c4             	mov    r12d,eax
    fd75:	49 8b 45 28          	mov    rax,QWORD PTR [r13+0x28]
    fd79:	41 8d 54 24 ff       	lea    edx,[r12-0x1]
    fd7e:	48 85 c0             	test   rax,rax
    fd81:	74 dd                	je     fd60 <_dl_rtld_di_serinfo@@GLIBC_PRIVATE+0x68e0>
    fd83:	43 8d 1c 24          	lea    ebx,[r12+r12*1]
    fd87:	bf 01 00 00 00       	mov    edi,0x1
    fd8c:	89 d9                	mov    ecx,ebx
    fd8e:	d3 e7                	shl    edi,cl
    fd90:	41 85 7f 14          	test   DWORD PTR [r15+0x14],edi
    fd94:	75 ca                	jne    fd60 <_dl_rtld_di_serinfo@@GLIBC_PRIVATE+0x68e0>
    fd96:	48 83 c2 47          	add    rdx,0x47
    fd9a:	48 c7 44 24 48 ff ff 	mov    QWORD PTR [rsp+0x48],0xffffffffffffffff
    fda1:	ff ff 
    fda3:	41 8b 77 10          	mov    esi,DWORD PTR [r15+0x10]
    fda7:	48 c1 e2 04          	shl    rdx,0x4
    fdab:	48 89 d1             	mov    rcx,rdx
    fdae:	49 03 4f 08          	add    rcx,QWORD PTR [r15+0x8]
    fdb2:	48 01 ea             	add    rdx,rbp
    fdb5:	ff 74 24 28          	push   QWORD PTR [rsp+0x28]
    fdb9:	ff 74 24 18          	push   QWORD PTR [rsp+0x18]
    fdbd:	4c 8b 4c 24 28       	mov    r9,QWORD PTR [rsp+0x28]
    fdc2:	4c 8b 44 24 18       	mov    r8,QWORD PTR [rsp+0x18]
    fdc7:	48 8b 7c 24 30       	mov    rdi,QWORD PTR [rsp+0x30]
    fdcc:	ff d0                	call   rax
    fdce:	5a                   	pop    rdx
    fdcf:	59                   	pop    rcx
    fdd0:	48 3b 44 24 58       	cmp    rax,QWORD PTR [rsp+0x58]
    fdd5:	8b 54 24 44          	mov    edx,DWORD PTR [rsp+0x44]
    fdd9:	74 0c                	je     fde7 <_dl_rtld_di_serinfo@@GLIBC_PRIVATE+0x6967>
    fddb:	83 ca 10             	or     edx,0x10
    fdde:	48 89 44 24 58       	mov    QWORD PTR [rsp+0x58],rax
    fde3:	89 54 24 44          	mov    DWORD PTR [rsp+0x44],edx
    fde7:	41 8b 47 14          	mov    eax,DWORD PTR [r15+0x14]
    fdeb:	83 e2 03             	and    edx,0x3
    fdee:	89 d9                	mov    ecx,ebx
    fdf0:	d3 e2                	shl    edx,cl
    fdf2:	09 d0                	or     eax,edx
    fdf4:	ba 02 00 00 00       	mov    edx,0x2
    fdf9:	d3 e2                	shl    edx,cl
    fdfb:	41 89 47 14          	mov    DWORD PTR [r15+0x14],eax
    fdff:	85 c2                	test   edx,eax
    fe01:	75 2d                	jne    fe30 <_dl_rtld_di_serinfo@@GLIBC_PRIVATE+0x69b0>
    fe03:	48 8b 44 24 48       	mov    rax,QWORD PTR [rsp+0x48]
    fe08:	48 83 f8 ff          	cmp    rax,0xffffffffffffffff
    fe0c:	74 22                	je     fe30 <_dl_rtld_di_serinfo@@GLIBC_PRIVATE+0x69b0>
    fe0e:	49 83 fe fe          	cmp    r14,0xfffffffffffffffe
    fe12:	74 1c                	je     fe30 <_dl_rtld_di_serinfo@@GLIBC_PRIVATE+0x69b0>
    fe14:	49 83 fe ff          	cmp    r14,0xffffffffffffffff
    fe18:	0f 84 92 01 00 00    	je     ffb0 <_dl_rtld_di_serinfo@@GLIBC_PRIVATE+0x6b30>
    fe1e:	4c 39 f0             	cmp    rax,r14
    fe21:	74 0d                	je     fe30 <_dl_rtld_di_serinfo@@GLIBC_PRIVATE+0x69b0>
    fe23:	49 39 c6             	cmp    r14,rax
    fe26:	4c 0f 4c f0          	cmovl  r14,rax
    fe2a:	66 0f 1f 44 00 00    	nop    WORD PTR [rax+rax*1+0x0]
    fe30:	8b 35 d2 5f 21 00    	mov    esi,DWORD PTR [rip+0x215fd2]        # 225e08 <_rtld_global_ro@@GLIBC_PRIVATE+0x168>
    fe36:	4d 8b 6d 40          	mov    r13,QWORD PTR [r13+0x40]
    fe3a:	41 8d 44 24 01       	lea    eax,[r12+0x1]
    fe3f:	41 39 f4             	cmp    r12d,esi
    fe42:	0f 82 2a ff ff ff    	jb     fd72 <_dl_rtld_di_serinfo@@GLIBC_PRIVATE+0x68f2>
    fe48:	4d 89 f3             	mov    r11,r14
    fe4b:	4c 8b 7c 24 30       	mov    r15,QWORD PTR [rsp+0x30]
    fe50:	4c 8b 74 24 38       	mov    r14,QWORD PTR [rsp+0x38]
    fe55:	4c 8b 64 24 58       	mov    r12,QWORD PTR [rsp+0x58]
    fe5a:	66 0f 1f 44 00 00    	nop    WORD PTR [rax+rax*1+0x0]
    fe60:	4d 89 1e             	mov    QWORD PTR [r14],r11
    fe63:	4c 89 e6             	mov    rsi,r12
    fe66:	4c 89 ff             	mov    rdi,r15
    fe69:	e8 e2 2a 00 00       	call   12950 <_dl_mcount@@GLIBC_2.2.5>
    fe6e:	4c 89 e0             	mov    rax,r12
    fe71:	48 83 c4 78          	add    rsp,0x78
    fe75:	5b                   	pop    rbx
    fe76:	5d                   	pop    rbp
    fe77:	41 5c                	pop    r12
    fe79:	41 5d                	pop    r13
    fe7b:	41 5e                	pop    r14
    fe7d:	41 5f                	pop    r15
    fe7f:	c3                   	ret
    fe80:	c7 43 14 ff ff 00 00 	mov    DWORD PTR [rbx+0x14],0xffff
    fe87:	44 8b 05 5a 5e 21 00 	mov    r8d,DWORD PTR [rip+0x215e5a]        # 225ce8 <_rtld_global_ro@@GLIBC_PRIVATE+0x48>
    fe8e:	45 85 c0             	test   r8d,r8d
    fe91:	75 03                	jne    fe96 <_dl_rtld_di_serinfo@@GLIBC_PRIVATE+0x6a16>
    fe93:	4c 89 23             	mov    QWORD PTR [rbx],r12
    fe96:	4d 85 e4             	test   r12,r12
    fe99:	0f 85 11 fe ff ff    	jne    fcb0 <_dl_rtld_di_serinfo@@GLIBC_PRIVATE+0x6830>
    fe9f:	49 c7 c3 ff ff ff ff 	mov    r11,0xffffffffffffffff
    fea6:	eb b8                	jmp    fe60 <_dl_rtld_di_serinfo@@GLIBC_PRIVATE+0x69e0>
    fea8:	0f 1f 84 00 00 00 00 	nop    DWORD PTR [rax+rax*1+0x0]
    feaf:	00 
    feb0:	8b 44 24 44          	mov    eax,DWORD PTR [rsp+0x44]
    feb4:	4c 8b 74 24 30       	mov    r14,QWORD PTR [rsp+0x30]
    feb9:	4c 8b 64 24 58       	mov    r12,QWORD PTR [rsp+0x58]
    febe:	89 43 18             	mov    DWORD PTR [rbx+0x18],eax
    fec1:	eb c4                	jmp    fe87 <_dl_rtld_di_serinfo@@GLIBC_PRIVATE+0x6a07>
    fec3:	0f 1f 44 00 00       	nop    DWORD PTR [rax+rax*1+0x0]
    fec8:	8b 54 24 44          	mov    edx,DWORD PTR [rsp+0x44]
    fecc:	e9 87 fd ff ff       	jmp    fc58 <_dl_rtld_di_serinfo@@GLIBC_PRIVATE+0x67d8>
    fed1:	0f 1f 80 00 00 00 00 	nop    DWORD PTR [rax+0x0]
    fed8:	8b 05 0a 5e 21 00    	mov    eax,DWORD PTR [rip+0x215e0a]        # 225ce8 <_rtld_global_ro@@GLIBC_PRIVATE+0x48>
    fede:	85 c0                	test   eax,eax
    fee0:	74 b1                	je     fe93 <_dl_rtld_di_serinfo@@GLIBC_PRIVATE+0x6a13>
    fee2:	eb bb                	jmp    fe9f <_dl_rtld_di_serinfo@@GLIBC_PRIVATE+0x6a1f>
    fee4:	0f 1f 40 00          	nop    DWORD PTR [rax+0x0]
    fee8:	45 31 c0             	xor    r8d,r8d
    feeb:	e9 ca fb ff ff       	jmp    faba <_dl_rtld_di_serinfo@@GLIBC_PRIVATE+0x663a>
    fef0:	45 31 e4             	xor    r12d,r12d
    fef3:	e9 2d fc ff ff       	jmp    fb25 <_dl_rtld_di_serinfo@@GLIBC_PRIVATE+0x66a5>
    fef8:	0f 1f 84 00 00 00 00 	nop    DWORD PTR [rax+rax*1+0x0]
    feff:	00 
    ff00:	0f b6 46 04          	movzx  eax,BYTE PTR [rsi+0x4]
    ff04:	4c 8b 66 08          	mov    r12,QWORD PTR [rsi+0x8]
    ff08:	48 89 f2             	mov    rdx,rsi
    ff0b:	4c 03 65 00          	add    r12,QWORD PTR [rbp+0x0]
    ff0f:	49 89 ed             	mov    r13,rbp
    ff12:	83 e0 0f             	and    eax,0xf
    ff15:	3c 0a                	cmp    al,0xa
    ff17:	0f 85 1b fc ff ff    	jne    fb38 <_dl_rtld_di_serinfo@@GLIBC_PRIVATE+0x66b8>
    ff1d:	0f 1f 00             	nop    DWORD PTR [rax]
    ff20:	41 ff d4             	call   r12
    ff23:	48 8b 54 24 48       	mov    rdx,QWORD PTR [rsp+0x48]
    ff28:	49 89 c4             	mov    r12,rax
    ff2b:	48 85 d2             	test   rdx,rdx
    ff2e:	0f 85 04 fc ff ff    	jne    fb38 <_dl_rtld_di_serinfo@@GLIBC_PRIVATE+0x66b8>
    ff34:	e9 4e ff ff ff       	jmp    fe87 <_dl_rtld_di_serinfo@@GLIBC_PRIVATE+0x6a07>
    ff39:	0f 1f 80 00 00 00 00 	nop    DWORD PTR [rax+0x0]
    ff40:	49 c7 00 ff ff ff ff 	mov    QWORD PTR [r8],0xffffffffffffffff
    ff47:	e8 d4 f8 ff ff       	call   f820 <_dl_rtld_di_serinfo@@GLIBC_PRIVATE+0x63a0>
    ff4c:	e9 20 ff ff ff       	jmp    fe71 <_dl_rtld_di_serinfo@@GLIBC_PRIVATE+0x69f1>
    ff51:	0f 1f 80 00 00 00 00 	nop    DWORD PTR [rax+0x0]
    ff58:	64 c7 04 25 1c 00 00 	mov    DWORD PTR fs:0x1c,0x1
    ff5f:	00 01 00 00 00 
    ff64:	41 b9 05 00 00 00    	mov    r9d,0x5
    ff6a:	e9 61 fb ff ff       	jmp    fad0 <_dl_rtld_di_serinfo@@GLIBC_PRIVATE+0x6650>
    ff6f:	90                   	nop
    ff70:	31 c0                	xor    eax,eax
    ff72:	64 87 04 25 1c 00 00 	xchg   DWORD PTR fs:0x1c,eax
    ff79:	00 
    ff7a:	83 f8 02             	cmp    eax,0x2
    ff7d:	0f 85 87 fb ff ff    	jne    fb0a <_dl_rtld_di_serinfo@@GLIBC_PRIVATE+0x668a>
    ff83:	64 48 8b 3c 25 10 00 	mov    rdi,QWORD PTR fs:0x10
    ff8a:	00 00 
    ff8c:	45 31 d2             	xor    r10d,r10d
    ff8f:	ba 01 00 00 00       	mov    edx,0x1
    ff94:	be 81 00 00 00       	mov    esi,0x81
    ff99:	48 83 c7 1c          	add    rdi,0x1c
    ff9d:	b8 ca 00 00 00       	mov    eax,0xca
    ffa2:	0f 05                	syscall
    ffa4:	e9 61 fb ff ff       	jmp    fb0a <_dl_rtld_di_serinfo@@GLIBC_PRIVATE+0x668a>
    ffa9:	0f 1f 80 00 00 00 00 	nop    DWORD PTR [rax+0x0]
    ffb0:	49 89 c6             	mov    r14,rax
    ffb3:	e9 78 fe ff ff       	jmp    fe30 <_dl_rtld_di_serinfo@@GLIBC_PRIVATE+0x69b0>
    ffb8:	48 8d 0d c1 24 01 00 	lea    rcx,[rip+0x124c1]        # 22480 <realloc@@GLIBC_2.2.5+0x8550>
    ffbf:	48 8d 35 0e fc 00 00 	lea    rsi,[rip+0xfc0e]        # 1fbd4 <realloc@@GLIBC_2.2.5+0x5ca4>
    ffc6:	48 8d 3d ab 19 01 00 	lea    rdi,[rip+0x119ab]        # 21978 <realloc@@GLIBC_2.2.5+0x7a48>
    ffcd:	ba cb 00 00 00       	mov    edx,0xcb
    ffd2:	e8 09 9f 00 00       	call   19ee0 <free@@GLIBC_2.2.5+0x160>
    ffd7:	66 0f 1f 84 00 00 00 	nop    WORD PTR [rax+rax*1+0x0]
    ffde:	00 00 
    ffe0:	41 57                	push   r15
    ffe2:	41 56                	push   r14
    ffe4:	89 f6                	mov    esi,esi
    ffe6:	41 55                	push   r13
    ffe8:	41 54                	push   r12
    ffea:	48 c1 e6 05          	shl    rsi,0x5
    ffee:	55                   	push   rbp
    ffef:	53                   	push   rbx
    fff0:	49 89 d7             	mov    r15,rdx
    fff3:	48 83 ec 38          	sub    rsp,0x38
    fff7:	48 03 b7 28 03 00 00 	add    rsi,QWORD PTR [rdi+0x328]
    fffe:	4c                   	rex.WR
    ffff:	8b                   	.byte 0x8b
