Gadgets information
============================================================
0x0000000000400457 : add al, byte ptr [rax] ; add byte ptr [rax], al ; jmp 0x400420
0x0000000000400570 : add al, ch ; mov edx, 0xc9fffffe ; ret
0x000000000040053d : add bh, bh ; loopne 0x40059e ; ret
0x000000000040060f : add bl, dh ; ret
0x00000000004004d4 : add byte ptr [rax - 0x3f], cl ; sti ; add ecx, dword ptr [rax - 0x7d] ; jmp 0x4004de
0x000000000040063f : add byte ptr [rax - 0x7d], cl ; jmp 0x40064c
0x00000000004004cd : add byte ptr [rax - 0x7f], cl ; jmp 0x40050a
0x000000000040060b : add byte ptr [rax], 0 ; add byte ptr [rax], al ; ret
0x000000000040056e : add byte ptr [rax], al ; add al, ch ; mov edx, 0xc9fffffe ; ret
0x000000000040060d : add byte ptr [rax], al ; add bl, dh ; ret
0x0000000000400437 : add byte ptr [rax], al ; add byte ptr [rax], al ; jmp 0x400420
0x000000000040060c : add byte ptr [rax], al ; add byte ptr [rax], al ; ret
0x0000000000400411 : add byte ptr [rax], al ; add rsp, 8 ; ret
0x0000000000400439 : add byte ptr [rax], al ; jmp 0x400420
0x000000000040060e : add byte ptr [rax], al ; ret
0x000000000040063e : add byte ptr [rax], al ; sub rbx, 8 ; call rax
0x000000000040063d : add byte ptr [rax], r8b ; sub rbx, 8 ; call rax
0x000000000040050b : add byte ptr [rcx], al ; add rsp, 8 ; pop rbx ; pop rbp ; ret
0x00000000004005e0 : add dword ptr [rax + 0x39], ecx ; jmp 0x40065a
0x0000000000400447 : add dword ptr [rax], eax ; add byte ptr [rax], al ; jmp 0x400420
0x00000000004004d8 : add ecx, dword ptr [rax - 0x7d] ; jmp 0x4004de
0x0000000000400293 : add edi, ebx ; retf
0x0000000000400605 : add esp, 0x38 ; ret
0x000000000040050e : add esp, 8 ; pop rbx ; pop rbp ; ret
0x0000000000400414 : add esp, 8 ; ret
0x0000000000400604 : add rsp, 0x38 ; ret
0x000000000040050d : add rsp, 8 ; pop rbx ; pop rbp ; ret
0x0000000000400413 : add rsp, 8 ; ret
0x0000000000400602 : and al, 0x30 ; add rsp, 0x38 ; ret
0x0000000000400434 : and byte ptr [rax], al ; push 0 ; jmp 0x400420
0x0000000000400444 : and byte ptr [rax], al ; push 1 ; jmp 0x400420
0x0000000000400454 : and byte ptr [rax], al ; push 2 ; jmp 0x400420
0x0000000000400495 : and byte ptr [rax], al ; test rax, rax ; je 0x40049e ; call rax
0x000000000040049c : call rax
0x0000000000400575 : dec ecx ; ret
0x00000000004005dc : fmul qword ptr [rax - 0x7d] ; ret
0x000000000040064e : int1 ; add rsp, 8 ; pop rbx ; pop rbp ; ret
0x000000000040049a : je 0x40049e ; call rax
0x0000000000400536 : je 0x400540 ; pop rbp ; mov edi, 0x600e48 ; jmp rax
0x000000000040043b : jmp 0x400420
0x00000000004004db : jmp 0x4004de
0x00000000004004d0 : jmp 0x40050a
0x0000000000400642 : jmp 0x40064c
0x00000000004005e3 : jmp 0x40065a
0x000000000040053e : jmp rax
0x000000000040064d : jne 0x400640 ; add rsp, 8 ; pop rbx ; pop rbp ; ret
0x0000000000400288 : jp 0x4002d5 ; retf 0x6d28
0x0000000000400576 : leave ; ret
0x000000000040053f : loopne 0x40059e ; ret
0x0000000000400539 : mov edi, 0x600e48 ; jmp rax
0x0000000000400600 : mov edi, dword ptr [rsp + 0x30] ; add rsp, 0x38 ; ret
0x0000000000400452 : mov edx, 0x6800200b ; add al, byte ptr [rax] ; add byte ptr [rax], al ; jmp 0x400420
0x0000000000400572 : mov edx, 0xc9fffffe ; ret
0x00000000004005ff : mov r15, qword ptr [rsp + 0x30] ; add rsp, 0x38 ; ret
0x000000000040063b : nop dword ptr [rax + rax] ; sub rbx, 8 ; call rax
0x0000000000400609 : nop dword ptr [rax] ; ret
0x0000000000400510 : or byte ptr [rbx + 0x5d], bl ; ret
0x000000000040040f : or eax, 0x48000002 ; add esp, 8 ; ret
0x00000000004004cb : or esp, dword ptr [rax] ; add byte ptr [rax - 0x7f], cl ; jmp 0x40050a
0x0000000000400538 : pop rbp ; mov edi, 0x600e48 ; jmp rax
0x0000000000400512 : pop rbp ; ret
0x0000000000400511 : pop rbx ; pop rbp ; ret
0x0000000000400436 : push 0 ; jmp 0x400420
0x0000000000400446 : push 1 ; jmp 0x400420
0x0000000000400456 : push 2 ; jmp 0x400420
0x000000000040064c : push qword ptr [rbp - 0xf] ; add rsp, 8 ; pop rbx ; pop rbp ; ret
0x0000000000400417 : ret
0x0000000000400442 : ret 0x200b
0x0000000000400297 : ret 1
0x0000000000400295 : retf
0x0000000000400422 : retf 0x200b
0x000000000040028a : retf 0x6d28
0x0000000000400499 : sal byte ptr [rdx + rax - 1], 0xd0 ; add rsp, 8 ; ret
0x00000000004004d7 : sti ; add ecx, dword ptr [rax - 0x7d] ; jmp 0x4004de
0x0000000000400287 : sti ; jp 0x4002d5 ; retf 0x6d28
0x0000000000400641 : sub ebx, 8 ; call rax
0x0000000000400640 : sub rbx, 8 ; call rax
0x0000000000400498 : test eax, eax ; je 0x40049e ; call rax
0x0000000000400497 : test rax, rax ; je 0x40049e ; call rax

Unique gadgets found: 79

./unexploitable:     file format elf64-x86-64


Disassembly of section .init:

0000000000400400 <_init>:
  400400:	48 83 ec 08          	sub    rsp,0x8
  400404:	e8 83 00 00 00       	call   40048c <call_gmon_start>
  400409:	e8 12 01 00 00       	call   400520 <frame_dummy>
  40040e:	e8 0d 02 00 00       	call   400620 <__do_global_ctors_aux>
  400413:	48 83 c4 08          	add    rsp,0x8
  400417:	c3                   	ret

Disassembly of section .plt:

0000000000400420 <.plt>:
  400420:	ff 35 ca 0b 20 00    	push   QWORD PTR [rip+0x200bca]        # 600ff0 <_GLOBAL_OFFSET_TABLE_+0x8>
  400426:	ff 25 cc 0b 20 00    	jmp    QWORD PTR [rip+0x200bcc]        # 600ff8 <_GLOBAL_OFFSET_TABLE_+0x10>
  40042c:	0f 1f 40 00          	nop    DWORD PTR [rax+0x0]

0000000000400430 <read@plt>:
  400430:	ff 25 ca 0b 20 00    	jmp    QWORD PTR [rip+0x200bca]        # 601000 <read@GLIBC_2.2.5>
  400436:	68 00 00 00 00       	push   0x0
  40043b:	e9 e0 ff ff ff       	jmp    400420 <.plt>

0000000000400440 <__libc_start_main@plt>:
  400440:	ff 25 c2 0b 20 00    	jmp    QWORD PTR [rip+0x200bc2]        # 601008 <__libc_start_main@GLIBC_2.2.5>
  400446:	68 01 00 00 00       	push   0x1
  40044b:	e9 d0 ff ff ff       	jmp    400420 <.plt>

0000000000400450 <sleep@plt>:
  400450:	ff 25 ba 0b 20 00    	jmp    QWORD PTR [rip+0x200bba]        # 601010 <sleep@GLIBC_2.2.5>
  400456:	68 02 00 00 00       	push   0x2
  40045b:	e9 c0 ff ff ff       	jmp    400420 <.plt>

Disassembly of section .text:

0000000000400460 <_start>:
  400460:	31 ed                	xor    ebp,ebp
  400462:	49 89 d1             	mov    r9,rdx
  400465:	5e                   	pop    rsi
  400466:	48 89 e2             	mov    rdx,rsp
  400469:	48 83 e4 f0          	and    rsp,0xfffffffffffffff0
  40046d:	50                   	push   rax
  40046e:	54                   	push   rsp
  40046f:	49 c7 c0 10 06 40 00 	mov    r8,0x400610
  400476:	48 c7 c1 80 05 40 00 	mov    rcx,0x400580
  40047d:	48 c7 c7 44 05 40 00 	mov    rdi,0x400544
  400484:	e8 b7 ff ff ff       	call   400440 <__libc_start_main@plt>
  400489:	f4                   	hlt
  40048a:	90                   	nop
  40048b:	90                   	nop

000000000040048c <call_gmon_start>:
  40048c:	48 83 ec 08          	sub    rsp,0x8
  400490:	48 8b 05 49 0b 20 00 	mov    rax,QWORD PTR [rip+0x200b49]        # 600fe0 <__gmon_start__>
  400497:	48 85 c0             	test   rax,rax
  40049a:	74 02                	je     40049e <call_gmon_start+0x12>
  40049c:	ff d0                	call   rax
  40049e:	48 83 c4 08          	add    rsp,0x8
  4004a2:	c3                   	ret
  4004a3:	90                   	nop
  4004a4:	90                   	nop
  4004a5:	90                   	nop
  4004a6:	90                   	nop
  4004a7:	90                   	nop
  4004a8:	90                   	nop
  4004a9:	90                   	nop
  4004aa:	90                   	nop
  4004ab:	90                   	nop
  4004ac:	90                   	nop
  4004ad:	90                   	nop
  4004ae:	90                   	nop
  4004af:	90                   	nop

00000000004004b0 <__do_global_dtors_aux>:
  4004b0:	55                   	push   rbp
  4004b1:	48 89 e5             	mov    rbp,rsp
  4004b4:	53                   	push   rbx
  4004b5:	48 83 ec 08          	sub    rsp,0x8
  4004b9:	80 3d 68 0b 20 00 00 	cmp    BYTE PTR [rip+0x200b68],0x0        # 601028 <completed.6531>
  4004c0:	75 4b                	jne    40050d <__do_global_dtors_aux+0x5d>
  4004c2:	bb 40 0e 60 00       	mov    ebx,0x600e40
  4004c7:	48 8b 05 62 0b 20 00 	mov    rax,QWORD PTR [rip+0x200b62]        # 601030 <dtor_idx.6533>
  4004ce:	48 81 eb 38 0e 60 00 	sub    rbx,0x600e38
  4004d5:	48 c1 fb 03          	sar    rbx,0x3
  4004d9:	48 83 eb 01          	sub    rbx,0x1
  4004dd:	48 39 d8             	cmp    rax,rbx
  4004e0:	73 24                	jae    400506 <__do_global_dtors_aux+0x56>
  4004e2:	66 0f 1f 44 00 00    	nop    WORD PTR [rax+rax*1+0x0]
  4004e8:	48 83 c0 01          	add    rax,0x1
  4004ec:	48 89 05 3d 0b 20 00 	mov    QWORD PTR [rip+0x200b3d],rax        # 601030 <dtor_idx.6533>
  4004f3:	ff 14 c5 38 0e 60 00 	call   QWORD PTR [rax*8+0x600e38]
  4004fa:	48 8b 05 2f 0b 20 00 	mov    rax,QWORD PTR [rip+0x200b2f]        # 601030 <dtor_idx.6533>
  400501:	48 39 d8             	cmp    rax,rbx
  400504:	72 e2                	jb     4004e8 <__do_global_dtors_aux+0x38>
  400506:	c6 05 1b 0b 20 00 01 	mov    BYTE PTR [rip+0x200b1b],0x1        # 601028 <completed.6531>
  40050d:	48 83 c4 08          	add    rsp,0x8
  400511:	5b                   	pop    rbx
  400512:	5d                   	pop    rbp
  400513:	c3                   	ret
  400514:	66 66 66 2e 0f 1f 84 	data16 data16 cs nop WORD PTR [rax+rax*1+0x0]
  40051b:	00 00 00 00 00 

0000000000400520 <frame_dummy>:
  400520:	48 83 3d 20 09 20 00 	cmp    QWORD PTR [rip+0x200920],0x0        # 600e48 <__JCR_END__>
  400527:	00 
  400528:	55                   	push   rbp
  400529:	48 89 e5             	mov    rbp,rsp
  40052c:	74 12                	je     400540 <frame_dummy+0x20>
  40052e:	b8 00 00 00 00       	mov    eax,0x0
  400533:	48 85 c0             	test   rax,rax
  400536:	74 08                	je     400540 <frame_dummy+0x20>
  400538:	5d                   	pop    rbp
  400539:	bf 48 0e 60 00       	mov    edi,0x600e48
  40053e:	ff e0                	jmp    rax
  400540:	5d                   	pop    rbp
  400541:	c3                   	ret
  400542:	90                   	nop
  400543:	90                   	nop

0000000000400544 <main>:
  400544:	55                   	push   rbp
  400545:	48 89 e5             	mov    rbp,rsp
  400548:	48 83 ec 10          	sub    rsp,0x10
  40054c:	bf 00 00 00 00       	mov    edi,0x0
  400551:	b8 00 00 00 00       	mov    eax,0x0
  400556:	e8 f5 fe ff ff       	call   400450 <sleep@plt>
  40055b:	48 8d 45 f0          	lea    rax,[rbp-0x10]
  40055f:	ba 00 01 00 00       	mov    edx,0x100
  400564:	48 89 c6             	mov    rsi,rax
  400567:	bf 00 00 00 00       	mov    edi,0x0
  40056c:	b8 00 00 00 00       	mov    eax,0x0
  400571:	e8 ba fe ff ff       	call   400430 <read@plt>
  400576:	c9                   	leave
  400577:	c3                   	ret
  400578:	90                   	nop
  400579:	90                   	nop
  40057a:	90                   	nop
  40057b:	90                   	nop
  40057c:	90                   	nop
  40057d:	90                   	nop
  40057e:	90                   	nop
  40057f:	90                   	nop

0000000000400580 <__libc_csu_init>:
  400580:	48 89 6c 24 d8       	mov    QWORD PTR [rsp-0x28],rbp
  400585:	4c 89 64 24 e0       	mov    QWORD PTR [rsp-0x20],r12
  40058a:	48 8d 2d 93 08 20 00 	lea    rbp,[rip+0x200893]        # 600e24 <__init_array_end>
  400591:	4c 8d 25 8c 08 20 00 	lea    r12,[rip+0x20088c]        # 600e24 <__init_array_end>
  400598:	4c 89 6c 24 e8       	mov    QWORD PTR [rsp-0x18],r13
  40059d:	4c 89 74 24 f0       	mov    QWORD PTR [rsp-0x10],r14
  4005a2:	4c 89 7c 24 f8       	mov    QWORD PTR [rsp-0x8],r15
  4005a7:	48 89 5c 24 d0       	mov    QWORD PTR [rsp-0x30],rbx
  4005ac:	48 83 ec 38          	sub    rsp,0x38
  4005b0:	4c 29 e5             	sub    rbp,r12
  4005b3:	41 89 fd             	mov    r13d,edi
  4005b6:	49 89 f6             	mov    r14,rsi
  4005b9:	48 c1 fd 03          	sar    rbp,0x3
  4005bd:	49 89 d7             	mov    r15,rdx
  4005c0:	e8 3b fe ff ff       	call   400400 <_init>
  4005c5:	48 85 ed             	test   rbp,rbp
  4005c8:	74 1c                	je     4005e6 <__libc_csu_init+0x66>
  4005ca:	31 db                	xor    ebx,ebx
  4005cc:	0f 1f 40 00          	nop    DWORD PTR [rax+0x0]
  4005d0:	4c 89 fa             	mov    rdx,r15
  4005d3:	4c 89 f6             	mov    rsi,r14
  4005d6:	44 89 ef             	mov    edi,r13d
  4005d9:	41 ff 14 dc          	call   QWORD PTR [r12+rbx*8]
  4005dd:	48 83 c3 01          	add    rbx,0x1
  4005e1:	48 39 eb             	cmp    rbx,rbp
  4005e4:	75 ea                	jne    4005d0 <__libc_csu_init+0x50>
  4005e6:	48 8b 5c 24 08       	mov    rbx,QWORD PTR [rsp+0x8]
  4005eb:	48 8b 6c 24 10       	mov    rbp,QWORD PTR [rsp+0x10]
  4005f0:	4c 8b 64 24 18       	mov    r12,QWORD PTR [rsp+0x18]
  4005f5:	4c 8b 6c 24 20       	mov    r13,QWORD PTR [rsp+0x20]
  4005fa:	4c 8b 74 24 28       	mov    r14,QWORD PTR [rsp+0x28]
  4005ff:	4c 8b 7c 24 30       	mov    r15,QWORD PTR [rsp+0x30]
  400604:	48 83 c4 38          	add    rsp,0x38
  400608:	c3                   	ret
  400609:	0f 1f 80 00 00 00 00 	nop    DWORD PTR [rax+0x0]

0000000000400610 <__libc_csu_fini>:
  400610:	f3 c3                	repz ret
  400612:	90                   	nop
  400613:	90                   	nop
  400614:	90                   	nop
  400615:	90                   	nop
  400616:	90                   	nop
  400617:	90                   	nop
  400618:	90                   	nop
  400619:	90                   	nop
  40061a:	90                   	nop
  40061b:	90                   	nop
  40061c:	90                   	nop
  40061d:	90                   	nop
  40061e:	90                   	nop
  40061f:	90                   	nop

0000000000400620 <__do_global_ctors_aux>:
  400620:	55                   	push   rbp
  400621:	48 89 e5             	mov    rbp,rsp
  400624:	53                   	push   rbx
  400625:	48 83 ec 08          	sub    rsp,0x8
  400629:	48 8b 05 f8 07 20 00 	mov    rax,QWORD PTR [rip+0x2007f8]        # 600e28 <__CTOR_LIST__>
  400630:	48 83 f8 ff          	cmp    rax,0xffffffffffffffff
  400634:	74 19                	je     40064f <__do_global_ctors_aux+0x2f>
  400636:	bb 28 0e 60 00       	mov    ebx,0x600e28
  40063b:	0f 1f 44 00 00       	nop    DWORD PTR [rax+rax*1+0x0]
  400640:	48 83 eb 08          	sub    rbx,0x8
  400644:	ff d0                	call   rax
  400646:	48 8b 03             	mov    rax,QWORD PTR [rbx]
  400649:	48 83 f8 ff          	cmp    rax,0xffffffffffffffff
  40064d:	75 f1                	jne    400640 <__do_global_ctors_aux+0x20>
  40064f:	48 83 c4 08          	add    rsp,0x8
  400653:	5b                   	pop    rbx
  400654:	5d                   	pop    rbp
  400655:	c3                   	ret
  400656:	90                   	nop
  400657:	90                   	nop

Disassembly of section .fini:

0000000000400658 <_fini>:
  400658:	48 83 ec 08          	sub    rsp,0x8
  40065c:	e8 4f fe ff ff       	call   4004b0 <__do_global_dtors_aux>
  400661:	48 83 c4 08          	add    rsp,0x8
  400665:	c3                   	ret
